;;; Segment CODE (00401000)
00401000 04 10 40 00 01 07 49 6E 74 65 67 65 72 04 00 00 ..@...Integer...
00401010 00 80 FF FF FF 7F 8B C0 1C 10 40 00 01 04 42 79 ..........@...By
00401020 74 65 01 00 00 00 00 FF 00 00 00 90 30 10 40 00 te..........0.@.
00401030 01 08 43 61 72 64 69 6E 61 6C 05 00 00 00 00 FF ..Cardinal......
00401040 FF FF FF 90 48 10 40 00 0A 06 53 74 72 69 6E 67 ....H.@...String
00401050 54 10 40 00 0B 0A 57 69 64 65 53 74 72 69 6E 67 T.@...WideString
00401060 AC 10 40 00 00 00 00 00 00 00 00 00 00 00 00 00 ..@.............
00401070 00 00 00 00 00 00 00 00 00 00 00 00 00 00 00 00 ................
00401080 AC 10 40 00 04 00 00 00 00 00 00 00 54 39 40 00 ..@.........T9@.
00401090 60 39 40 00 64 39 40 00 68 39 40 00 5C 39 40 00 `9@.d9@.h9@.\9@.
004010A0 B8 36 40 00 D4 36 40 00 10 37 40 00 07 54 4F 62 .6@..6@..7@..TOb
004010B0 6A 65 63 74 B8 10 40 00 07 07 54 4F 62 6A 65 63 ject..@...TObjec
004010C0 74 AC 10 40 00 00 00 00 00 00 00 06 53 79 73 74 t..@........Syst
004010D0 65 6D 00 00 D8 10 40 00 0F 0A 49 49 6E 74 65 72 em....@...IInter
004010E0 66 61 63 65 00 00 00 00 01 00 00 00 00 00 00 00 face............
004010F0 00 C0 00 00 00 00 00 00 46 06 53 79 73 74 65 6D ........F.System
00401100 03 00 FF FF CC 83 44 24 04 F8 E9 29 4B 00 00 83 ......D$...)K...
00401110 44 24 04 F8 E9 47 4B 00 00 83 44 24 04 F8 E9 51 D$...GK...D$...Q
00401120 4B 00 00 CC CC 05 11 40 00 0F 11 40 00 19 11 40 K......@...@...@
00401130 00 01 00 00 00 00 00 00 00 00 00 00 00 C0 00 00 ................
00401140 00 00 00 00 46 25 11 40 00 08 00 00 00 00 00 00 ....F%.@........
00401150 00 8D 40 00 A0 11 40 00 31 11 40 00 00 00 00 00 ..@...@.1.@.....
00401160 00 00 00 00 00 00 00 00 00 00 00 00 00 00 00 00 ................
00401170 00 00 00 00 A0 11 40 00 0C 00 00 00 60 10 40 00 ......@.....`.@.
00401180 54 39 40 00 0C 5C 40 00 18 5C 40 00 68 39 40 00 T9@..\@..\@.h9@.
00401190 5C 39 40 00 28 5C 40 00 D4 36 40 00 10 37 40 00 \9@.(\@..6@..7@.
004011A0 11 54 49 6E 74 65 72 66 61 63 65 64 4F 62 6A 65 .TInterfacedObje
004011B0 63 74 8B C0 FF 25 D0 E1 42 00 8B C0 FF 25 CC E1 ct...%..B....%..
004011C0 42 00 8B C0 FF 25 C8 E1 42 00 8B C0 FF 25 C4 E1 B....%..B....%..
004011D0 42 00 8B C0 FF 25 C0 E1 42 00 8B C0 FF 25 BC E1 B....%..B....%..
004011E0 42 00 8B C0 FF 25 B8 E1 42 00 8B C0 FF 25 B4 E1 B....%..B....%..
004011F0 42 00 8B C0 FF 25 B0 E1 42 00 8B C0 FF 25 AC E1 B....%..B....%..
00401200 42 00 8B C0 FF 25 A8 E1 42 00 8B C0 FF 25 A4 E1 B....%..B....%..
00401210 42 00 8B C0 FF 25 E4 E1 42 00 8B C0 FF 25 A0 E1 B....%..B....%..
00401220 42 00 8B C0 FF 25 E0 E1 42 00 8B C0 FF 25 9C E1 B....%..B....%..
00401230 42 00 8B C0 FF 25 98 E1 42 00 8B C0 FF 25 94 E1 B....%..B....%..
00401240 42 00 8B C0 FF 25 90 E1 42 00 8B C0 FF 25 8C E1 B....%..B....%..
00401250 42 00 8B C0 FF 25 88 E1 42 00 8B C0 FF 25 84 E1 B....%..B....%..
00401260 42 00 8B C0 FF 25 80 E1 42 00 8B C0 FF 25 7C E1 B....%..B....%|.
00401270 42 00 8B C0 FF 25 78 E1 42 00 8B C0 FF 25 74 E1 B....%x.B....%t.
00401280 42 00 8B C0 FF 25 70 E1 42 00 8B C0 FF 25 DC E1 B....%p.B....%..
00401290 42 00 8B C0 FF 25 6C E1 42 00 8B C0 FF 25 68 E1 B....%l.B....%h.
004012A0 42 00 8B C0 FF 25 64 E1 42 00 8B C0 FF 25 F4 E1 B....%d.B....%..
004012B0 42 00 8B C0 FF 25 F0 E1 42 00 8B C0 FF 25 EC E1 B....%..B....%..
004012C0 42 00 8B C0 FF 25 60 E1 42 00 8B C0 FF 25 5C E1 B....%`.B....%\.
004012D0 42 00 8B C0 FF 25 04 E2 42 00 8B C0 FF 25 00 E2 B....%..B....%..
004012E0 42 00 8B C0 FF 25 FC E1 42 00 8B C0 FF 25 58 E1 B....%..B....%X.
004012F0 42 00 8B C0 FF 25 54 E1 42 00 8B C0 FF 25 50 E1 B....%T.B....%P.
00401300 42 00 8B C0 FF 25 4C E1 42 00 8B C0 53 83 C4 BC B....%L.B...S...
00401310 BB 0A 00 00 00 54 E8 59 FF FF FF F6 44 24 2C 01 .....T.Y....D$,.
00401320 74 05 0F B7 5C 24 30 8B C3 83 C4 44 5B C3 8B C0 t...\$0....D[...
00401330 FF 25 48 E1 42 00 8B C0 FF 25 44 E1 42 00 8B C0 .%H.B....%D.B...
00401340 FF 25 40 E1 42 00 8B C0 FF 25 3C E1 42 00 8B C0 .%@.B....%<.B...
00401350 FF 25 38 E1 42 00 8B C0 FF 25 34 E1 42 00 8B C0 .%8.B....%4.B...
00401360 FF 25 30 E1 42 00 8B C0 FF 25 2C E1 42 00 8B C0 .%0.B....%,.B...
00401370 53 83 C4 F4 BB E8 B5 42 00 83 3B 00 75 59 68 44 S......B..;.uYhD
00401380 06 00 00 6A 00 E8 A6 FF FF FF 89 44 24 08 83 7C ...j.......D$..|
00401390 24 08 00 75 07 33 C0 89 04 24 EB 50 8B 44 24 08 $..u.3...$.P.D$.
004013A0 8B 15 E4 B5 42 00 89 10 8B 44 24 08 A3 E4 B5 42 ....B....D$....B
004013B0 00 33 C0 8B D0 03 D2 8B 4C 24 08 8D 54 D1 04 89 .3......L$..T...
004013C0 54 24 04 8B 54 24 04 8B 0B 89 0A 8B 54 24 04 89 T$..T$......T$..
004013D0 13 40 83 F8 64 75 DC 8B 03 89 44 24 04 8B 44 24 .@..du....D$..D$
004013E0 04 8B 00 89 03 8B 44 24 04 89 04 24 8B 04 24 83 ......D$...$..$.
004013F0 C4 0C 5B C3 89 00 89 40 04 C3 8B C0 53 56 83 C4 ..[....@....SV..
00401400 F8 8B F2 8B D8 E8 66 FF FF FF 89 44 24 04 83 7C ......f....D$..|
00401410 24 04 00 75 04 33 C0 EB 3A 8B 06 8B 54 24 04 89 $..u.3..:...T$..
00401420 42 08 8B 46 04 8B 54 24 04 89 42 0C 8B 03 89 04 B..F..T$..B.....
00401430 24 8B 44 24 04 8B 14 24 89 10 8B 44 24 04 89 58 $.D$...$...D$..X
00401440 04 8B 04 24 8B 54 24 04 89 50 04 8B 44 24 04 89 ...$.T$..P..D$..
00401450 03 B0 01 59 5A 5E 5B C3 83 C4 F8 8B 50 04 89 14 ...YZ^[.....P...
00401460 24 8B 10 89 54 24 04 8B 14 24 8B 4C 24 04 89 0A $...T$...$.L$...
00401470 8B 54 24 04 8B 0C 24 89 4A 04 8B 15 E8 B5 42 00 .T$...$.J.....B.
00401480 89 10 A3 E8 B5 42 00 59 5A C3 8B C0 53 56 57 55 .....B.YZ...SVWU
00401490 83 C4 F8 8B D9 8B F0 8B FC 8B 06 89 07 8B 02 89 ................
004014A0 03 8B 42 04 89 43 04 8B 07 8B 00 89 44 24 04 8B ..B..C......D$..
004014B0 17 8B 52 08 8B CA 8B 2F 03 4D 0C 8B 03 3B C8 75 ..R..../.M...;.u
004014C0 18 8B 07 E8 90 FF FF FF 8B 07 8B 40 08 89 03 8B ...........@....
004014D0 07 8B 40 0C 01 43 04 EB 16 03 43 04 3B D0 75 0F ..@..C....C.;.u.
004014E0 8B 07 E8 71 FF FF FF 8B 07 8B 40 0C 01 43 04 8B ...q......@..C..
004014F0 44 24 04 89 07 3B 37 75 AE 8B D3 8B C6 E8 FA FE D$...;7u........
00401500 FF FF 84 C0 75 04 33 C0 89 03 59 5A 5D 5F 5E 5B ....u.3...YZ]_^[
00401510 C3 8D 40 00 53 56 57 55 83 C4 F0 89 04 24 8B F4 ..@.SVWU.....$..
00401520 8B 06 89 44 24 0C 8B 0A 8B 06 8B 40 08 3B C8 0F ...D$......@.;..
00401530 82 86 00 00 00 8B D8 8B 3E 03 5F 0C 8B F9 03 7A ........>._....z
00401540 04 3B DF 72 76 3B C8 75 21 8B 42 04 8B 0E 01 41 .;.rv;.u!.B....A
00401550 08 8B 42 04 8B 16 29 42 0C 8B 06 83 78 0C 00 75 ..B...)B....x..u
00401560 56 8B 06 E8 F0 FE FF FF EB 4D 8B D8 8B 3E 03 5F V........M...>._
00401570 0C 8B F9 03 7A 04 3B DF 75 0A 8B 42 04 8B 16 29 ....z.;.u..B...)
00401580 42 0C EB 33 8B 1A 03 5A 04 89 5C 24 04 8B 3E 8B B..3...Z..\$..>.
00401590 7F 08 8B 2E 03 7D 0C 2B FB 89 7C 24 08 2B C8 8B .....}.+..|$.+..
004015A0 06 89 48 0C 8D 54 24 04 8B 06 E8 4D FE FF FF 84 ..H..T$....M....
004015B0 C0 75 04 33 C0 EB 18 B0 01 EB 14 8B 06 8B 00 89 .u.3............
004015C0 06 8B 06 3B 44 24 0C 0F 85 59 FF FF FF 33 C0 83 ...;D$...Y...3..
004015D0 C4 10 5D 5F 5E 5B C3 90 53 56 57 8B DA 8B F0 81 ..]_^[..SVW.....
004015E0 FE 00 00 10 00 7D 07 BE 00 00 10 00 EB 0C 81 C6 .....}..........
004015F0 FF FF 00 00 81 E6 00 00 FF FF 89 73 04 6A 01 68 ...........s.j.h
00401600 00 20 00 00 56 6A 00 E8 34 FD FF FF 8B F8 89 3B . ..Vj..4......;
00401610 85 FF 74 23 8B D3 B8 EC B5 42 00 E8 DC FD FF FF ..t#.....B......
00401620 84 C0 75 13 68 00 80 00 00 6A 00 8B 03 50 E8 15 ..u.h....j...P..
00401630 FD FF FF 33 C0 89 03 5F 5E 5B C3 90 53 56 57 55 ...3..._^[..SVWU
00401640 8B D9 8B F2 8B E8 C7 43 04 00 00 10 00 6A 04 68 .......C.....j.h
00401650 00 20 00 00 68 00 00 10 00 55 E8 E1 FC FF FF 8B . ..h....U......
00401660 F8 89 3B 85 FF 75 1F 81 C6 FF FF 00 00 81 E6 00 ..;..u..........
00401670 00 FF FF 89 73 04 6A 04 68 00 20 00 00 56 55 E8 ....s.j.h. ..VU.
00401680 BC FC FF FF 89 03 83 3B 00 74 23 8B D3 B8 EC B5 .......;.t#.....
00401690 42 00 E8 65 FD FF FF 84 C0 75 13 68 00 80 00 00 B..e.....u.h....
004016A0 6A 00 8B 03 50 E8 9E FC FF FF 33 C0 89 03 5D 5F j...P.....3...]_
004016B0 5E 5B C3 90 53 56 57 55 83 C4 E8 8B F9 8B F4 C7 ^[..SVWU........
004016C0 44 24 08 FF FF FF FF 33 C9 89 4C 24 0C 89 44 24 D$.....3..L$..D$
004016D0 10 03 54 24 10 89 54 24 14 A1 EC B5 42 00 89 06 ..T$..T$....B...
004016E0 EB 6B 8B 06 8B 00 89 44 24 04 8B 06 8B 58 08 3B .k.....D$....X.;
004016F0 5C 24 10 72 52 8B C3 8B 16 03 42 0C 3B 44 24 14 \$.rR.....B.;D$.
00401700 77 45 3B 5C 24 08 73 04 89 5C 24 08 8B 06 8B 68 wE;\$.s..\$....h
00401710 08 8B 06 03 68 0C 3B 6C 24 0C 76 04 89 6C 24 0C ....h.;l$.v..l$.
00401720 68 00 80 00 00 6A 00 8B 06 8B 40 08 50 E8 16 FC h....j....@.P...
00401730 FF FF 85 C0 75 0A C7 05 C8 B5 42 00 01 00 00 00 ....u.....B.....
00401740 8B 06 E8 11 FD FF FF 8B 44 24 04 89 06 B8 EC B5 ........D$......
00401750 42 00 3B 06 75 8C 33 C0 89 07 83 7C 24 0C 00 74 B.;.u.3....|$..t
00401760 11 8B 44 24 08 89 07 8B 44 24 0C 2B 44 24 08 89 ..D$....D$.+D$..
00401770 47 04 83 C4 18 5D 5F 5E 5B C3 8B C0 53 56 57 55 G....]_^[...SVWU
00401780 83 C4 E8 8B D9 89 14 24 8D 74 24 08 8D 7C 24 04 .......$.t$..|$.
00401790 8D 6C 24 0C 8B D0 8B CA 81 E1 00 F0 FF FF 89 4C .l$............L
004017A0 24 10 03 14 24 81 C2 FF 0F 00 00 81 E2 00 F0 FF $...$...........
004017B0 FF 89 54 24 14 8B 44 24 10 89 03 8B 44 24 14 2B ..T$..D$....D$.+
004017C0 44 24 10 89 43 04 A1 EC B5 42 00 89 07 EB 5B 8B D$..C....B....[.
004017D0 07 8B 40 08 89 06 8B 07 8B 40 0C 03 06 89 45 00 ..@......@....E.
004017E0 8B 06 3B 44 24 10 73 06 8B 44 24 10 89 06 8B 45 ..;D$.s..D$....E
004017F0 00 3B 44 24 14 76 07 8B 44 24 14 89 45 00 8B 06 .;D$.v..D$..E...
00401800 3B 45 00 73 1F 6A 04 68 00 10 00 00 8B 45 00 2B ;E.s.j.h.....E.+
00401810 06 50 8B 06 50 E8 26 FB FF FF 85 C0 75 06 33 C0 .P..P.&.....u.3.
00401820 89 03 EB 0F 8B 07 8B 00 89 07 B8 EC B5 42 00 3B .............B.;
00401830 07 75 9C 83 C4 18 5D 5F 5E 5B C3 90 53 56 57 55 .u....]_^[..SVWU
00401840 83 C4 E8 89 14 24 8D 74 24 08 8D 7C 24 04 8D 5C .....$.t$..|$..\
00401850 24 0C 8B D0 8B EA 81 C5 FF 0F 00 00 81 E5 00 F0 $...............
00401860 FF FF 89 6C 24 10 03 14 24 81 E2 00 F0 FF FF 89 ...l$...$.......
00401870 54 24 14 8B 44 24 10 89 01 8B 44 24 14 2B 44 24 T$..D$....D$.+D$
00401880 10 89 41 04 A1 EC B5 42 00 89 07 EB 58 8B 07 8B ..A....B....X...
00401890 40 08 89 06 8B 07 8B 40 0C 03 06 89 03 8B 06 3B @......@.......;
004018A0 44 24 10 73 06 8B 44 24 10 89 06 8B 03 3B 44 24 D$.s..D$.....;D$
004018B0 14 76 06 8B 44 24 14 89 03 8B 06 3B 03 73 20 68 .v..D$.....;.s h
004018C0 00 40 00 00 8B 03 2B 06 50 8B 06 50 E8 77 FA FF .@....+.P..P.w..
004018D0 FF 85 C0 75 0A C7 05 C8 B5 42 00 02 00 00 00 8B ...u.....B......
004018E0 07 8B 00 89 07 B8 EC B5 42 00 3B 07 75 9F 83 C4 ........B.;.u...
004018F0 18 5D 5F 5E 5B C3 8B C0 53 56 57 55 83 C4 F4 8B .]_^[...SVWU....
00401900 DA 8B F0 8B FC BD FC B5 42 00 81 C6 FF 3F 00 00 ........B....?..
00401910 81 E6 00 C0 FF FF 8B 45 00 89 07 EB 41 8B 07 3B .......E....A..;
00401920 70 0C 7F 34 8B CB 8B 07 8B 40 08 8B D6 E8 4A FE p..4.....@....J.
00401930 FF FF 83 3B 00 74 5F 8B 43 04 8B 17 01 42 08 8B ...;.t_.C....B..
00401940 43 04 8B 17 29 42 0C 8B 07 83 78 0C 00 75 47 8B C...)B....x..uG.
00401950 07 E8 02 FB FF FF EB 3E 8B 07 8B 00 89 07 3B 2F .......>......;/
00401960 75 BB 8B D3 8B C6 E8 6D FC FF FF 83 3B 00 74 26 u......m....;.t&
00401970 8D 4C 24 04 8B D3 8B C5 E8 0F FB FF FF 83 7C 24 .L$...........|$
00401980 04 00 75 92 8D 4C 24 04 8B 53 04 8B 03 E8 22 FD ..u..L$..S....".
00401990 FF FF 33 C0 89 03 83 C4 0C 5D 5F 5E 5B C3 8B C0 ..3......]_^[...
004019A0 53 56 57 55 83 C4 E8 89 0C 24 8B FA 8B D8 8D 74 SVWU.....$.....t
004019B0 24 04 BD FC B5 42 00 81 C7 FF 3F 00 00 81 E7 00 $....B....?.....
004019C0 C0 FF FF 8B 45 00 89 06 EB 06 8B 06 8B 00 89 06 ....E...........
004019D0 3B 2E 74 07 8B 06 3B 58 08 75 EF 8B 06 3B 58 08 ;.t...;X.u...;X.
004019E0 75 5F 8B 06 3B 78 0C 0F 8E 9C 00 00 00 8B 06 8B u_..;x..........
004019F0 D7 2B 50 0C 8B 06 8B 40 08 8B 0E 03 41 0C 8D 4C .+P....@....A..L
00401A00 24 08 E8 35 FC FF FF 83 7C 24 08 00 74 33 8D 4C $..5....|$..t3.L
00401A10 24 10 8D 54 24 08 8B C5 E8 6F FA FF FF 83 7C 24 $..T$....o....|$
00401A20 10 00 75 9F 8D 4C 24 10 8B 54 24 0C 8B 44 24 08 ..u..L$..T$..D$.
00401A30 E8 7F FC FF FF 8B 04 24 33 D2 89 10 E9 9A 00 00 .......$3.......
00401A40 00 8D 4C 24 08 8B D7 8B C3 E8 EE FB FF FF 83 7C ..L$...........|
00401A50 24 08 00 74 34 8D 4C 24 10 8D 54 24 08 8B C5 E8 $..t4.L$..T$....
00401A60 28 FA FF FF 83 7C 24 10 00 0F 85 54 FF FF FF 8D (....|$....T....
00401A70 4C 24 10 8B 54 24 0C 8B 44 24 08 E8 34 FC FF FF L$..T$..D$..4...
00401A80 8B 04 24 33 D2 89 10 EB 52 8B 06 8B 68 08 3B DD ..$3....R...h.;.
00401A90 75 42 8B 06 3B 78 0C 7F 3B 8B 0C 24 8B C5 8B D7 uB..;x..;..$....
00401AA0 E8 D7 FC FF FF 8B 04 24 83 38 00 74 2E 8B 04 24 .......$.8.t...$
00401AB0 8B 40 04 8B 16 01 42 08 8B 04 24 8B 40 04 8B 16 .@....B...$.@...
00401AC0 29 42 0C 8B 06 83 78 0C 00 75 10 8B 06 E8 86 F9 )B....x..u......
00401AD0 FF FF EB 07 8B 04 24 33 D2 89 10 83 C4 18 5D 5F ......$3......]_
00401AE0 5E 5B C3 90 53 83 C4 E8 8B D9 8D 88 FF 3F 00 00 ^[..S........?..
00401AF0 81 E1 00 C0 FF FF 89 0C 24 03 D0 81 E2 00 C0 FF ........$.......
00401B00 FF 89 54 24 04 8B 44 24 04 3B 04 24 76 5F 8B CB ..T$..D$.;.$v_..
00401B10 8B 54 24 04 2B 14 24 8B 04 24 E8 1D FD FF FF 8D .T$.+.$..$......
00401B20 4C 24 08 8B D3 B8 FC B5 42 00 E8 5D F9 FF FF 8B L$......B..]....
00401B30 5C 24 08 85 DB 74 1F 8D 4C 24 10 8B 54 24 0C 8B \$...t..L$..T$..
00401B40 C3 E8 6E FB FF FF 8B 44 24 10 89 44 24 08 8B 44 ..n....D$..D$..D
00401B50 24 14 89 44 24 0C 83 7C 24 08 00 74 14 8D 54 24 $..D$..|$..t..T$
00401B60 08 B8 FC B5 42 00 E8 A9 F9 FF FF EB 04 33 C0 89 ....B........3..
00401B70 03 83 C4 18 5B C3 8B C0 55 8B EC 51 33 D2 55 68 ....[...U..Q3.Uh
00401B80 40 1C 40 00 64 FF 32 64 89 22 68 CC B5 42 00 E8 @.@.d.2d."h..B..
00401B90 BC F7 FF FF 80 3D 4D B0 42 00 00 74 0A 68 CC B5 .....=M.B..t.h..
00401BA0 42 00 E8 B1 F7 FF FF B8 EC B5 42 00 E8 43 F8 FF B.........B..C..
00401BB0 FF B8 FC B5 42 00 E8 39 F8 FF FF B8 28 B6 42 00 ....B..9....(.B.
00401BC0 E8 2F F8 FF FF 68 F8 0F 00 00 6A 00 E8 5F F7 FF ./...h....j.._..
00401BD0 FF A3 24 B6 42 00 83 3D 24 B6 42 00 00 74 40 B8 ..$.B..=$.B..t@.
00401BE0 03 00 00 00 8B 15 24 B6 42 00 33 C9 89 4C 82 F4 ......$.B.3..L..
00401BF0 40 3D 01 04 00 00 75 EC C7 45 FC 0C B6 42 00 8B @=....u..E...B..
00401C00 45 FC 8B 55 FC 89 50 04 8B 45 FC 8B 55 FC 89 10 E..U..P..E..U...
00401C10 8B 45 FC A3 18 B6 42 00 C6 05 C4 B5 42 00 01 33 .E....B.....B..3
00401C20 C0 5A 59 59 64 89 10 68 47 1C 40 00 80 3D 4D B0 .ZYYd..hG.@..=M.
00401C30 42 00 00 74 0A 68 CC B5 42 00 E8 21 F7 FF FF C3 B..t.h..B..!....
00401C40 E9 DF 1F 00 00 EB E5 A0 C4 B5 42 00 59 5D C3 90 ..........B.Y]..
00401C50 55 8B EC 83 C4 F8 80 3D C4 B5 42 00 00 0F 84 E8 U......=..B.....
00401C60 00 00 00 33 C0 55 68 44 1D 40 00 64 FF 30 64 89 ...3.UhD.@.d.0d.
00401C70 20 80 3D 4D B0 42 00 00 74 0A 68 CC B5 42 00 E8  .=M.B..t.h..B..
00401C80 D4 F6 FF FF C6 05 C4 B5 42 00 00 A1 24 B6 42 00 ........B...$.B.
00401C90 50 E8 A2 F6 FF FF 33 C0 A3 24 B6 42 00 A1 EC B5 P.....3..$.B....
00401CA0 42 00 89 45 F8 EB 1B 68 00 80 00 00 6A 00 8B 45 B..E...h....j..E
00401CB0 F8 8B 40 08 50 E8 8E F6 FF FF 8B 45 F8 8B 00 89 ..@.P......E....
00401CC0 45 F8 B8 EC B5 42 00 3B 45 F8 75 DB B8 EC B5 42 E....B.;E.u....B
00401CD0 00 E8 1E F7 FF FF B8 FC B5 42 00 E8 14 F7 FF FF .........B......
00401CE0 B8 28 B6 42 00 E8 0A F7 FF FF A1 E4 B5 42 00 89 .(.B.........B..
00401CF0 45 FC 83 7D FC 00 74 21 8B 45 FC 8B 00 A3 E4 B5 E..}..t!.E......
00401D00 42 00 8B 45 FC 50 E8 2D F6 FF FF A1 E4 B5 42 00 B..E.P.-......B.
00401D10 89 45 FC 83 7D FC 00 75 DF 33 C0 5A 59 59 64 89 .E..}..u.3.ZYYd.
00401D20 10 68 4B 1D 40 00 80 3D 4D B0 42 00 00 74 0A 68 .hK.@..=M.B..t.h
00401D30 CC B5 42 00 E8 27 F6 FF FF 68 CC B5 42 00 E8 25 ..B..'...h..B..%
00401D40 F6 FF FF C3 E9 DB 1E 00 00 EB DB 59 59 5D C3 90 ...........YY]..
00401D50 53 83 C4 F8 3B 05 18 B6 42 00 75 09 8B 50 04 89 S...;...B.u..P..
00401D60 15 18 B6 42 00 8B 50 04 89 14 24 8B 50 08 81 FA ...B..P...$.P...
00401D70 00 10 00 00 7F 4E 3B 04 24 75 17 85 D2 79 03 83 .....N;.$u...y..
00401D80 C2 03 C1 FA 02 A1 24 B6 42 00 33 C9 89 4C 90 F4 ......$.B.3..L..
00401D90 EB 4B 85 D2 79 03 83 C2 03 C1 FA 02 8B 0D 24 B6 .K..y.........$.
00401DA0 42 00 8B 1C 24 89 5C 91 F4 8B 00 89 44 24 04 8B B...$.\.....D$..
00401DB0 04 24 8B 54 24 04 89 10 8B 44 24 04 8B 14 24 89 .$.T$....D$...$.
00401DC0 50 04 EB 19 8B 00 89 44 24 04 8B 04 24 8B 54 24 P......D$...$.T$
00401DD0 04 89 10 8B 44 24 04 8B 14 24 89 50 04 59 5A 5B ....D$...$.P.YZ[
00401DE0 C3 8D 40 00 53 51 8B CC 8B 15 28 B6 42 00 89 11 ..@.SQ....(.B...
00401DF0 EB 18 8B 11 8B 52 08 3B C2 72 09 8B 19 03 53 0C .....R.;.r....S.
00401E00 3B C2 72 1D 8B 11 8B 12 89 11 BA 28 B6 42 00 3B ;.r........(.B.;
00401E10 11 75 DF C7 05 C8 B5 42 00 03 00 00 00 33 C0 89 .u.....B.....3..
00401E20 01 8B 01 5A 5B C3 8B C0 53 51 8B CA 83 E9 04 8D ...Z[...SQ......
00401E30 1C 01 89 1C 24 83 FA 10 7C 13 8B 14 24 C7 02 07 ....$...|...$...
00401E40 00 00 80 8B D1 E8 DA 01 00 00 5A 5B C3 83 FA 04 ..........Z[....
00401E50 7C 0F 8B CA 81 C9 02 00 00 80 89 08 8B 04 24 89 |.............$.
00401E60 08 5A 5B C3 FF 05 B4 B5 42 00 8B D0 83 EA 04 8B .Z[.....B.......
00401E70 12 81 E2 FC FF FF 7F 83 EA 04 01 15 B8 B5 42 00 ..............B.
00401E80 E8 FB 06 00 00 C3 8B C0 83 FA 0C 7C 0E 83 CA 02 ...........|....
00401E90 89 10 83 C0 04 E8 CA FF FF FF C3 83 FA 04 7C 0A ..............|.
00401EA0 8B CA 81 C9 02 00 00 80 89 08 03 C2 83 20 FE C3 ............. ..
00401EB0 53 56 51 8B D0 83 EA 04 8B 12 8B CA 81 E1 02 00 SVQ.............
00401EC0 00 80 81 F9 02 00 00 80 74 0A C7 05 C8 B5 42 00 ........t.....B.
00401ED0 04 00 00 00 8B DA 81 E3 FC FF FF 7F 2B C3 8B C8 ............+...
00401EE0 33 11 F7 C2 FE FF FF FF 74 0A C7 05 C8 B5 42 00 3.......t.....B.
00401EF0 05 00 00 00 F6 01 01 74 29 8B D0 83 EA 0C 8B 72 .......t)......r
00401F00 08 2B C6 89 04 24 8B 04 24 3B 70 08 74 0A C7 05 .+...$..$;p.t...
00401F10 C8 B5 42 00 06 00 00 00 8B 04 24 E8 30 FE FF FF ..B.......$.0...
00401F20 03 DE 8B C3 5A 5E 5B C3 53 56 51 8B D8 33 F6 8B ....Z^[.SVQ..3..
00401F30 03 A9 00 00 00 80 74 0B 25 FC FF FF 7F 03 F0 03 ......t.%.......
00401F40 D8 8B 03 A8 02 75 18 89 1C 24 8B 04 24 E8 FE FD .....u...$..$...
00401F50 FF FF 8B 04 24 8B 40 08 03 F0 03 D8 83 23 FE 8B ....$.@......#..
00401F60 C6 5A 5E 5B C3 8D 40 00 53 56 57 55 83 C4 F4 8B .Z^[..@.SVWU....
00401F70 F2 8B E8 33 DB 8B C5 E8 68 FE FF FF 89 44 24 08 ...3....h....D$.
00401F80 83 7C 24 08 00 0F 84 8F 00 00 00 8B 44 24 08 8B .|$.........D$..
00401F90 78 08 8B C7 8B 54 24 08 03 42 0C 8B D0 8D 0C 2E x....T$..B......
00401FA0 2B D1 83 FA 0C 7F 04 8B F0 2B F5 8B C5 2B C7 83 +........+...+..
00401FB0 F8 0C 7D 16 8B 44 24 08 8B D5 2B 50 08 03 D6 8B ..}..D$...+P....
00401FC0 CC 8B C7 E8 1C FB FF FF EB 0F 8B CC 8B D6 83 EA ................
00401FD0 04 8D 45 04 E8 0B FB FF FF 8B 3C 24 85 FF 74 3A ..E.......<$..t:
00401FE0 8B D7 2B D5 8B C5 E8 3D FE FF FF 8B 54 24 08 8B ..+....=....T$..
00401FF0 52 08 8B 4C 24 08 03 51 0C 8B C7 03 44 24 04 3B R..L$..Q....D$.;
00402000 D0 76 0A 8D 14 2E 2B D0 E8 7B FE FF FF 8B D4 8B .v....+..{......
00402010 44 24 08 E8 FC F4 FF FF B3 01 8B C3 83 C4 0C 5D D$.............]
00402020 5F 5E 5B C3 53 56 83 C4 F4 8B DA 8B F0 89 34 24 _^[.SV........4$
00402030 8B 04 24 89 58 08 8B 04 24 03 C3 83 E8 0C 89 58 ..$.X...$......X
00402040 08 81 FB 00 10 00 00 7F 76 8B C3 85 C0 79 03 83 ........v....y..
00402050 C0 03 C1 F8 02 8B 15 24 B6 42 00 8B 54 82 F4 89 .......$.B..T...
00402060 54 24 04 83 7C 24 04 00 75 23 8B 15 24 B6 42 00 T$..|$..u#..$.B.
00402070 8B 0C 24 89 4C 82 F4 8B 04 24 8B 14 24 89 50 04 ..$.L....$..$.P.
00402080 8B 04 24 8B 14 24 89 10 E9 88 00 00 00 8B 44 24 ..$..$........D$
00402090 04 8B 00 89 44 24 08 8B 04 24 8B 54 24 04 89 50 ....D$...$.T$..P
004020A0 04 8B 04 24 8B 54 24 08 89 10 8B 44 24 04 8B 14 ...$.T$....D$...
004020B0 24 89 10 8B 44 24 08 8B 14 24 89 50 04 EB 56 81 $...D$...$.P..V.
004020C0 FB 00 3C 00 00 7C 0D 8B D3 8B C6 E8 98 FE FF FF ..<..|..........
004020D0 84 C0 75 41 A1 18 B6 42 00 89 44 24 04 8B 04 24 ..uA...B..D$...$
004020E0 A3 18 B6 42 00 8B 44 24 04 8B 00 89 44 24 08 8B ...B..D$....D$..
004020F0 04 24 8B 54 24 04 89 50 04 8B 04 24 8B 54 24 08 .$.T$..P...$.T$.
00402100 89 10 8B 44 24 04 8B 14 24 89 10 8B 44 24 08 8B ...D$...$...D$..
00402110 14 24 89 50 04 83 C4 0C 5E 5B C3 90 83 3D 1C B6 .$.P....^[...=..
00402120 42 00 00 7E 40 83 3D 1C B6 42 00 0C 7D 0C C7 05 B..~@.=..B..}...
00402130 C8 B5 42 00 07 00 00 00 EB 2B A1 1C B6 42 00 83 ..B......+...B..
00402140 C8 02 8B 15 20 B6 42 00 89 02 A1 20 B6 42 00 83 .... .B.... .B..
00402150 C0 04 E8 0D FD FF FF 33 C0 A3 20 B6 42 00 33 C0 .......3.. .B.3.
00402160 A3 1C B6 42 00 C3 8B C0 53 56 57 83 C4 F0 8B F0 ...B....SVW.....
00402170 8D 3C 24 A5 A5 8B FC E8 A0 FF FF FF 8D 4C 24 08 .<$..........L$.
00402180 8B D7 B8 28 B6 42 00 E8 00 F3 FF FF 8B 5C 24 08 ...(.B.......\$.
00402190 85 DB 75 04 33 C0 EB 52 8B 07 3B D8 73 0A E8 0D ..u.3..R..;.s...
004021A0 FD FF FF 29 07 01 47 04 8B 07 03 47 04 8B F3 03 ...)..G....G....
004021B0 74 24 0C 3B C6 73 08 E8 6C FD FF FF 01 47 04 8B t$.;.s..l....G..
004021C0 07 03 47 04 3B F0 75 11 83 E8 04 BA 04 00 00 00 ..G.;.u.........
004021D0 E8 53 FC FF FF 83 6F 04 04 8B 07 A3 20 B6 42 00 .S....o..... .B.
004021E0 8B 47 04 A3 1C B6 42 00 B0 01 83 C4 10 5F 5E 5B .G....B......_^[
004021F0 C3 8D 40 00 53 83 C4 F8 8B D8 8B D4 8D 43 04 E8 ..@.S........C..
00402200 F4 F6 FF FF 83 3C 24 00 74 0B 8B C4 E8 57 FF FF .....<$.t....W..
00402210 FF 84 C0 75 04 33 C0 EB 02 B0 01 59 5A 5B C3 90 ...u.3.....YZ[..
00402220 53 56 83 C4 F8 8B F2 8B D8 8B CC 8D 56 04 8B C3 SV..........V...
00402230 E8 6B F7 FF FF 83 3C 24 00 74 0B 8B C4 E8 26 FF .k....<$.t....&.
00402240 FF FF 84 C0 75 04 33 C0 EB 02 B0 01 59 5A 5E 5B ....u.3.....YZ^[
00402250 C3 8D 40 00 51 8B D4 33 C9 89 0A 85 C0 79 03 83 ..@.Q..3.....y..
00402260 C0 03 C1 F8 02 3D 00 04 00 00 7F 19 8B 0D 24 B6 .....=........$.
00402270 42 00 8B 4C 81 F4 89 0A 83 3A 00 75 08 40 3D 01 B..L.....:.u.@=.
00402280 04 00 00 75 E7 8B 02 5A C3 8D 40 00 53 56 57 55 ...u...Z..@.SVWU
00402290 83 C4 F4 8B D8 8D 74 24 08 BF 18 B6 42 00 BD 1C ......t$....B...
004022A0 B6 42 00 A1 10 B6 42 00 89 06 8B 06 3B 58 08 0F .B....B.....;X..
004022B0 8E AB 00 00 00 8B 07 89 06 8B 06 8B 40 08 3B D8 ............@.;.
004022C0 0F 8E 9A 00 00 00 8B 16 89 5A 08 8B 16 8B 52 04 .........Z....R.
004022D0 89 16 8B 16 3B 5A 08 7F F2 8B 17 89 42 08 8B 06 ....;Z......B...
004022E0 3B 07 74 06 8B 06 89 07 EB 76 81 FB 00 10 00 00 ;.t......v......
004022F0 7F 0E 8B C3 E8 5B FF FF FF 89 06 83 3E 00 75 60 .....[......>.u`
00402300 8B C3 E8 ED FE FF FF 84 C0 75 0A 33 C0 89 04 24 .........u.3...$
00402310 E9 B4 00 00 00 3B 5D 00 7F 89 29 5D 00 83 7D 00 .....;]...)]..}.
00402320 0C 7D 08 03 5D 00 33 C0 89 45 00 A1 20 B6 42 00 .}..].3..E.. .B.
00402330 89 44 24 04 01 1D 20 B6 42 00 8B C3 83 C8 02 8B .D$... .B.......
00402340 54 24 04 89 02 8B 44 24 04 83 C0 04 89 04 24 FF T$....D$......$.
00402350 05 B4 B5 42 00 83 EB 04 01 1D B8 B5 42 00 EB 69 ...B........B..i
00402360 8B 06 E8 E9 F9 FF FF 8B 06 8B 50 08 8B C2 2B C3 ..........P...+.
00402370 83 F8 0C 7C 0C 8B 16 03 D3 92 E8 A5 FC FF FF EB ...|............
00402380 1E 8B DA 8B 06 3B 07 75 07 8B 06 8B 40 04 89 07 .....;.u....@...
00402390 8B 06 03 C3 89 44 24 04 8B 44 24 04 83 20 FE 8B .....D$..D$.. ..
004023A0 06 89 44 24 04 8B C3 83 C8 02 8B 54 24 04 89 02 ..D$.......T$...
004023B0 8B 44 24 04 83 C0 04 89 04 24 FF 05 B4 B5 42 00 .D$......$....B.
004023C0 83 EB 04 01 1D B8 B5 42 00 8B 04 24 83 C4 0C 5D .......B...$...]
004023D0 5F 5E 5B C3 55 8B EC 83 C4 EC 53 8B D8 80 3D C4 _^[.U.....S...=.
004023E0 B5 42 00 00 75 09 E8 8D F7 FF FF 84 C0 74 08 81 .B..u........t..
004023F0 FB F8 FF FF 7F 7E 0A 33 C0 89 45 FC E9 76 01 00 .....~.3..E..v..
00402400 00 33 D2 55 68 70 25 40 00 64 FF 32 64 89 22 80 .3.Uhp%@.d.2d.".
00402410 3D 4D B0 42 00 00 74 0A 68 CC B5 42 00 E8 36 EF =M.B..t.h..B..6.
00402420 FF FF 83 C3 07 83 E3 FC 83 FB 0C 7D 05 BB 0C 00 ...........}....
00402430 00 00 81 FB 00 10 00 00 0F 8F AC 00 00 00 8B C3 ................
00402440 85 C0 79 03 83 C0 03 C1 F8 02 8B 15 24 B6 42 00 ..y.........$.B.
00402450 8B 54 82 F4 89 55 F8 83 7D F8 00 0F 84 89 00 00 .T...U..}.......
00402460 00 8B 55 F8 03 D3 89 55 EC 8B 55 EC 83 22 FE 8B ..U....U..U.."..
00402470 55 F8 8B 52 04 89 55 F0 8B 55 F0 3B 55 F8 75 0E U..R..U..U.;U.u.
00402480 8B 15 24 B6 42 00 33 C9 89 4C 82 F4 EB 26 8B 15 ..$.B.3..L...&..
00402490 24 B6 42 00 8B 4D F0 89 4C 82 F4 8B 45 F8 8B 00 $.B..M..L...E...
004024A0 89 45 F4 8B 45 F4 8B 55 F0 89 50 04 8B 45 F0 8B .E..E..U..P..E..
004024B0 55 F4 89 10 8B 45 F8 89 45 EC 8B 45 F8 8B 40 08 U....E..E..E..@.
004024C0 83 C8 02 8B 55 EC 89 02 8B 45 EC 83 C0 04 89 45 ....U....E.....E
004024D0 FC FF 05 B4 B5 42 00 83 EB 04 01 1D B8 B5 42 00 .....B........B.
004024E0 E8 23 18 00 00 E9 8D 00 00 00 3B 1D 1C B6 42 00 .#........;...B.
004024F0 7F 53 29 1D 1C B6 42 00 83 3D 1C B6 42 00 0C 7D .S)...B..=..B..}
00402500 0D 03 1D 1C B6 42 00 33 C0 A3 1C B6 42 00 A1 20 .....B.3....B.. 
00402510 B6 42 00 89 45 EC 01 1D 20 B6 42 00 8B C3 83 C8 .B..E... .B.....
00402520 02 8B 55 EC 89 02 8B 45 EC 83 C0 04 89 45 FC FF ..U....E.....E..
00402530 05 B4 B5 42 00 83 EB 04 01 1D B8 B5 42 00 E8 C5 ...B........B...
00402540 17 00 00 EB 32 8B C3 E8 40 FD FF FF 89 45 FC 33 ....2...@....E.3
00402550 C0 5A 59 59 64 89 10 68 77 25 40 00 80 3D 4D B0 .ZYYd..hw%@..=M.
00402560 42 00 00 74 0A 68 CC B5 42 00 E8 F1 ED FF FF C3 B..t.h..B.......
00402570 E9 AF 16 00 00 EB E5 8B 45 FC 5B 8B E5 5D C3 90 ........E.[..]..
00402580 55 8B EC 83 C4 F0 53 8B D8 33 C0 A3 C8 B5 42 00 U.....S..3....B.
00402590 80 3D C4 B5 42 00 00 75 1F E8 DA F5 FF FF 84 C0 .=..B..u........
004025A0 75 16 C7 05 C8 B5 42 00 08 00 00 00 C7 45 FC 08 u.....B......E..
004025B0 00 00 00 E9 96 01 00 00 33 D2 55 68 47 27 40 00 ........3.UhG'@.
004025C0 64 FF 32 64 89 22 80 3D 4D B0 42 00 00 74 0A 68 d.2d.".=M.B..t.h
004025D0 CC B5 42 00 E8 7F ED FF FF 89 5D F8 8B 45 F8 83 ..B.......]..E..
004025E0 E8 04 89 45 F8 8B 45 F8 8B 18 F6 C3 02 75 0F C7 ...E..E......u..
004025F0 05 C8 B5 42 00 09 00 00 00 E9 20 01 00 00 FF 0D ...B...... .....
00402600 B4 B5 42 00 8B C3 25 FC FF FF 7F 83 E8 04 29 05 ..B...%.......).
00402610 B8 B5 42 00 F6 C3 01 74 53 8B 45 F8 83 E8 0C 8B ..B....tS.E.....
00402620 40 08 83 F8 0C 7C 07 A9 03 00 00 80 74 0F C7 05 @....|......t...
00402630 C8 B5 42 00 0A 00 00 00 E9 E1 00 00 00 8B 55 F8 ..B...........U.
00402640 2B D0 89 55 F0 8B 55 F0 3B 42 08 74 0F C7 05 C8 +..U..U.;B.t....
00402650 B5 42 00 0A 00 00 00 E9 C2 00 00 00 03 D8 8B 45 .B.............E
00402660 F0 89 45 F8 8B 45 F0 E8 E4 F6 FF FF 81 E3 FC FF ..E..E..........
00402670 FF 7F 8B 45 F8 03 C3 89 45 F4 8B 45 F4 3B 05 20 ...E....E..E.;. 
00402680 B6 42 00 75 2C 29 1D 20 B6 42 00 01 1D 1C B6 42 .B.u,). .B.....B
00402690 00 81 3D 1C B6 42 00 00 3C 00 00 7E 05 E8 7A FA ..=..B..<..~..z.
004026A0 FF FF 33 C0 89 45 FC E8 5C 16 00 00 E9 9D 00 00 ..3..E..\.......
004026B0 00 8B 45 F4 8B 00 A8 02 74 1E 25 FC FF FF 7F 83 ..E.....t.%.....
004026C0 F8 04 7D 0C C7 05 C8 B5 42 00 0B 00 00 00 EB 4E ..}.....B......N
004026D0 8B 45 F4 83 08 01 EB 3C 8B 45 F4 89 45 F0 8B 45 .E.....<.E..E..E
004026E0 F0 83 78 04 00 74 11 8B 45 F0 83 38 00 74 09 8B ..x..t..E..8.t..
004026F0 45 F0 83 78 08 0C 7D 0C C7 05 C8 B5 42 00 0B 00 E..x..}.....B...
00402700 00 00 EB 1A 8B 45 F0 8B 40 08 03 D8 8B 45 F0 E8 .....E..@....E..
00402710 3C F6 FF FF 8B D3 8B 45 F8 E8 06 F9 FF FF A1 C8 <......E........
00402720 B5 42 00 89 45 FC 33 C0 5A 59 59 64 89 10 68 4E .B..E.3.ZYYd..hN
00402730 27 40 00 80 3D 4D B0 42 00 00 74 0A 68 CC B5 42 '@..=M.B..t.h..B
00402740 00 E8 1A EC FF FF C3 E9 D8 14 00 00 EB E5 8B 45 ...............E
00402750 FC 5B 8B E5 5D C3 8B C0 53 56 57 55 83 C4 F4 8B .[..]...SVWU....
00402760 DA 83 C3 07 83 E3 FC 83 FB 0C 7D 05 BB 0C 00 00 ..........}.....
00402770 00 83 E8 04 89 04 24 8B 04 24 8B 30 81 E6 FC FF ......$..$.0....
00402780 FF 7F 8B 04 24 03 C6 89 44 24 04 3B F3 75 07 B0 ....$...D$.;.u..
00402790 01 E9 BD 01 00 00 3B F3 0F 8E 90 00 00 00 8B EE ......;.........
004027A0 2B EB 8B 54 24 04 3B 15 20 B6 42 00 75 2C 29 2D +..T$.;. .B.u,)-
004027B0 20 B6 42 00 01 2D 1C B6 42 00 83 3D 1C B6 42 00  .B..-..B..=..B.
004027C0 0C 0F 8D 6F 01 00 00 01 2D 20 B6 42 00 29 2D 1C ...o....- .B.)-.
004027D0 B6 42 00 8B DE E9 5C 01 00 00 89 44 24 04 8B 44 .B....\....D$..D
004027E0 24 04 F6 00 02 75 18 8B 44 24 04 89 44 24 08 8B $....u..D$..D$..
004027F0 44 24 08 03 68 08 8B 44 24 08 E8 51 F5 FF FF 83 D$..h..D$..Q....
00402800 FD 0C 7C 23 8B 04 24 03 C3 89 44 24 04 83 CD 02 ..|#..$...D$....
00402810 8B 44 24 04 89 28 8B 44 24 04 83 C0 04 E8 42 F6 .D$..(.D$.....B.
00402820 FF FF E9 0F 01 00 00 8B DE E9 08 01 00 00 8B FB ................
00402830 2B FE 8B 44 24 04 3B 05 20 B6 42 00 75 65 3B 3D +..D$.;. .B.ue;=
00402840 1C B6 42 00 7F 4F 29 3D 1C B6 42 00 01 3D 20 B6 ..B..O)=..B..= .
00402850 42 00 83 3D 1C B6 42 00 0C 7D 18 A1 1C B6 42 00 B..=..B..}....B.
00402860 01 05 20 B6 42 00 03 1D 1C B6 42 00 33 C0 A3 1C .. .B.....B.3...
00402870 B6 42 00 8B C3 2B C6 01 05 B8 B5 42 00 8B 04 24 .B...+.....B...$
00402880 8B 00 25 03 00 00 80 0B D8 8B 04 24 89 18 B0 01 ..%........$....
00402890 E9 BE 00 00 00 E8 82 F8 FF FF 8B 04 24 03 C6 89 ............$...
004028A0 44 24 04 8B 44 24 04 F6 00 02 75 4F 8B 44 24 04 D$..D$....uO.D$.
004028B0 89 44 24 08 8B 54 24 08 8B 6A 08 3B FD 7E 0A 03 .D$..T$..j.;.~..
004028C0 C5 89 44 24 04 2B FD EB 32 8B 44 24 08 E8 7E F4 ..D$.+..2.D$..~.
004028D0 FF FF 2B EF 83 FD 0C 7C 0E 8B 04 24 03 C3 8B D5 ..+....|...$....
004028E0 E8 3F F7 FF FF EB 4F 03 DD 8B 04 24 03 C3 89 44 .?....O....$...D
004028F0 24 04 8B 44 24 04 83 20 FE EB 3B 8B 44 24 04 8B $..D$.. ..;.D$..
00402900 00 A9 00 00 00 80 74 2A 25 FC FF FF 7F 03 44 24 ......t*%.....D$
00402910 04 89 44 24 04 8B D7 8B 44 24 04 E8 00 F9 FF FF ..D$....D$......
00402920 84 C0 74 0E 8B 04 24 03 C6 89 44 24 04 E9 FC FE ..t...$...D$....
00402930 FF FF 33 C0 EB 1D 8B C3 2B C6 01 05 B8 B5 42 00 ..3.....+.....B.
00402940 8B 04 24 8B 00 25 03 00 00 80 0B D8 8B 04 24 89 ..$..%........$.
00402950 18 B0 01 83 C4 0C 5D 5F 5E 5B C3 90 55 8B EC 83 ......]_^[..U...
00402960 C4 F8 53 56 8B F2 8B D8 80 3D C4 B5 42 00 00 75 ..SV.....=..B..u
00402970 13 E8 02 F2 FF FF 84 C0 75 0A 33 C0 89 45 FC E9 ........u.3..E..
00402980 98 00 00 00 33 D2 55 68 15 2A 40 00 64 FF 32 64 ....3.Uh.*@.d.2d
00402990 89 22 80 3D 4D B0 42 00 00 74 0A 68 CC B5 42 00 .".=M.B..t.h..B.
004029A0 E8 B3 E9 FF FF 8B D6 8B C3 E8 AA FD FF FF 84 C0 ................
004029B0 74 05 89 5D FC EB 3D 8B C6 E8 16 FA FF FF 89 45 t..]..=........E
004029C0 F8 8B C3 83 E8 04 8B 00 25 FC FF FF 7F 83 E8 04 ........%.......
004029D0 3B F0 7D 02 8B C6 83 7D F8 00 74 12 8B 55 F8 8B ;.}....}..t..U..
004029E0 CB 91 E8 35 02 00 00 8B C3 E8 92 FB FF FF 8B 45 ...5...........E
004029F0 F8 89 45 FC 33 C0 5A 59 59 64 89 10 68 1C 2A 40 ..E.3.ZYYd..h.*@
00402A00 00 80 3D 4D B0 42 00 00 74 0A 68 CC B5 42 00 E8 ..=M.B..t.h..B..
00402A10 4C E9 FF FF C3 E9 0A 12 00 00 EB E5 8B 45 FC 5E L............E.^
00402A20 5B 59 59 5D C3 8D 40 00                         [YY]..@.       

;; fn00402A28: 00402A28
;;   Called from:
;;     004036C2 (in fn004036B8)
;;     00404310 (in fn00404304)
;;     004053A8 (in fn004052C4)
;;     00417C85 (in fn00417C08)
;;     0041A871 (in fn0041A748)
fn00402A28 proc
	push	ebx
	push	ecx
	mov	ebx,eax
	test	ebx,ebx
	jle	00402A4A

l00402A30:
	mov	eax,ebx
	call	dword ptr [00428040]
	mov	[esp],eax
	cmp	dword ptr [esp],00
	jnz	00402A4F

l00402A41:
	mov	al,01
	call	00402B7C
	jmp	00402A4F

l00402A4A:
	xor	eax,eax
	mov	[esp],eax

l00402A4F:
	mov	eax,[esp]
	pop	edx
	pop	ebx
	ret
00402A55                8D 40 00                              .@.       

;; fn00402A58: 00402A58
;;   Called from:
;;     0040425C (in fn00404240)
;;     00404285 (in fn00404264)
;;     004042D1 (in fn00404294)
;;     004042FB (in fn004042D8)
;;     00404742 (in fn00404750)
;;     004054AF (in fn0040547C)
;;     0041AA9A (in fn0041A748)
fn00402A58 proc
	push	ebx
	test	eax,eax
	jz	00402A72

l00402A5D:
	call	dword ptr [00428044]
	mov	ebx,eax
	test	ebx,ebx
	jz	00402A74

l00402A69:
	mov	al,02
	call	00402B7C
	jmp	00402A74

l00402A72:
	xor	ebx,ebx

l00402A74:
	mov	eax,ebx
	pop	ebx
	ret

;; fn00402A78: 00402A78
;;   Called from:
;;     00404852 (in fn00404830)
;;     00405393 (in fn004052C4)
fn00402A78 proc
	mov	ecx,[eax]
	test	ecx,ecx
	jz	00402AB0

l00402A7E:
	test	edx,edx
	jz	00402A9A

l00402A82:
	push	eax
	mov	eax,ecx
	call	dword ptr [00428048]
	pop	ecx
	or	eax,eax
	jz	00402AA9

l00402A90:
	mov	[ecx],eax
	ret

l00402A93:
	mov	al,02
	jmp	00402B7C

l00402A9A:
	mov	[eax],edx
	mov	eax,ecx
	call	dword ptr [00428044]
	or	eax,eax
	jnz	00402A93

l00402AA8:
	ret

l00402AA9:
	mov	al,01
	jmp	00402B7C

l00402AB0:
	test	edx,edx
	jz	00402AC4

l00402AB4:
	push	eax
	mov	eax,edx
	call	dword ptr [00428040]
	pop	ecx
	or	eax,eax
	jz	00402AA9

l00402AC2:
	mov	[ecx],eax

l00402AC4:
	ret
00402AC5                8D 40 00 E8 EF 37 00 00 83 B8 00      .@...7.....
00402AD0 00 00 00 00 74 0F E8 E1 37 00 00 8B 80 00 00 00 ....t...7.......
00402AE0 00 8B 40 08 C3 33 C0 C3 51 E8 CE 37 00 00 83 B8 ..@..3..Q..7....
00402AF0 00 00 00 00 00 74 23 E8 C0 37 00 00 8B 80 00 00 .....t#..7......
00402B00 00 00 8B 40 08 89 04 24 E8 AF 37 00 00 8B 80 00 ...@...$..7.....
00402B10 00 00 00 33 D2 89 50 08 EB 05 33 C0 89 04 24 8B ...3..P...3...$.
00402B20 04 24 5A C3                                     .$Z.           

;; fn00402B24: 00402B24
;;   Called from:
;;     00402B72 (in fn00402B30)
fn00402B24 proc
	mov	[00428004],edx
	call	00404228
	ret

;; fn00402B30: 00402B30
;;   Called from:
;;     00402B82 (in fn00402B7C)
fn00402B30 proc
	push	ebx
	push	esi
	mov	esi,edx
	mov	ebx,eax
	and	bl,7F
	cmp	dword ptr [0042B008],00
	jz	00402B4C

l00402B42:
	mov	edx,esi
	mov	eax,ebx
	call	dword ptr [0042B008]

l00402B4C:
	test	bl,bl
	jnz	00402B5D

l00402B50:
	call	004062BC
	mov	ebx,[eax+00000004]
	jmp	00402B6C

l00402B5D:
	cmp	bl,18
	ja	00402B6C

l00402B62:
	xor	eax,eax
	mov	al,bl
	mov	bl,[eax+0042804C]

l00402B6C:
	xor	eax,eax
	mov	al,bl
	mov	edx,esi
	call	00402B24
	pop	esi
	pop	ebx
	ret
00402B7A                               8B C0                       ..   

;; fn00402B7C: 00402B7C
;;   Called from:
;;     00402A43 (in fn00402A28)
;;     00402A6B (in fn00402A58)
;;     00402A95 (in fn00402A78)
;;     00402AAB (in fn00402A78)
;;     00402B9F (in fn00402B88)
;;     004038F1 (in fn004038DC)
;;     004048D2 (in fn0040493C)
;;     00404BFB (in fn00404BC0)
;;     00404CA6 (in fn00404C94)
;;     00404D8C (in fn00404CAC)
;;     00404DB6 (in fn00404DA4)
;;     00404E22 (in fn00404DBC)
;;     00404F19 (in fn00404ED8)
;;     004052ED (in fn004052C4)
;;     0040534D (in fn004052C4)
fn00402B7C proc
	and	eax,7F
	mov	edx,[esp]
	jmp	00402B30
00402B87                      C3                                .       

;; fn00402B88: 00402B88
;;   Called from:
;;     00427ABA (in Win32CrtStartup)
;;     00427AD3 (in Win32CrtStartup)
;;     00427B7F (in Win32CrtStartup)
fn00402B88 proc
	push	eax
	push	edx
	push	ecx
	call	004062BC
	cmp	dword ptr [eax+00000004],00
	pop	ecx
	pop	edx
	pop	eax
	jnz	00402B9D

l00402B9C:
	ret

l00402B9D:
	xor	eax,eax
	jmp	00402B7C
00402BA4             C3 8D 40 00                             ..@.       

;; fn00402BA8: 00402BA8
;;   Called from:
;;     00402CDE (in fn00402C90)
;;     00402F88 (in fn00402F4C)
;;     00402FE4 (in fn00402FAC)
;;     00402FF8 (in fn00402FAC)
;;     0040314D (in fn00403114)
;;     00403199 (in fn00403158)
fn00402BA8 proc
	push	ebx
	mov	ebx,eax
	call	004062BC
	mov	[eax+00000004],ebx
	pop	ebx
	ret
00402BB8                         56 57 89 C6 8B 7C 24 0C         VW...|$.
00402BC0 31 C0 0A 06 74 2B 85 D2 7E 18 39 C2 7F 1B 29 D0 1...t+..~.9...).
00402BD0 40 85 C9 7C 14 39 C1 7F 14 01 D6 88 0F 47 F3 A4 @..|.9.......G..
00402BE0 EB 11 BA 01 00 00 00 EB E5 31 C9 EB EC 89 C1 EB .........1......
00402BF0 E8 88 07 5F 5E C2 04 00 C3 8D 40 00 53 E8 BA 36 ..._^.....@.S..6
00402C00 00 00 8B 98 04 00 00 00 E8 AF 36 00 00 33 D2 89 ..........6..3..
00402C10 90 04 00 00 00 8B C3 5B C3 8D 40 00             .......[..@.   

;; fn00402C1C: 00402C1C
;;   Called from:
;;     004042AF (in fn00404294)
;;     0040434C (in fn00404330)
;;     00404537 (in fn00404508)
;;     0040458A (in fn0040454C)
;;     00404599 (in fn0040454C)
;;     0040472D (in fn00404750)
;;     004047D1 (in fn004047A0)
;;     00404880 (in fn00404830)
;;     00404DE3 (in fn00404DBC)
;;     00404ECC (in fn00404DBC)
;;     004053FE (in fn004052C4)
;;     0040814D (in fn00408148)
;;     004142A0 (in fn00414258)
;;     00417CB2 (in fn00417C08)
;;     00419C95 (in fn00419C38)
;;     0041A9FE (in fn0041A748)
fn00402C1C proc
	push	esi
	push	edi
	mov	esi,eax
	mov	edi,edx
	mov	eax,ecx
	cmp	edi,esi
	ja	00402C3B

l00402C28:
	jz	00402C59

l00402C2A:
	sar	ecx,02
	js	00402C59

l00402C2F:
	rep movsd

l00402C31:
	mov	ecx,eax
	and	ecx,03

l00402C36:
	rep movsb

l00402C38:
	pop	edi
	pop	esi
	ret

l00402C3B:
	lea	esi,[ecx+esi-04]
	lea	edi,[ecx+edi-04]
	sar	ecx,02
	js	00402C59

l00402C48:
	std

l00402C49:
	rep movsd

l00402C4B:
	mov	ecx,eax
	and	ecx,03
	add	esi,03
	add	edi,03

l00402C56:
	rep movsb

l00402C58:
	cld

l00402C59:
	pop	edi
	pop	esi
	ret
00402C5C                                     3C 61 72 06             <ar.
00402C60 3C 7A 77 02 2C 20 C3 90 83 EC 08 DF 3C 24 9B 58 <zw., ......<$.X
00402C70 5A C3 8B C0                                     Z...           

l00402C74:
	cmp	dword ptr [0042B02C],00
	jz	00402C83

l00402C7D:
	call	dword ptr [0042B02C]

l00402C83:
	mov	eax,000000D2
	jmp	00404234
00402C8D                                        C3 8B C0              ...

;; fn00402C90: 00402C90
;;   Called from:
;;     00402CEC (in fn00402CE8)
fn00402C90 proc
	push	ebx
	push	esi
	mov	esi,edx
	mov	ebx,eax
	mov	ax,[ebx+04]
	cmp	ax,D7B0
	jc	00402CA6

l00402CA0:
	cmp	ax,D7B3
	jbe	00402CAD

l00402CA6:
	mov	ebx,00000066
	jmp	00402CD8

l00402CAD:
	cmp	ax,D7B0
	jz	00402CBA

l00402CB3:
	mov	eax,ebx
	call	00402FAC

l00402CBA:
	mov	[ebx+04],si
	cmp	byte ptr [ebx+48],00
	jnz	00402CD1

l00402CC4:
	cmp	dword ptr [ebx+18],00
	jnz	00402CD1

l00402CCA:
	mov	dword ptr [ebx+18],00402DA0

l00402CD1:
	mov	eax,ebx
	call	dword ptr [ebx+18]
	mov	ebx,eax

l00402CD8:
	test	ebx,ebx
	jz	00402CE3

l00402CDC:
	mov	eax,ebx
	call	00402BA8

l00402CE3:
	mov	eax,ebx
	pop	esi
	pop	ebx
	ret

;; fn00402CE8: 00402CE8
;;   Called from:
;;     00403134 (in fn00403114)
fn00402CE8 proc
	mov	dx,D7B2
	call	00402C90
	ret
00402CF2       8B C0 53 8B D8 33 C0 89 43 10 33 C0 89 43   ..S..3..C.3..C
00402D00 0C 6A 00 8D 43 10 50 8B 43 08 50 8B 43 14 50 8B .j..C.P.C.P.C.P.
00402D10 03 50 E8 CD E4 FF FF 85 C0 75 0E E8 2C E5 FF FF .P.......u..,...
00402D20 83 F8 6D 75 06 33 C0 5B C3 33 C0 5B C3 8D 40 00 ..mu.3.[.3.[..@.
00402D30 33 C0 C3 90 53 56 51 8B D8 8B 73 0C 85 F6 75 04 3...SVQ...s...u.
00402D40 33 C0 EB 26 6A 00 8D 44 24 04 50 56 8B 43 14 50 3..&j..D$.PV.C.P
00402D50 8B 03 50 E8 B4 E4 FF FF 85 C0 75 07 E8 EB E4 FF ..P.......u.....
00402D60 FF EB 02 33 C0 33 D2 89 53 0C 5A 5E 5B C3 8B C0 ...3.3..S.Z^[...
00402D70 53 8B D8 53 E8 3B E4 FF FF 48 0F 94 C0 5B C3 90 S..S.;...H...[..
00402D80 53 8B D8 66 C7 43 04 B0 D7 8B 03 E8 E0 FF FF FF S..f.C..........
00402D90 84 C0 75 07 E8 B3 E4 FF FF 5B C3 33 C0 5B C3 90 ..u......[.3.[..
00402DA0 56 89 C6 31 C0 89 46 0C 89 46 10 66 8B 46 04 2D V..1..F..F.f.F.-
00402DB0 B1 D7 00 00 74 0B 48 74 20 48 74 2E E9 67 01 00 ....t.Ht Ht..g..
00402DC0 00 B8 00 00 00 80 BA 01 00 00 00 B9 03 00 00 00 ................
00402DD0 C7 46 1C F4 2C 40 00 EB 27 B8 00 00 00 40 BA 01 .F..,@..'....@..
00402DE0 00 00 00 B9 02 00 00 00 EB 0F B8 00 00 00 C0 BA ................
00402DF0 01 00 00 00 B9 03 00 00 00 C7 46 1C 34 2D 40 00 ..........F.4-@.
00402E00 C7 46 24 80 2D 40 00 C7 46 20 30 2D 40 00 80 7E .F$.-@..F 0-@..~
00402E10 48 00 0F 84 B2 00 00 00 6A 00 68 80 00 00 00 51 H.......j.h....Q
00402E20 6A 00 52 50 8D 46 48 50 E8 8F E3 FF FF 83 F8 FF j.RP.FHP........
00402E30 0F 84 08 01 00 00 89 06 66 81 7E 04 B3 D7 0F 85 ........f.~.....
00402E40 C3 00 00 00 66 FF 4E 04 6A 00 FF 36 E8 7B E3 FF ....f.N.j..6.{..
00402E50 FF 40 0F 84 E6 00 00 00 2D 81 00 00 00 73 02 31 .@......-....s.1
00402E60 C0 6A 00 6A 00 50 FF 36 E8 8F E3 FF FF 40 0F 84 .j.j.P.6.....@..
00402E70 CA 00 00 00 6A 00 89 E2 6A 00 52 68 80 00 00 00 ....j...j.Rh....
00402E80 8D 96 4C 01 00 00 52 FF 36 E8 56 E3 FF FF 5A 48 ..L...R.6.V...ZH
00402E90 0F 85 A8 00 00 00 31 C0 39 D0 73 6B 80 BC 06 4C ......1.9.sk...L
00402EA0 01 00 00 0E 74 03 40 EB EF 6A 02 6A 00 29 D0 50 ....t.@..j.j.).P
00402EB0 FF 36 E8 45 E3 FF FF 40 0F 84 80 00 00 00 FF 36 .6.E...@.......6
00402EC0 E8 2F E3 FF FF 48 75 76 EB 3D 8D 86 4C 01 00 00 ./...Huv.=..L...
00402ED0 C7 46 08 80 00 00 00 C7 46 24 30 2D 40 00 89 46 .F......F$0-@..F
00402EE0 14 66 81 7E 04 B2 D7 74 04 6A F6 EB 0E 81 FE E8 .f.~...t.j......
00402EF0 B3 42 00 75 04 6A F4 EB 02 6A F5 E8 D4 E2 FF FF .B.u.j...j......
00402F00 83 F8 FF 74 39 89 06 66 81 7E 04 B1 D7 74 17 FF ...t9..f.~...t..
00402F10 36 E8 AE E2 FF FF 85 C0 74 10 83 F8 02 75 07 C7 6.......t....u..
00402F20 46 20 34 2D 40 00 31 C0 5E C3 FF 36 E8 83 E2 FF F 4-@.1.^..6....
00402F30 FF 66 C7 46 04 B0 D7 B8 69 00 00 00 EB EA 66 C7 .f.F....i.....f.
00402F40 46 04 B0 D7 E8 03 E3 FF FF EB DD C3             F...........   

;; fn00402F4C: 00402F4C
;;   Called from:
;;     00402FA3 (in fn00402FA0)
fn00402F4C proc
	push	ebx
	mov	cx,[eax+04]
	sub	cx,D7B1
	jz	00402F67

l00402F58:
	dec	ecx
	sub	cx,02
	jnc	00402F6B

l00402F5F:
	mov	ebx,edx
	call	ebx
	mov	ebx,eax
	jmp	00402F82

l00402F67:
	xor	ebx,ebx
	jmp	00402F82

l00402F6B:
	cmp	eax,0042B21C
	jz	00402F79

l00402F72:
	cmp	eax,0042B3E8
	jnz	00402F7D

l00402F79:
	xor	ebx,ebx
	jmp	00402F82

l00402F7D:
	mov	ebx,00000067

l00402F82:
	test	ebx,ebx
	jz	00402F8D

l00402F86:
	mov	eax,ebx
	call	00402BA8

l00402F8D:
	mov	eax,ebx
	pop	ebx
	ret
00402F91    8D 40 00 8B 50 1C E8 B0 FF FF FF C3 8D 40 00  .@..P........@.

;; fn00402FA0: 00402FA0
;;   Called from:
;;     0040326D (in fn00403228)
fn00402FA0 proc
	mov	edx,[eax+20]
	call	00402F4C
	ret
00402FA9                            8D 40 00                      .@.   

;; fn00402FAC: 00402FAC
;;   Called from:
;;     00402CB5 (in fn00402C90)
fn00402FAC proc
	push	ebx
	push	esi
	mov	ebx,eax
	xor	esi,esi
	mov	ax,[ebx+04]
	cmp	ax,D7B1
	jc	00402FEB

l00402FBC:
	cmp	ax,D7B3
	ja	00402FEB

l00402FC2:
	and	ax,D7B2
	cmp	ax,D7B2
	jnz	00402FD3

l00402FCC:
	mov	eax,ebx
	call	dword ptr [ebx+1C]
	mov	esi,eax

l00402FD3:
	test	esi,esi
	jnz	00402FDE

l00402FD7:
	mov	eax,ebx
	call	dword ptr [ebx+24]
	mov	esi,eax

l00402FDE:
	test	esi,esi
	jz	00402FFD

l00402FE2:
	mov	eax,esi
	call	00402BA8
	jmp	00402FFD

l00402FEB:
	cmp	ebx,0042B050
	jz	00402FFD

l00402FF3:
	mov	eax,00000067
	call	00402BA8

l00402FFD:
	mov	eax,esi
	pop	esi
	pop	ebx
	ret
00403002       8B C0 53 8A 1A 3A CB 76 02 8B CB 88 08 42   ..S..:.v.....B
00403010 40 81 E1 FF 00 00 00 92 E8 FF FB FF FF 5B C3 90 @............[..

;; fn00403020: 00403020
;;   Called from:
;;     004053CF (in fn004052C4)
;;     0040542A (in fn004052C4)
;;     0041C436 (in fn0041C3E4)
fn00403020 proc
	push	edi
	mov	edi,eax
	mov	ch,cl
	mov	eax,ecx
	shl	eax,10
	mov	ax,cx
	mov	ecx,edx
	sar	ecx,02
	js	0040303D

l00403034:
	rep stosd

l00403036:
	mov	ecx,edx
	and	ecx,03

l0040303B:
	rep stosb

l0040303D:
	pop	edi
	ret
0040303F                                              90                .
00403040 53 56 57 89 C6 50 85 C0 74 6C 31 C0 31 DB BF CC SVW..P..tl1.1...
00403050 CC CC 0C 8A 1E 46 80 FB 20 74 F8 B5 00 80 FB 2D .....F.. t.....-
00403060 74 62 80 FB 2B 74 5F 80 FB 24 74 5F 80 FB 78 74 tb..+t_..$t_..xt
00403070 5A 80 FB 58 74 55 80 FB 30 75 13 8A 1E 46 80 FB Z..XtU..0u...F..
00403080 78 74 48 80 FB 58 74 43 84 DB 74 20 EB 04 84 DB xtH..XtC..t ....
00403090 74 2D 80 EB 30 80 FB 09 77 25 39 F8 77 21 8D 04 t-..0...w%9.w!..
004030A0 80 01 C0 01 D8 8A 1E 46 84 DB 75 E6 FE CD 74 09 .......F..u...t.
004030B0 85 C0 7D 54 EB 09 46 EB 06 F7 D8 7E 4B 78 49 5B ..}T..F....~KxI[
004030C0 29 DE EB 47 FE C5 8A 1E 46 EB 9C BF FF FF FF 0F )..G....F.......
004030D0 8A 1E 46 84 DB 74 DF 80 FB 61 72 03 80 EB 20 80 ..F..t...ar... .
004030E0 EB 30 80 FB 09 76 0B 80 EB 11 80 FB 05 77 D0 80 .0...v.......w..
004030F0 C3 0A 39 F8 77 C9 C1 E0 04 01 D8 8A 1E 46 84 DB ..9.w........F..
00403100 75 D5 FE CD 75 02 F7 D8 59 31 F6 89 32 5F 5E 5B u...u...Y1..2_^[
00403110 C3 8D 40 00                                     ..@.           

;; fn00403114: 00403114
;;   Called from:
;;     00403167 (in fn00403158)
fn00403114 proc
	push	ebx
	mov	ebx,eax
	cmp	ebx,0042B21C
	jz	00403127

l0040311F:
	cmp	ebx,0042B3E8
	jnz	00403139

l00403127:
	xor	eax,eax
	mov	al,[00428034]
	mov	[ebx+06],ax
	mov	eax,ebx
	call	00402CE8

l00403139:
	cmp	word ptr [ebx+04],D7B2
	setz	al
	mov	ebx,eax
	test	bl,bl
	jnz	00403152

l00403148:
	mov	eax,00000069
	call	00402BA8

l00403152:
	mov	eax,ebx
	pop	ebx
	ret
00403156                   8B C0                               ..       

;; fn00403158: 00403158
;;   Called from:
;;     004031C2 (in fn004031AC)
;;     0040321E (in fn004031AC)
;;     00403249 (in fn00403228)
;;     00403263 (in fn00403228)
;;     004048CA (in fn004048B0)
fn00403158 proc
	push	esi
	push	edi
	mov	esi,edx
	cmp	word ptr [eax+04],D7B2
	jz	00403173

l00403164:
	push	eax
	push	edx
	push	ecx
	call	00403114
	test	al,al
	pop	ecx
	pop	edx
	pop	eax
	jz	004031A8

l00403173:
	mov	edi,[eax+14]
	add	edi,[eax+0C]
	mov	edx,[eax+08]
	sub	edx,[eax+0C]
	cmp	edx,ecx
	jg	004031A3

l00403183:
	add	[eax+0C],edx
	sub	ecx,edx
	push	eax
	push	ecx
	mov	ecx,edx

l0040318C:
	rep movsb

l0040318E:
	call	dword ptr [eax+1C]
	test	eax,eax
	jnz	00403199

l00403195:
	pop	ecx
	pop	eax
	jmp	00403173

l00403199:
	call	00402BA8
	pop	ecx
	pop	eax
	pop	edi
	pop	esi
	ret

l004031A3:
	add	[eax+0C],ecx

l004031A6:
	rep movsb

l004031A8:
	pop	edi
	pop	esi
	ret
004031AB                                  90                        .   

;; fn004031AC: 004031AC
;;   Called from:
;;     004048C1 (in fn004048B0)
fn004031AC proc
	mov	ecx,edx

l004031AE:
	mov	edx,004031DC
	cmp	ecx,40
	jle	0040321C

l004031B8:
	sub	ecx,40
	push	eax
	push	ecx
	mov	ecx,00000040
	call	00403158
	call	004062BC
	cmp	dword ptr [eax+00000004],00
	jnz	004031D9

l004031D5:
	pop	ecx
	pop	eax
	jmp	004031AE

l004031D9:
	pop	ecx
	pop	eax
	ret
004031DC                                     20 20 20 20                 
004031E0 20 20 20 20 20 20 20 20 20 20 20 20 20 20 20 20                 
004031F0 20 20 20 20 20 20 20 20 20 20 20 20 20 20 20 20                 
00403200 20 20 20 20 20 20 20 20 20 20 20 20 20 20 20 20                 
00403210 20 20 20 20 20 20 20 20 20 20 20 20                            

l0040321C:
	test	ecx,ecx
	jg	00403158

l00403224:
	ret
00403225                8D 40 00                              .@.       

;; fn00403228: 00403228
;;   Called from:
;;     00427AB5 (in Win32CrtStartup)
;;     00427ACE (in Win32CrtStartup)
;;     00427B7A (in Win32CrtStartup)
fn00403228 proc
	push	ebx
	add	esp,F8
	mov	ebx,eax
	test	byte ptr [ebx+06],01
	jz	00403253

l00403234:
	mov	byte ptr [esp+04],0D
	mov	byte ptr [esp+05],0A
	lea	edx,[esp+04]
	mov	eax,ebx
	mov	ecx,00000002
	call	00403158
	mov	[esp],eax
	jmp	0040326B

l00403253:
	mov	byte ptr [esp+04],0A
	lea	edx,[esp+04]
	mov	eax,ebx
	mov	ecx,00000001
	call	00403158
	mov	[esp],eax

l0040326B:
	mov	eax,ebx
	call	00402FA0
	mov	eax,[esp]
	pop	ecx
	pop	edx
	pop	ebx
	ret
00403279                            8D 40 00 56 57 89 C6          .@.VW..
00403280 89 D7 81 E1 FF 00 00 00 F3 A6 5F 5E C3 8D 40 00 .........._^..@.
00403290 E9 03 00 00 00 C3 8B C0 53 31 DB 85 C0 7C 4D 0F ........S1...|M.
004032A0 84 9A 00 00 00 3D 00 14 00 00 0F 8D 81 00 00 00 .....=..........
004032B0 89 C2 83 E2 1F 8D 14 92 DB AC 53 4B 33 40 00 DE ..........SK3@..
004032C0 C9 C1 E8 05 74 79 89 C2 83 E2 0F 74 0C 8D 14 92 ....ty.....t....
004032D0 DB AC 53 81 34 40 00 DE C9 C1 E8 04 74 61 8D 04 ..S.4@......ta..
004032E0 80 DB AC 43 17 35 40 00 DE C9 EB 53 F7 D8 3D 00 ...C.5@....S..=.
004032F0 14 00 00 7D 46 89 C2 83 E2 1F 8D 14 92 DB AC 53 ...}F..........S
00403300 4B 33 40 00 DE F9 C1 E8 05 74 34 89 C2 83 E2 0F K3@......t4.....
00403310 74 0C 8D 14 92 DB AC 53 81 34 40 00 DE F9 C1 E8 t......S.4@.....
00403320 04 74 1C 8D 04 80 DB AC 43 17 35 40 00 DE F9 EB .t......C.5@....
00403330 0E DD D8 DB AB 41 33 40 00 EB 04 DD D8 D9 EE 5B .....A3@.......[
00403340 C3 00 00 00 00 00 00 00 80 FF 7F 00 00 00 00 00 ................
00403350 00 00 80 FF 3F 00 00 00 00 00 00 00 A0 02 40 00 ....?.........@.
00403360 00 00 00 00 00 00 C8 05 40 00 00 00 00 00 00 00 ........@.......
00403370 FA 08 40 00 00 00 00 00 00 40 9C 0C 40 00 00 00 ..@......@..@...
00403380 00 00 00 50 C3 0F 40 00 00 00 00 00 00 24 F4 12 ...P..@......$..
00403390 40 00 00 00 00 00 80 96 98 16 40 00 00 00 00 00 @.........@.....
004033A0 20 BC BE 19 40 00 00 00 00 00 28 6B EE 1C 40 00  ...@.....(k..@.
004033B0 00 00 00 00 F9 02 95 20 40 00 00 00 00 40 B7 43 ....... @....@.C
004033C0 BA 23 40 00 00 00 00 10 A5 D4 E8 26 40 00 00 00 .#@........&@...
004033D0 00 2A E7 84 91 2A 40 00 00 00 80 F4 20 E6 B5 2D .*...*@..... ..-
004033E0 40 00 00 00 A0 31 A9 5F E3 30 40 00 00 00 04 BF @....1._.0@.....
004033F0 C9 1B 8E 34 40 00 00 00 C5 2E BC A2 B1 37 40 00 ...4@........7@.
00403400 00 40 76 3A 6B 0B DE 3A 40 00 00 E8 89 04 23 C7 .@v:k..:@.....#.
00403410 8A 3E 40 00 00 62 AC C5 EB 78 AD 41 40 00 80 7A .>@..b...x.A@..z
00403420 17 B7 26 D7 D8 44 40 00 90 AC 6E 32 78 86 87 48 ..&..D@...n2x..H
00403430 40 00 B4 57 0A 3F 16 68 A9 4B 40 00 A1 ED CC CE @..W.?.h.K@.....
00403440 1B C2 D3 4E 40 A0 84 14 40 61 51 59 84 52 40 C8 ...N@...@aQY.R@.
00403450 A5 19 90 B9 A5 6F A5 55 40 3A 0F 20 F4 27 8F CB .....o.U@:. .'..
00403460 CE 58 40 84 09 94 F8 78 39 3F 81 5C 40 E5 0B B9 .X@....x9?.\@...
00403470 36 D7 07 8F A1 5F 40 DF 4E 67 04 CD C9 F2 C9 62 6...._@.Ng.....b
00403480 40 96 22 81 45 40 7C 6F FC 65 40 9E B5 70 2B A8 @.".E@|o.e@..p+.
00403490 AD C5 9D 69 40 D5 A6 CF FF 49 1F 78 C2 D3 40 A3 ...i@....I.x..@.
004034A0 14 9B C5 16 AB B3 EF 3D 41 E0 8C E9 80 C9 47 BA .......=A.....G.
004034B0 93 A8 41 AA 17 E6 7F 2B A1 16 B6 12 42 6B 55 27 ..A....+....BkU'
004034C0 39 8D F7 70 E0 7C 42 30 C9 3C E3 FF 96 52 8A E7 9..p.|B0.<...R..
004034D0 42 8E DE F9 9D FB EB 7E AA 51 43 8C 2F 6A 5C 19 B......~.QC./j\.
004034E0 FC 26 D2 BB 43 76 E3 CC F2 29 2F 84 81 26 44 D2 .&..Cv...)/..&D.
004034F0 0A 90 DB 00 27 A4 9F 90 44 17 AA F8 AE 10 E3 C5 ....'...D.......
00403500 C4 FA 44 59 9C B0 E9 07 9C 8A F2 64 45 D4 F3 F7 ..DY.......dE...
00403510 EB E1 4A 7A 95 CF 45 62 A2 95 07 DC D8 3E B8 39 ..Jz..Eb.....>.9
00403520 46 C7 91 0E A6 AE A0 19 E3 A3 46 17 0C 75 81 86 F.........F..u..
00403530 75 76 C9 48 4D E4 A7 93 39 3B 35 B8 B2 ED 53 E5 uv.HM...9;5...S.
00403540 5D 3D C5 5D 3B 8B 9E 92 5A A6 F0 A1 20 C0 54 A5 ]=.];...Z... .T.
00403550 8C 37 61 8B 5A 8B D8 25 5D 89 F9 DB 67 F8 F3 27 .7a.Z..%]...g..'
00403560 BF A2 C8 5D DD 80 6E 9B 97 20 8A 02 52 60 C4 25 ...]..n.. ..R`.%
00403570 75 F0 59 D5 6E 62 11 35 AE CA 7B C3 FF 25 D8 E1 u.Y.nb.5..{..%..
00403580 42 00 8B C0 53 33 DB 6A 00 E8 EE FF FF FF 83 F8 B...S3.j........
00403590 07 75 1C 6A 01 E8 E2 FF FF FF 25 00 FF 00 00 3D .u.j......%....=
004035A0 00 0D 00 00 74 07 3D 00 04 00 00 75 02 B3 01 8B ....t.=....u....
004035B0 C3 5B C3 90 55 8B EC 83 C4 F4 0F B7 05 20 80 42 .[..U........ .B
004035C0 00 89 45 F8 8D 45 FC 50 6A 01 6A 00 68 4C 36 40 ..E..E.Pj.j.hL6@
004035D0 00 68 02 00 00 80 E8 D9 DC FF FF 85 C0 75 4D 33 .h...........uM3
004035E0 C0 55 68 25 36 40 00 64 FF 30 64 89 20 C7 45 F4 .Uh%6@.d.0d. .E.
004035F0 04 00 00 00 8D 45 F4 50 8D 45 F8 50 6A 00 6A 00 .....E.P.E.Pj.j.
00403600 68 68 36 40 00 8B 45 FC 50 E8 AE DC FF FF 33 C0 hh6@..E.P.....3.
00403610 5A 59 59 64 89 10 68 2C 36 40 00 8B 45 FC 50 E8 ZYYd..h,6@..E.P.
00403620 88 DC FF FF C3 E9 FA 05 00 00 EB EF 66 A1 20 80 ............f. .
00403630 42 00 66 25 C0 FF 66 8B 55 F8 66 83 E2 3F 66 0B B.f%..f.U.f..?f.
00403640 C2 66 A3 20 80 42 00 8B E5 5D C3 00 53 4F 46 54 .f. .B...]..SOFT
00403650 57 41 52 45 5C 42 6F 72 6C 61 6E 64 5C 44 65 6C WARE\Borland\Del
00403660 70 68 69 5C 52 54 4C 00 46 50 55 4D 61 73 6B 56 phi\RTL.FPUMaskV
00403670 61 6C 75 65 00 00 00 00 DB E3 9B D9 2D 20 80 42 alue........- .B
00403680 00 C3 8B C0 B0 04 E9 F1 F4 FF FF C3 51 8B 00 89 ............Q...
00403690 04 24 8B 04 24 5A C3 90 56 57 89 D7 8B 70 D4 31 .$..$Z..VW...p.1
004036A0 C9 8A 0E 41 F3 A4 5F 5E C3 8D 40 00 8B 40 DC 85 ...A.._^..@..@..
004036B0 C0 74 02 8B 00 C3 8B C0                         .t......       

;; fn004036B8: 004036B8
;;   Called from:
;;     00403997 (in fn00403990)
fn004036B8 proc
	push	ebx
	mov	ebx,eax
	mov	eax,ebx
	call	004036E8
	call	00402A28
	mov	edx,eax
	mov	eax,ebx
	call	0040372C
	pop	ebx
	ret
004036D2       8B C0 53 8B D8 8B C3 E8 A6 00 00 00 8B C3   ..S...........
004036E0 E8 73 F3 FF FF 5B C3 90                         .s...[..       

;; fn004036E8: 004036E8
;;   Called from:
;;     004036BD (in fn004036B8)
fn004036E8 proc
	add	eax,D8
	mov	eax,[eax]
	ret
004036EE                                           8B C0               ..

;; fn004036F0: 004036F0
;;   Called from:
;;     00418FCB (in fn00418FB4)
;;     00419E8E (in fn00419E78)
;;     0041B046 (in fn0041B01C)
;;     0041BA9B (in fn0041BA84)
;;     004264FA (in fn004264A0)
;;     00427AEF (in Win32CrtStartup)
fn004036F0 proc
	test	dl,dl
	jz	004036FC

l004036F4:
	add	esp,F0
	call	00403990

l004036FC:
	test	dl,dl
	jz	0040370F

l00403700:
	call	004039E8
	pop	dword ptr fs:[00000000]
	add	esp,0C

l0040370F:
	ret
00403710 E8 E3 02 00 00 84 D2 7E 05 E8 C2 02 00 00 C3 90 .......~........

;; fn00403720: 00403720
;;   Called from:
;;     0040C948 (in fn0040C940)
;;     0041A590 (in fn0041A578)
;;     00426BDE (in fn00426AC8)
;;     00426EE6 (in fn00426C30)
;;     00427104 (in fn00426C30)
;;     0042710C (in fn00426C30)
;;     00427114 (in fn00426C30)
;;     004273B3 (in fn0042718C)
;;     00427429 (in fn0042718C)
;;     004276F5 (in fn00427488)
;;     0042776B (in fn00427488)
;;     00427806 (in fn004277A4)
;;     00427C1A (in Win32CrtStartup)
fn00403720 proc
	test	eax,eax
	jz	0040372B

l00403724:
	mov	dl,01
	mov	ecx,[eax]
	call	dword ptr [ecx-04]

l0040372B:
	ret

;; fn0040372C: 0040372C
;;   Called from:
;;     004036CB (in fn004036B8)
fn0040372C proc
	push	ebx
	push	esi
	push	edi
	mov	ebx,eax
	mov	edi,edx
	stosd
	mov	ecx,[ebx-28]
	xor	eax,eax
	push	ecx
	shr	ecx,02
	dec	ecx

l0040373E:
	rep stosd

l00403740:
	pop	ecx
	and	ecx,03

l00403744:
	rep stosb

l00403746:
	mov	eax,edx
	mov	edx,esp

l0040374A:
	mov	ecx,[ebx-48]
	test	ecx,ecx
	jz	00403752

l00403751:
	push	ecx

l00403752:
	mov	ebx,[ebx-24]
	test	ebx,ebx
	jz	0040375D

l00403759:
	mov	ebx,[ebx]
	jmp	0040374A

l0040375D:
	cmp	esp,edx
	jz	0040377E

l00403761:
	pop	ebx
	mov	ecx,[ebx]
	add	ebx,04

l00403767:
	mov	esi,[ebx+10]
	test	esi,esi
	jz	00403774

l0040376E:
	mov	edi,[ebx+14]
	mov	[edi+eax],esi

l00403774:
	add	ebx,1C
	dec	ecx
	jnz	00403767

l0040377A:
	cmp	esp,edx
	jnz	00403761

l0040377E:
	pop	edi
	pop	esi
	pop	ebx
	ret
00403782       8B C0 53 56 89 C3 89 C6 8B 36 8B 56 C0 8B   ..SV.....6.V..
00403790 76 DC 85 D2 74 07 E8 C5 14 00 00 89 D8 85 F6 75 v...t..........u
004037A0 E9 5E 5B C3 87 D1 81 F9 00 00 00 FF 73 11 81 F9 .^[.........s...
004037B0 00 00 00 FE 72 07 0F BF C9 03 08 FF 21 FF E1 81 ....r.......!...
004037C0 E1 FF FF FF 00 01 C1 89 D0 8B 11 E9 10 24 00 00 .............$..
004037D0 C3 8D 40 00 55 8B EC 83 C4 F8 53 56 57 33 DB 89 ..@.U.....SVW3..
004037E0 5D F8 8B D9 8B FA 8B F0 33 C0 55 68 62 38 40 00 ].......3.Uhb8@.
004037F0 64 FF 30 64 89 20 33 C0 89 03 8B D7 8B 06 E8 71 d.0d. 3........q
00403800 00 00 00 89 45 FC 83 7D FC 00 74 38 8B 45 FC 8B ....E..}..t8.E..
00403810 40 14 85 C0 74 14 8B D0 03 D6 89 13 85 D2 74 24 @...t.........t$
00403820 8B 03 50 8B 00 FF 50 04 EB 1A 8D 4D F8 8B 45 FC ..P...P....M..E.
00403830 8B 50 18 8B C6 E8 6A FF FF FF 8B 55 F8 8B C3 E8 .P....j....U....
00403840 9C 23 00 00 83 3B 00 0F 95 C0 8B D8 33 C0 5A 59 .#...;......3.ZY
00403850 59 64 89 10 68 69 38 40 00 8D 45 F8 E8 67 23 00 Yd..hi8@..E..g#.
00403860 00 C3 E9 BD 03 00 00 EB F0 8B C3 5F 5E 5B 59 59 ..........._^[YY
00403870 5D C3 8B C0 53 56 89 C3 8B 43 B8 85 C0 74 29 8B ]...SV...C...t).
00403880 08 83 C0 04 8B 32 3B 30 75 18 8B 72 04 3B 70 04 .....2;0u..r.;p.
00403890 75 10 8B 72 08 3B 70 08 75 08 8B 72 0C 3B 70 0C u..r.;p.u..r.;p.
004038A0 74 13 83 C0 1C 49 75 DC 8B 5B DC 85 DB 74 04 8B t....Iu..[...t..
004038B0 1B EB C5 31 C0 5E 5B C3 53 56 8B F2 8B D8 85 DB ...1.^[.SV......
004038C0 74 0D 8B D6 8B 03 E8 75 00 00 00 84 C0 75 05 33 t......u.....u.3
004038D0 C0 5E 5B C3 B0 01 5E 5B C3 8D 40 00             .^[...^[..@.   

;; fn004038DC: 004038DC
;;   Called from:
;;     0041BAF6 (in fn0041BA84)
fn004038DC proc
	test	eax,eax
	jz	004038F6

l004038E0:
	mov	ecx,eax

l004038E2:
	mov	ecx,[ecx]
	cmp	ecx,edx
	jz	004038F6

l004038E8:
	mov	ecx,[ecx-24]
	test	ecx,ecx
	jnz	004038E2

l004038EF:
	mov	al,0A
	jmp	00402B7C

l004038F6:
	ret
004038F7                      90                                .       

;; fn004038F8: 004038F8
;;   Called from:
;;     0040392C (in fn00403928)
fn004038F8 proc
	push	edi
	xchg	eax,esi
	jmp	004038FE

l004038FC:
	mov	esi,[esi]

l004038FE:
	mov	edi,[esi-30]
	test	edi,edi
	jz	00403912

l00403905:
	movzx	ecx,word ptr [edi]
	push	ecx
	add	edi,02

l0040390C:
	repne scasw

l0040390F:
	jz	0040391B

l00403911:
	pop	ecx

l00403912:
	mov	esi,[esi-24]
	test	esi,esi
	jnz	004038FC

l00403919:
	pop	edi
	ret

l0040391B:
	pop	eax
	add	eax,eax
	sub	eax,ecx
	mov	esi,[edi+eax*2-04]
	pop	edi
	ret
00403926                   8B C0                               ..       

;; fn00403928: 00403928
;;   Called from:
;;     00417DEE (in fn00417DA8)
fn00403928 proc
	push	eax
	push	ecx
	mov	eax,[eax]
	call	004038F8
	pop	ecx
	pop	eax
	jz	00403937

l00403935:
	jmp	esi

l00403937:
	pop	ecx
	jmp	00402C74
0040393D                                        C3 8B C0              ...
00403940 EB 02 8B 00 39 D0 74 08 8B 40 DC 85 C0 75 F3 C3 ....9.t..@...u..
00403950 B0 01 C3 90 B8 FF FF 00 80 C3 8B C0 C3 8D 40 00 ..............@.
00403960 C3 8D 40 00 C3 8D 40 00 56 66 8B 32 66 09 F6 74 ..@...@.Vf.2f..t
00403970 17 66 81 FE 00 C0 73 10 50 8B 00 E8 78 FF FF FF .f....s.P...x...
00403980 58 74 05 89 F1 5E FF E1 5E 8B 08 FF 61 F0 C3 90 Xt...^..^...a...

;; fn00403990: 00403990
;;   Called from:
;;     004036F7 (in fn004036F0)
;;     0040B012 (in fn0040B008)
;;     0040B053 (in fn0040B044)
;;     0040B0CE (in fn0040B0C4)
;;     0040B111 (in fn0040B100)
;;     00418515 (in fn0041850C)
;;     00418A1D (in fn00418A14)
;;     00418CE9 (in fn00418CE0)
;;     00418FBE (in fn00418FB4)
;;     00419E81 (in fn00419E78)
;;     0041A38A (in fn0041A380)
;;     0041B026 (in fn0041B01C)
fn00403990 proc
	push	edx
	push	ecx
	push	ebx
	test	dl,dl
	jl	0040399A

l00403997:
	call	dword ptr [eax-0C]

l0040399A:
	xor	edx,edx
	lea	ecx,[esp+10]
	mov	ebx,fs:[edx]
	mov	[ecx],ebx
	mov	[ecx+08],ebp
	mov	dword ptr [ecx+04],004039B9
	mov	[ecx+0C],eax
	mov	fs:[edx],ecx
	pop	ebx
	pop	ecx
	pop	edx
	ret
004039B9                            E9 3A 01 00 00 8B 44          .:....D
004039C0 24 2C 8B 40 0C 85 C0 74 0E 8B 08 B2 81 50 FF 51 $,.@...t.....P.Q
004039D0 FC 58 E8 09 00 00 00 E8 A8 02 00 00 C3 8D 40 00 .X............@.
004039E0 8B 10 FF 52 F8 C3 8B C0                         ...R....       

;; fn004039E8: 004039E8
;;   Called from:
;;     00403700 (in fn004036F0)
;;     0040B02D (in fn0040B008)
;;     0040B0E9 (in fn0040B0C4)
;;     0041854C (in fn0041850C)
;;     00418A42 (in fn00418A14)
;;     00418D0A (in fn00418CE0)
;;     0041905D (in fn00418FB4)
;;     00419E99 (in fn00419E78)
;;     0041A3A7 (in fn0041A380)
;;     0041B06F (in fn0041B01C)
fn004039E8 proc
	push	ebx
	mov	ebx,eax
	mov	eax,ebx
	mov	edx,[eax]
	call	dword ptr [edx-1C]
	mov	eax,ebx
	pop	ebx
	ret
004039F6                   8B C0 84 D2 7F 01 C3 50 52 8B       .......PR.
00403A00 10 FF 52 E8 5A 58 C3 90 80 3D 28 80 42 00 01 76 ..R.ZX...=(.B..v
00403A10 11 6A 00 6A 00 6A 00 68 DF FA ED 0E FF 15 14 B0 .j.j.j.h........
00403A20 42 00 C3 90 80 3D 28 80 42 00 00 74 17 50 50 52 B....=(.B..t.PPR
00403A30 54 6A 02 6A 00 68 E4 FA ED 0E FF 15 14 B0 42 00 Tj.j.h........B.
00403A40 83 C4 08 58 C3 8D 40 00 54 6A 01 6A 00 68 E0 FA ...X..@.Tj.j.h..
00403A50 ED 0E FF 15 14 B0 42 00 83 C4 04 58 C3 8D 40 00 ......B....X..@.
00403A60 80 3D 28 80 42 00 01 76 07 50 53 E9 D8 FF FF FF .=(.B..v.PS.....
00403A70 C3 8D 40 00 85 C9 74 19 8B 41 01 80 39 E9 74 0C ..@...t..A..9.t.
00403A80 80 39 EB 75 0C 0F BE C0 41 41 EB 03 83 C1 05 01 .9.u....AA......
00403A90 C1 C3 8B C0 80 3D 28 80 42 00 01 76 1D 50 52 51 .....=(.B..v.PRQ
00403AA0 E8 CF FF FF FF 51 54 6A 01 6A 00 68 E1 FA ED 0E .....QTj.j.h....
00403AB0 FF 15 14 B0 42 00 59 59 5A 58 C3 90 80 3D 28 80 ....B.YYZX...=(.
00403AC0 42 00 01 76 12 52 54 6A 01 6A 00 68 E2 FA ED 0E B..v.RTj.j.h....
00403AD0 FF 15 14 B0 42 00 5A C3 50 52 80 3D 28 80 42 00 ....B.Z.PR.=(.B.
00403AE0 01 76 10 54 6A 02 6A 00 68 E3 FA ED 0E FF 15 14 .v.Tj.j.h.......
00403AF0 B0 42 00 5A 58 C3 8B C0 8B 44 24 04 F7 40 04 06 .B.ZX....D$..@..
00403B00 00 00 00 0F 85 13 01 00 00 81 38 DE FA ED 0E 8B ..........8.....
00403B10 50 18 8B 48 14 74 6E FC E8 5B FB FF FF 8B 15 10 P..H.tn..[......
00403B20 B0 42 00 85 D2 0F 84 F1 00 00 00 FF D2 85 C0 0F .B..............
00403B30 84 E7 00 00 00 8B 54 24 0C 8B 4C 24 04 81 39 CE ......T$..L$..9.
00403B40 FA EF 0E 74 37 E8 DA FE FF FF 80 3D 2C 80 42 00 ...t7......=,.B.
00403B50 00 76 29 80 3D 28 80 42 00 00 77 20 8D 4C 24 04 .v).=(.B..w .L$.
00403B60 50 51 E8 9D D6 FF FF 83 F8 00 58 0F 84 AB 00 00 PQ........X.....
00403B70 00 89 C2 8B 44 24 04 8B 48 0C EB 30 89 C2 8B 44 ....D$..H..0...D
00403B80 24 04 8B 48 0C 80 3D 2C 80 42 00 01 76 1E 80 3D $..H..=,.B..v..=
00403B90 28 80 42 00 00 77 15 50 8D 44 24 08 52 51 50 E8 (.B..w.P.D$.RQP.
00403BA0 60 D6 FF FF 83 F8 00 59 5A 58 74 70 83 48 04 02 `......YZXtp.H..
00403BB0 53 31 DB 56 57 55 64 8B 1B 53 50 52 51 8B 54 24 S1.VWUd..SPRQ.T$
00403BC0 28 6A 00 50 68 D0 3B 40 00 52 FF 15 18 B0 42 00 (j.Ph.;@.R....B.
00403BD0 8B 7C 24 28 E8 E3 26 00 00 FF B0 00 00 00 00 89 .|$(..&.........
00403BE0 A0 00 00 00 00 8B 6F 08 8B 5F 04 C7 47 04 FC 3B ......o.._..G..;
00403BF0 40 00 83 C3 05 E8 66 FE FF FF FF E3 E9 23 00 00 @.....f......#..
00403C00 00 E8 B6 26 00 00 8B 88 00 00 00 00 8B 11 89 90 ...&............
00403C10 00 00 00 00 8B 41 08 E9 04 FB FF FF B8 01 00 00 .....A..........
00403C20 00 C3 8B C0 8B 44 24 04 8B 54 24 08 F7 40 04 06 .....D$..T$..@..
00403C30 00 00 00 74 1F 8B 4A 04 C7 42 04 54 3C 40 00 53 ...t..J..B.T<@.S
00403C40 56 57 55 8B 6A 08 83 C1 05 E8 46 FE FF FF FF D1 VWU.j.....F.....
00403C50 5D 5F 5E 5B B8 01 00 00 00 C3 8B C0             ]_^[........   

;; fn00403C5C: 00403C5C
;;   Called from:
;;     00407745 (in fn0040772C)
;;     004142E9 (in fn004142BC)
;;     004193CD (in fn00419390)
;;     00419575 (in fn00419564)
;;     0041958D (in fn0041957C)
;;     004195CF (in fn004195A0)
;;     0041966B (in fn004195F4)
;;     0042481A (in fn004247EC)
;;     00424867 (in fn004247EC)
fn00403C5C proc
	or	eax,eax
	jnz	00403C6A

l00403C60:
	mov	eax,000000D8
	call	00404234

l00403C6A:
	pop	edx
	push	esp
	push	ebp
	push	edi
	push	esi
	push	ebx
	push	eax
	push	edx
	push	esp
	push	07
	push	01
	push	0EEDFADE
	push	edx
	jmp	dword ptr [0042B014]
00403C83          C3 8B 44 24 30 C7 40 04 CF 3C 40 00 E8    ..D$0.@..<@..
00403C90 28 26 00 00 8B 90 00 00 00 00 8B 0A 89 88 00 00 (&..............
00403CA0 00 00 8B 42 0C 83 60 04 FD 81 38 DE FA ED 0E 74 ...B..`...8....t
00403CB0 0D 8B 42 08 E8 67 FA FF FF E8 4A FD FF FF 31 C0 ..B..g....J...1.
00403CC0 83 C4 14 64 8B 10 59 8B 12 89 11 5D 5F 5E 5B B8 ...d..Y....]_^[.
00403CD0 01 00 00 00 C3 8D 40 00 E8 DF 25 00 00 8B 90 00 ......@...%.....
00403CE0 00 00 00 8B 0A 89 88 00 00 00 00 8B 42 08 E8 2D ............B..-
00403CF0 FA FF FF 5A 8B 64 24 2C 31 C0 59 64 89 08 58 5D ...Z.d$,1.Yd..X]
00403D00 E8 B7 FD FF FF FF E2 C3                         ........       

;; fn00403D08: 00403D08
;;   Called from:
;;     0041AA7B (in fn0041A748)
;;     0041AA80 (in fn0041A748)
;;     00426CC8 (in fn00426C30)
fn00403D08 proc
	xor	edx,edx
	mov	ecx,[esp+08]
	mov	eax,[esp+04]
	add	ecx,05
	mov	fs:[edx],eax
	call	ecx
	ret	000C
00403D1D                                        C3 8B C0              ...
00403D20 55 8B EC 8B 55 08 8B 02 3D 92 00 00 C0 7F 2C 74 U...U...=.....,t
00403D30 5C 3D 8E 00 00 C0 7F 15 74 57 2D 05 00 00 C0 74 \=......tW-....t
00403D40 5C 2D 87 00 00 00 74 3D 48 74 4E EB 60 05 71 FF \-....t=HtN.`.q.
00403D50 FF 3F 83 E8 02 72 36 74 30 EB 52 3D 96 00 00 C0 .?...r6t0.R=....
00403D60 7F 11 74 3D 2D 93 00 00 C0 74 2E 48 74 13 48 74 ..t=-....t.Ht.Ht
00403D70 24 EB 3A 2D FD 00 00 C0 74 2F 83 E8 3D 74 26 EB $.:-....t/..=t&.
00403D80 2C B0 C8 EB 2A B0 C9 EB 26 B0 CD EB 22 B0 CF EB ,...*...&..."...
00403D90 1E B0 C8 EB 1A B0 D7 EB 16 B0 CE EB 12 B0 D8 EB ................
00403DA0 0E B0 DA EB 0A B0 D9 EB 06 B0 CA EB 02 B0 FF 25 ...............%
00403DB0 FF 00 00 00 8B 52 0C E8 68 ED FF FF 5D C2 04 00 .....R..h...]...
00403DC0 8B 44 24 04 F7 40 04 06 00 00 00 0F 85 89 00 00 .D$..@..........
00403DD0 00 80 3D 28 80 42 00 00 77 0F 8D 44 24 04 50 E8 ..=(.B..w..D$.P.
00403DE0 20 D4 FF FF 83 F8 00 74 71 8B 44 24 04 FC E8 85  ......tq.D$....
00403DF0 F8 FF FF 8B 54 24 08 6A 00 50 68 06 3E 40 00 52 ....T$.j.Ph.>@.R
00403E00 FF 15 18 B0 42 00 8B 5C 24 04 81 3B DE FA ED 0E ....B..\$..;....
00403E10 8B 53 14 8B 43 18 74 1D 8B 15 10 B0 42 00 85 D2 .S..C.t.....B...
00403E20 0F 84 FA FE FF FF 89 D8 FF D2 85 C0 0F 84 EE FE ................
00403E30 FF FF 8B 53 0C E8 9E FC FF FF 8B 0D 04 B0 42 00 ...S..........B.
00403E40 85 C9 74 02 FF D1 8B 4C 24 04 B8 D9 00 00 00 8B ..t....L$.......
00403E50 51 14 89 14 24 E9 DA 03 00 00 31 C0 C3 8D 40 00 Q...$.....1...@.

;; fn00403E60: 00403E60
;;   Called from:
;;     00403FB6 (in fn00403F88)
fn00403E60 proc
	xor	edx,edx
	lea	eax,[ebp-0C]
	mov	ecx,fs:[edx]
	mov	fs:[edx],eax
	mov	[eax],ecx
	mov	dword ptr [eax+04],00403DC0
	mov	[eax+08],ebp
	mov	[0042B63C],eax
	ret
00403E7D                                        8D 40 00              .@.

;; fn00403E80: 00403E80
;;   Called from:
;;     004041D8 (in fn00404148)
fn00403E80 proc
	xor	edx,edx
	mov	eax,[0042B63C]
	test	eax,eax
	jz	00403EA7

l00403E8B:
	mov	ecx,fs:[edx]
	cmp	eax,ecx
	jnz	00403E9A

l00403E92:
	mov	eax,[eax]
	mov	fs:[edx],eax
	ret

l00403E98:
	mov	ecx,[ecx]

l00403E9A:
	cmp	ecx,FF
	jz	00403EA7

l00403E9F:
	cmp	[ecx],eax
	jnz	00403E98

l00403EA3:
	mov	eax,[eax]
	mov	[ecx],eax

l00403EA7:
	ret

;; fn00403EA8: 00403EA8
;;   Called from:
;;     004041A1 (in fn00404148)
fn00403EA8 proc
	push	ebp
	mov	ebp,esp
	add	esp,F8
	push	ebx
	push	esi
	push	edi
	mov	esi,0042B638
	mov	eax,[esi+08]
	test	eax,eax
	jz	00403F11

l00403EBD:
	mov	ebx,[esi+0C]
	mov	eax,[eax+04]
	mov	[ebp-04],eax
	xor	eax,eax
	push	ebp
	push	00403EFD
	push	dword ptr fs:[eax]
	mov	fs:[eax],esp
	test	ebx,ebx
	jle	00403EF3

l00403ED8:
	dec	ebx
	mov	[esi+0C],ebx
	mov	eax,[ebp-04]
	mov	eax,[eax+ebx*8+04]
	mov	[ebp-08],eax
	cmp	dword ptr [ebp-08],00
	jz	00403EEF

l00403EEC:
	call	dword ptr [ebp-08]

l00403EEF:
	test	ebx,ebx
	jg	00403ED8

l00403EF3:
	xor	eax,eax
	pop	edx
	pop	ecx
	pop	ecx
	mov	fs:[eax],edx
	jmp	00403F11
00403EFD                                        E9 F6 FB              ...
00403F00 FF FF E8 A1 FF FF FF E8 78 FD FF FF E8 C7 FD FF ........x.......
00403F10 FF                                              .              

l00403F11:
	pop	edi
	pop	esi
	pop	ebx
	pop	ecx
	pop	ecx
	pop	ebp
	ret

;; fn00403F18: 00403F18
;;   Called from:
;;     00403FC2 (in fn00403F88)
fn00403F18 proc
	push	ebp
	mov	ebp,esp
	add	esp,F8
	push	ebx
	push	esi
	push	edi
	mov	edi,0042B638
	mov	eax,[edi+08]
	test	eax,eax
	jz	00403F81

l00403F2D:
	mov	esi,[eax]
	xor	ebx,ebx
	mov	eax,[eax+04]
	mov	[ebp-04],eax
	xor	eax,eax
	push	ebp
	push	00403F6D
	push	dword ptr fs:[eax]
	mov	fs:[eax],esp
	cmp	esi,ebx
	jle	00403F63

l00403F49:
	mov	eax,[ebp-04]
	mov	eax,[eax+ebx*8]
	mov	[ebp-08],eax
	inc	ebx
	mov	[edi+0C],ebx
	cmp	dword ptr [ebp-08],00
	jz	00403F5F

l00403F5C:
	call	dword ptr [ebp-08]

l00403F5F:
	cmp	esi,ebx
	jg	00403F49

l00403F63:
	xor	eax,eax
	pop	edx
	pop	ecx
	pop	ecx
	mov	fs:[eax],edx
	jmp	00403F81
00403F6D                                        E9 86 FB              ...
00403F70 FF FF E8 31 FF FF FF E8 08 FD FF FF E8 57 FD FF ...1.........W..
00403F80 FF                                              .              

l00403F81:
	pop	edi
	pop	esi
	pop	ebx
	pop	ecx
	pop	ecx
	pop	ebp
	ret

;; fn00403F88: 00403F88
;;   Called from:
;;     00406342 (in fn00406308)
fn00403F88 proc
	mov	dword ptr [0042B014],004011DC
	mov	dword ptr [0042B018],004011EC
	mov	[0042B640],eax
	xor	eax,eax
	mov	[0042B644],eax
	mov	[0042B648],edx
	mov	eax,[edx+04]
	mov	[0042B030],eax
	call	00403E60
	mov	byte ptr [0042B038],00
	call	00403F18
	ret
00403FC8                         53 31 DB 57 56 8B 3C 18         S1.WV.<.
00403FD0 8D 74 18 04 8B 46 04 8B 16 8B 04 18 01 DA E8 6D .t...F.........m
00403FE0 20 00 00 83 C6 08 4F 75 EB 5E 5F 5B C3 8D 40 00  .....Ou.^_[..@.
00403FF0 53 31 DB 57 56 8B 3C 18 8D 74 18 04 8B 46 04 8B S1.WV.<..t...F..
00404000 16 8B 04 18 03 46 08 89 04 1A 83 C6 0C 4F 75 EC .....F.......Ou.
00404010 5E 5F 5B C3 53 56 8B 18 8D 70 04 8B 56 04 8B 06 ^_[.SV...p..V...
00404020 E8 17 09 00 00 83 C6 08 4B 75 F0 5E 5B C3 8B C0 ........Ku.^[...

;; fn00404030: 00404030
;;   Called from:
;;     0040417C (in fn00404148)
fn00404030 proc
	push	ebx
	push	esi
	push	edi
	mov	esi,00428070
	mov	cl,10
	mov	ebx,[00428000]

l00404040:
	mov	eax,ebx
	mov	edi,0000000A
	cdq
	idiv	edi
	add	dl,30
	xor	eax,eax
	mov	al,cl
	mov	[esi+eax],dl
	mov	eax,ebx
	mov	ebx,0000000A
	cdq
	idiv	ebx
	mov	ebx,eax
	dec	ecx
	test	ebx,ebx
	jnz	00404040

l00404065:
	mov	cl,1C
	mov	eax,[00428004]

l0040406C:
	mov	edx,eax
	and	edx,0F
	mov	dl,[edx+00428090]
	xor	ebx,ebx
	mov	bl,cl
	mov	[esi+ebx],dl
	shr	eax,04
	dec	ecx
	test	eax,eax
	jnz	0040406C

l00404086:
	pop	edi
	pop	esi
	pop	ebx
	ret
0040408A                               8B C0                       ..   

;; fn0040408C: 0040408C
;;   Called from:
;;     004041EC (in fn00404148)
fn0040408C proc
	xor	eax,eax
	xchg	[00428000],eax
	neg	eax
	sbb	eax,eax
	inc	eax
	mov	edi,0042B638
	mov	ebx,[edi+18]
	mov	ebp,[edi+14]
	push	dword ptr [edi+1C]
	push	dword ptr [edi+20]
	mov	esi,[edi]
	mov	ecx,0000000B

l004040B1:
	rep movsd

l004040B3:
	pop	edi
	pop	esi
	leave
	ret	000C
004040B9                            C3 8B C0                      ...   

;; fn004040BC: 004040BC
;;   Called from:
;;     00404181 (in fn00404148)
fn004040BC proc
	push	ecx
	cmp	byte ptr [0042B04C],00
	jz	0040411D

l004040C6:
	cmp	word ptr [0042B220],D7B2
	jnz	004040E5

l004040D1:
	cmp	dword ptr [0042B228],00
	jbe	004040E5

l004040DA:
	mov	eax,0042B21C
	call	dword ptr [0042B238]

l004040E5:
	push	00
	lea	eax,[esp+04]
	push	eax
	push	1E
	push	00428070
	push	F5
	call	004011D4
	push	eax
	call	0040120C
	push	00
	lea	eax,[esp+04]
	push	eax
	push	02
	push	00404144
	push	F5
	call	004011D4
	push	eax
	call	0040120C
	pop	edx
	ret

l0040411D:
	cmp	byte ptr [00428030],00
	jnz	00404139

l00404126:
	push	00
	push	00428068
	push	00428070
	push	00
	call	00401224

l00404139:
	pop	edx
	ret
0040413B                                  00 FF FF FF FF            .....
00404140 02 00 00 00 0D 0A 00 00                         ........       

;; fn00404148: 00404148
;;   Called from:
;;     0040422D (in fn00404228)
fn00404148 proc
	push	ebx
	push	esi
	push	edi
	push	ebp
	push	ecx
	mov	ebx,0042B638
	mov	esi,0042B048
	cmp	byte ptr [ebx+28],00
	jnz	00404173

l0040415D:
	cmp	dword ptr [esi],00
	jz	00404173

l00404162:
	mov	eax,[esi]
	mov	[esp],eax
	xor	eax,eax
	mov	[esi],eax
	call	dword ptr [esp]
	cmp	dword ptr [esi],00
	jnz	00404162

l00404173:
	cmp	dword ptr [00428004],00
	jz	0040418D

l0040417C:
	call	00404030
	call	004040BC
	xor	eax,eax
	mov	[00428004],eax

l0040418D:
	cmp	byte ptr [ebx+28],02
	jnz	004041A1

l00404193:
	cmp	dword ptr [00428000],00
	jnz	004041A1

l0040419C:
	xor	eax,eax
	mov	[ebx+0C],eax

l004041A1:
	call	00403EA8
	cmp	byte ptr [ebx+28],01
	jbe	004041B5

l004041AC:
	cmp	dword ptr [00428000],00
	jz	004041D8

l004041B5:
	mov	edi,[ebx+10]
	test	edi,edi
	jz	004041D8

l004041BC:
	mov	eax,edi
	call	00405B44
	mov	ebp,[ebx+10]
	mov	esi,[ebp+10]
	cmp	esi,[ebp+04]
	jz	004041D8

l004041CE:
	test	esi,esi
	jz	004041D8

l004041D2:
	push	esi
	call	0040123C

l004041D8:
	call	00403E80
	cmp	byte ptr [ebx+28],01
	jnz	004041E6

l004041E3:
	call	dword ptr [ebx+24]

l004041E6:
	cmp	byte ptr [ebx+28],00
	jz	004041F1

l004041EC:
	call	0040408C

l004041F1:
	cmp	dword ptr [ebx],00
	jnz	00404210

l004041F6:
	cmp	dword ptr [0042B028],00
	jz	00404205

l004041FF:
	call	dword ptr [0042B028]

l00404205:
	mov	eax,[00428000]
	push	eax
	call	0040121C

l00404210:
	mov	eax,[ebx]
	mov	esi,eax
	mov	edi,ebx
	mov	ecx,0000000B

l0040421B:
	rep movsd

l0040421D:
	jmp	0040418D
00404222       5A 5D 5F 5E 5B C3                           Z]_^[.       

;; fn00404228: 00404228
;;   Called from:
;;     00402B2A (in fn00402B24)
;;     0040423A (in fn00404234)
fn00404228 proc
	mov	[00428000],eax
	call	00404148
	ret
00404233          90                                        .           

;; fn00404234: 00404234
;;   Called from:
;;     00402C88 (in fn00403928)
;;     00403C65 (in fn00403C5C)
;;     00406292 (in fn00406278)
;;     004062A7 (in fn00406278)
fn00404234 proc
	pop	dword ptr [00428004]
	jmp	00404228
0040423F                                              C3                .

;; fn00404240: 00404240
;;   Called from:
;;     00404353 (in fn00404330)
;;     00404796 (in fn00404760)
;;     00404887 (in fn00404830)
;;     00404CF6 (in fn00404CAC)
;;     00408339 (in fn00408334)
;;     0040869F (in fn00408697)
;;     00408785 (in fn00408718)
;;     0040B098 (in fn0040B044)
;;     00414336 (in fn004142F4)
;;     004195E4 (in fn004195A0)
;;     0041968A (in fn004195F4)
;;     0042476F (in fn00424708)
;;     004249A8 (in fn00424988)
;;     00424A7D (in fn00424A14)
;;     00424A92 (in fn00424A14)
;;     00424B43 (in fn00424AA8)
;;     00424B4B (in fn00424AA8)
;;     00426A21 (in fn00426954)
fn00404240 proc
	mov	edx,[eax]
	test	edx,edx
	jz	00404262

l00404246:
	mov	dword ptr [eax],00000000
	mov	ecx,[edx-08]
	dec	ecx
	jl	00404262

l00404252:
	lock
	dec	dword ptr [edx-08]
	jnz	00404262

l00404258:
	push	eax
	lea	eax,[edx-08]
	call	00402A58
	pop	eax

l00404262:
	ret
00404263          90                                        .           

;; fn00404264: 00404264
;;   Called from:
;;     00404D02 (in fn00404CAC)
;;     0040B166 (in fn0040B100)
;;     00418877 (in fn004186F4)
;;     004247D7 (in fn00424784)
;;     00426A19 (in fn00426954)
fn00404264 proc
	push	ebx
	push	esi
	mov	ebx,eax
	mov	esi,edx

l0040426A:
	mov	edx,[ebx]
	test	edx,edx
	jz	0040428A

l00404270:
	mov	dword ptr [ebx],00000000
	mov	ecx,[edx-08]
	dec	ecx
	jl	0040428A

l0040427C:
	lock
	dec	dword ptr [edx-08]
	jnz	0040428A

l00404282:
	lea	eax,[edx-08]
	call	00402A58

l0040428A:
	add	ebx,04
	dec	esi
	jnz	0040426A

l00404290:
	pop	esi
	pop	ebx
	ret
00404293          90                                        .           

;; fn00404294: 00404294
;;   Called from:
;;     00404510 (in fn00404508)
;;     00404552 (in fn0040454C)
;;     00404562 (in fn0040454C)
;;     004045A8 (in fn0040454C)
;;     004045B3 (in fn0040454C)
;;     00404E2C (in fn00404DBC)
;;     00404F22 (in fn00404ED8)
;;     0040B022 (in fn0040B008)
;;     0040B083 (in fn0040B044)
;;     0040B14C (in fn0040B100)
;;     004246EA (in fn004246E0)
;;     00424A76 (in fn00424A14)
;;     0042646A (in fn00426460)
fn00404294 proc
	test	edx,edx
	jz	004042BC

l00404298:
	mov	ecx,[edx-08]
	inc	ecx
	jg	004042B8

l0040429E:
	push	eax
	push	edx
	mov	eax,[edx-04]
	call	00404304
	mov	edx,eax
	pop	eax
	push	edx
	mov	ecx,[eax-04]
	call	00402C1C
	pop	edx
	pop	eax
	jmp	004042BC

l004042B8:
	lock
	inc	dword ptr [edx-08]

l004042BC:
	xchg	[eax],edx
	test	edx,edx
	jz	004042D6

l004042C2:
	mov	ecx,[edx-08]
	dec	ecx
	jl	004042D6

l004042C8:
	lock
	dec	dword ptr [edx-08]
	jnz	004042D6

l004042CE:
	lea	eax,[edx-08]
	call	00402A58

l004042D6:
	ret
004042D7                      90                                .       

;; fn004042D8: 004042D8
;;   Called from:
;;     00426537 (in fn004264A0)
;;     00426550 (in fn004264A0)
fn004042D8 proc
	test	edx,edx
	jz	004042E6

l004042DC:
	mov	ecx,[edx-08]
	inc	ecx
	jle	004042E6

l004042E2:
	lock
	inc	dword ptr [edx-08]

l004042E6:
	xchg	[eax],edx
	test	edx,edx
	jz	00404300

l004042EC:
	mov	ecx,[edx-08]
	dec	ecx
	jl	00404300

l004042F2:
	lock
	dec	dword ptr [edx-08]
	jnz	00404300

l004042F8:
	lea	eax,[edx-08]
	call	00402A58

l00404300:
	ret
00404301    8D 40 00                                      .@.           

;; fn00404304: 00404304
;;   Called from:
;;     004042A3 (in fn00404294)
;;     0040433B (in fn00404330)
;;     0040457C (in fn0040454C)
;;     0040471E (in fn00404750)
;;     00404868 (in fn00404830)
fn00404304 proc
	test	eax,eax
	jle	0040432C

l00404308:
	push	eax
	add	eax,0A
	and	eax,FE
	push	eax
	call	00402A28
	pop	edx
	mov	word ptr [edx+eax-02],0000
	add	eax,08
	pop	edx
	mov	[eax-04],edx
	mov	dword ptr [eax-08],00000001
	ret

l0040432C:
	xor	eax,eax
	ret
0040432F                                              90                .

;; fn00404330: 00404330
;;   Called from:
;;     00404430 (in fn00404428)
;;     0040445F (in fn00404438)
;;     004044A9 (in fn004044A4)
;;     004044C2 (in fn004044B0)
;;     00404783 (in fn00404760)
;;     0040608D (in fn00406050)
;;     004078C5 (in fn004078A8)
;;     004087CF (in fn00408718)
fn00404330 proc
	push	ebx
	push	esi
	push	edi
	mov	ebx,eax
	mov	esi,edx
	mov	edi,ecx
	mov	eax,edi
	call	00404304
	mov	ecx,edi
	mov	edi,eax
	test	esi,esi
	jz	00404351

l00404348:
	mov	edx,eax
	mov	eax,esi
	call	00402C1C

l00404351:
	mov	eax,ebx
	call	00404240
	mov	[ebx],edi
	pop	edi
	pop	esi
	pop	ebx
	ret
0040435E                                           8B C0               ..
00404360 55 8B EC 6A 00 6A 00 52 50 8B 45 08 50 51 6A 00 U..j.j.RP.E.PQj.
00404370 A1 C0 B5 42 00 50 E8 49 CF FF FF 5D C2 04 00 90 ...B.P.I...]....
00404380 55 8B EC 52 50 8B 45 08 50 51 6A 00 A1 C0 B5 42 U..RP.E.PQj....B
00404390 00 50 E8 0D CF FF FF 5D C2 04 00 90 53 56 57 55 .P.....]....SVWU
004043A0 81 C4 04 F0 FF FF 50 83 C4 FC 8B F1 89 14 24 8B ......P.......$.
004043B0 F8 85 F6 7F 09 8B C7 E8 84 FE FF FF EB 5F 8D 6E ............._.n
004043C0 01 81 FD FF 07 00 00 7D 28 56 8D 44 24 08 8B 4C .......}(V.D$..L
004043D0 24 04 BA FF 0F 00 00 E8 84 FF FF FF 8B D8 85 DB $...............
004043E0 7C 0F 8D 54 24 04 8B C7 8B CB E8 41 FF FF FF EB |..T$......A....
004043F0 2C 8B DD 03 DB 8B C7 8B D3 E8 32 04 00 00 56 8B ,.........2...V.
00404400 07 8B 4C 24 04 8B D3 E8 54 FF FF FF 8B D8 85 DB ..L$....T.......
00404410 7D 02 33 DB 8B C7 8B D3 E8 13 04 00 00 81 C4 04 }.3.............
00404420 10 00 00 5D 5F 5E 5B C3                         ...]_^[.       

;; fn00404428: 00404428
;;   Called from:
;;     00424A3D (in fn00424A14)
fn00404428 proc
	push	edx
	mov	edx,esp
	mov	ecx,00000001
	call	00404330
	pop	edx
	ret
00404437                      90                                .       

;; fn00404438: 00404438
;;   Called from:
;;     00406099 (in fn00406050)
fn00404438 proc
	xor	ecx,ecx
	test	edx,edx
	jz	0040445F

l0040443E:
	push	edx

l0040443F:
	cmp	cl,[edx]
	jz	0040445A

l00404443:
	cmp	cl,[edx+01]
	jz	00404459

l00404448:
	cmp	cl,[edx+02]
	jz	00404458

l0040444D:
	cmp	cl,[edx+03]
	jz	00404457

l00404452:
	add	edx,04
	jmp	0040443F

l00404457:
	inc	edx

l00404458:
	inc	edx

l00404459:
	inc	edx

l0040445A:
	mov	ecx,edx
	pop	edx
	sub	ecx,edx

l0040445F:
	jmp	00404330
00404464             C3 8D 40 00 31 C9 85 D2 74 2D 52 66     ..@.1...t-Rf
00404470 3B 0A 74 20 66 3B 4A 02 74 17 66 3B 4A 04 74 0E ;.t f;J.t.f;J.t.
00404480 66 3B 4A 06 74 05 83 C2 08 EB E4 83 C2 02 83 C2 f;J.t...........
00404490 02 83 C2 02 89 D1 5A 29 D1 D1 E9 E9 FC FE FF FF ......Z)........
004044A0 C3 8D 40 00                                     ..@.           

;; fn004044A4: 004044A4
;;   Called from:
;;     004187B8 (in fn004186F4)
;;     004187D6 (in fn004186F4)
;;     004187F1 (in fn004186F4)
fn004044A4 proc
	xor	ecx,ecx
	mov	cl,[edx]
	inc	edx
	jmp	00404330
004044AE                                           C3 90               ..

;; fn004044B0: 004044B0
;;   Called from:
;;     00407EBF (in fn00407E64)
;;     00419654 (in fn004195F4)
fn004044B0 proc
	push	edi
	push	eax
	push	ecx
	mov	edi,edx
	xor	eax,eax

l004044B7:
	repne scasb

l004044B9:
	jnz	004044BD

l004044BB:
	not	ecx

l004044BD:
	pop	eax
	add	ecx,eax
	pop	eax
	pop	edi
	jmp	00404330
004044C7                      C3 31 C9 85 D2 74 05 8B 4A        .1...t..J
004044D0 FC D1 E9 E9 C4 FE FF FF C3 8D 40 00 53 85 D2 74 ..........@.S..t
004044E0 18 8B 5A FC 85 DB 74 11 39 D9 7C 02 89 D9 88 08 ..Z...t.9.|.....
004044F0 40 92 E8 25 E7 FF FF 5B C3 C6 00 00 5B C3 8B C0 @..%...[....[...

;; fn00404500: 00404500
;;   Called from:
;;     004077CC (in fn004077C0)
;;     004078B1 (in fn004078A8)
;;     0040791C (in fn00407914)
;;     0040792C (in fn00407914)
;;     00407FA2 (in fn00407F98)
;;     00408195 (in fn0040818C)
;;     00408738 (in fn00408718)
;;     00408747 (in fn00408718)
;;     0040876F (in fn00408718)
;;     00408796 (in fn00408718)
;;     0040BBF2 (in fn0040BBE0)
;;     0042469E (in fn00424694)
;;     00424732 (in fn00424708)
;;     0042484A (in fn004247EC)
;;     004249B1 (in fn00424988)
;;     004249D4 (in fn004249C8)
;;     00426475 (in fn00426460)
fn00404500 proc
	test	eax,eax
	jz	00404507

l00404504:
	mov	eax,[eax-04]

l00404507:
	ret

;; fn00404508: 00404508
;;   Called from:
;;     00404569 (in fn0040454C)
;;     004045BA (in fn0040454C)
;;     004269BD (in fn00426954)
fn00404508 proc
	test	edx,edx
	jz	0040454B

l0040450C:
	mov	ecx,[eax]
	test	ecx,ecx
	jz	00404294

l00404516:
	push	ebx
	push	esi
	push	edi
	mov	ebx,eax
	mov	esi,edx
	mov	edi,[ecx-04]
	mov	edx,[esi-04]
	add	edx,edi
	cmp	esi,ecx
	jz	00404540

l00404529:
	call	00404830
	mov	eax,esi
	mov	ecx,[esi-04]

l00404533:
	mov	edx,[ebx]
	add	edx,edi
	call	00402C1C
	pop	edi
	pop	esi
	pop	ebx
	ret

l00404540:
	call	00404830
	mov	eax,[ebx]
	mov	ecx,edi
	jmp	00404533

l0040454B:
	ret

;; fn0040454C: 0040454C
;;   Called from:
;;     0042648A (in fn00426460)
;;     00426570 (in fn004264A0)
;;     0042663C (in fn004264A0)
fn0040454C proc
	test	edx,edx
	jz	004045B1

l00404550:
	test	ecx,ecx
	jz	00404294

l00404558:
	cmp	edx,[eax]
	jz	004045B8

l0040455C:
	cmp	ecx,[eax]
	jz	0040456E

l00404560:
	push	eax
	push	ecx
	call	00404294
	pop	edx
	pop	eax
	jmp	00404508

l0040456E:
	push	ebx
	push	esi
	push	edi
	mov	ebx,edx
	mov	esi,ecx
	push	eax
	mov	eax,[ebx-04]
	add	eax,[esi-04]
	call	00404304
	mov	edi,eax
	mov	edx,eax
	mov	eax,ebx
	mov	ecx,[ebx-04]
	call	00402C1C
	mov	edx,edi
	mov	eax,esi
	mov	ecx,[esi-04]
	add	edx,[ebx-04]
	call	00402C1C
	pop	eax
	mov	edx,edi
	test	edi,edi
	jz	004045A8

l004045A5:
	dec	dword ptr [edi-08]

l004045A8:
	call	00404294
	pop	edi
	pop	esi
	pop	ebx
	ret

l004045B1:
	mov	edx,ecx
	jmp	00404294

l004045B8:
	mov	edx,ecx
	jmp	00404508
004045BF                                              C3                .
004045C0 53 56 57 52 50 89 D3 31 FF 8B 4C 94 14 85 C9 74 SVWRP..1..L....t
004045D0 0C 39 08 75 08 89 CF 8B 41 FC 4A EB 02 31 C0 8B .9.u....A.J..1..
004045E0 4C 94 14 85 C9 74 09 03 41 FC 39 CF 75 02 31 FF L....t..A.9.u.1.
004045F0 4A 75 EC 85 FF 74 17 89 C2 8B 04 24 8B 77 FC E8 Ju...t.....$.w..
00404600 2C 02 00 00 8B 3C 24 FF 37 03 37 4B EB 08 E8 F1 ,....<$.7.7K....
00404610 FC FF FF 50 89 C6 8B 44 9C 18 89 F2 85 C0 74 0A ...P...D......t.
00404620 8B 48 FC 01 CE E8 F2 E5 FF FF 4B 75 E9 5A 58 85 .H........Ku.ZX.
00404630 FF 75 0C 85 D2 74 03 FF 4A F8 E8 55 FC FF FF 5A .u...t..J..U...Z
00404640 5F 5E 5B 58 8D 24 94 FF E0 C3 8B C0             _^[X.$......   

;; fn0040464C: 0040464C
;;   Called from:
;;     00424826 (in fn004247EC)
;;     004265CD (in fn004264A0)
;;     004265E3 (in fn004264A0)
;;     0042698F (in fn00426954)
;;     0042699D (in fn00426954)
;;     00426FFF (in fn00426C30)
;;     00427BB1 (in Win32CrtStartup)
fn0040464C proc
	push	ebx
	push	esi
	push	edi
	mov	esi,eax
	mov	edi,edx
	cmp	eax,edx
	jz	004046EA

l0040465B:
	test	esi,esi
	jz	004046C7

l0040465F:
	test	edi,edi
	jz	004046CE

l00404663:
	mov	eax,[esi-04]
	mov	edx,[edi-04]
	sub	eax,edx
	ja	0040466F

l0040466D:
	add	edx,eax

l0040466F:
	push	edx
	shr	edx,02
	jz	0040469B

l00404675:
	mov	ecx,[esi]
	mov	ebx,[edi]
	cmp	ecx,ebx
	jnz	004046D5

l0040467D:
	dec	edx
	jz	00404695

l00404680:
	mov	ecx,[esi+04]
	mov	ebx,[edi+04]
	cmp	ecx,ebx
	jnz	004046D5

l0040468A:
	add	esi,08
	add	edi,08
	dec	edx
	jnz	00404675

l00404693:
	jmp	0040469B

l00404695:
	add	esi,04
	add	edi,04

l0040469B:
	pop	edx
	and	edx,03
	jz	004046C3

l004046A1:
	mov	ecx,[esi]
	mov	ebx,[edi]
	cmp	cl,bl
	jnz	004046EA

l004046A9:
	dec	edx
	jz	004046C3

l004046AC:
	cmp	ch,bh
	jnz	004046EA

l004046B0:
	dec	edx
	jz	004046C3

l004046B3:
	and	ebx,00FF0000
	and	ecx,00FF0000
	cmp	ecx,ebx
	jnz	004046EA

l004046C3:
	add	eax,eax
	jmp	004046EA

l004046C7:
	mov	edx,[edi-04]
	sub	eax,edx
	jmp	004046EA

l004046CE:
	mov	eax,[esi-04]
	sub	eax,edx
	jmp	004046EA

l004046D5:
	pop	edx
	cmp	cl,bl
	jnz	004046EA

l004046DA:
	cmp	ch,bh
	jnz	004046EA

l004046DE:
	shr	ecx,10
	shr	ebx,10
	cmp	cl,bl
	jnz	004046EA

l004046E8:
	cmp	ch,bh

l004046EA:
	pop	edi
	pop	esi
	pop	ebx
	ret
004046EE                                           8B C0               ..

;; fn004046F0: 004046F0
;;   Called from:
;;     00424ABF (in fn00424AA8)
;;     0042696F (in fn00426954)
fn004046F0 proc
	test	eax,eax
	jz	004046FE

l004046F4:
	mov	edx,[eax-08]
	inc	edx
	jle	004046FE

l004046FA:
	lock
	inc	dword ptr [eax-08]

l004046FE:
	ret
004046FF                                              90                .

;; fn00404700: 00404700
;;   Called from:
;;     004078BA (in fn004078A8)
;;     00407924 (in fn00407914)
;;     00407934 (in fn00407914)
;;     00407EE5 (in fn00407ED0)
;;     00407FAB (in fn00407F98)
;;     0040819D (in fn0040818C)
;;     0040B933 (in fn0040B920)
;;     0040BC0A (in fn0040BBE0)
;;     004246B2 (in fn00424694)
;;     0042487B (in fn004247EC)
fn00404700 proc
	test	eax,eax
	jz	00404706

l00404704:
	ret
00404705                00                                    .         

l00404706:
	mov	eax,00404705
	ret

l0040470C:
	mov	edx,[eax]
	test	edx,edx
	jz	0040474A

l00404712:
	mov	ecx,[edx-08]
	dec	ecx
	jz	0040474A

l00404718:
	push	ebx
	mov	ebx,eax
	mov	eax,[edx-04]
	call	00404304
	mov	edx,eax
	mov	eax,[ebx]
	mov	[ebx],edx
	push	eax
	mov	ecx,[eax-04]
	call	00402C1C
	pop	eax
	mov	ecx,[eax-08]
	dec	ecx
	jl	00404747

l00404739:
	lock
	dec	dword ptr [eax-08]
	jnz	00404747

l0040473F:
	lea	eax,[eax-08]
	call	00402A58

l00404747:
	mov	edx,[ebx]
	pop	ebx

l0040474A:
	mov	eax,edx
	ret
0040474D                                        8D 40 00              .@.

;; fn00404750: 00404750
;;   Called from:
;;     004047A9 (in fn004047A0)
;;     004246AB (in fn00424694)
fn00404750 proc
	jmp	0040470C
00404755                C3 8B C0 E9 AF FF FF FF C3 8B C0      ...........

;; fn00404760: 00404760
;;   Called from:
;;     00408027 (in fn00407FE8)
;;     0040805C (in fn0040803C)
;;     00424740 (in fn00424708)
;;     004249E2 (in fn004249C8)
;;     00424A5D (in fn00424A14)
fn00404760 proc
	push	ebx
	test	eax,eax
	jz	00404792

l00404765:
	mov	ebx,[eax-04]
	test	ebx,ebx
	jz	00404792

l0040476C:
	dec	edx
	jl	0040478A

l0040476F:
	cmp	edx,ebx
	jge	00404792

l00404773:
	sub	ebx,edx
	test	ecx,ecx
	jl	00404792

l00404779:
	cmp	ecx,ebx
	jg	0040478E

l0040477D:
	add	edx,eax
	mov	eax,[esp+08]
	call	00404330
	jmp	0040479B

l0040478A:
	xor	edx,edx
	jmp	00404773

l0040478E:
	mov	ecx,ebx
	jmp	0040477D

l00404792:
	mov	eax,[esp+08]
	call	00404240

l0040479B:
	pop	ebx
	ret	0004
0040479F                                              C3                .

;; fn004047A0: 004047A0
;;   Called from:
;;     00424A6B (in fn00424A14)
fn004047A0 proc
	push	ebx
	push	esi
	push	edi
	mov	ebx,eax
	mov	esi,edx
	mov	edi,ecx
	call	00404750
	mov	edx,[ebx]
	test	edx,edx
	jz	004047E4

l004047B4:
	mov	ecx,[edx-04]
	dec	esi
	jl	004047E4

l004047BA:
	cmp	esi,ecx
	jge	004047E4

l004047BE:
	test	edi,edi
	jle	004047E4

l004047C2:
	sub	ecx,esi
	cmp	edi,ecx
	jle	004047CA

l004047C8:
	mov	edi,ecx

l004047CA:
	sub	ecx,edi
	add	edx,esi
	lea	eax,[edi+edx]
	call	00402C1C
	mov	edx,[ebx]
	mov	eax,ebx
	mov	edx,[edx-04]
	sub	edx,edi
	call	00404830

l004047E4:
	pop	edi
	pop	esi
	pop	ebx
	ret

;; fn004047E8: 004047E8
;;   Called from:
;;     004247BB (in fn00424784)
;;     00424A47 (in fn00424A14)
;;     004269AC (in fn00426954)
fn004047E8 proc
	test	eax,eax
	jz	0040482C

l004047EC:
	test	edx,edx
	jz	00404821

l004047F0:
	push	ebx
	push	esi
	push	edi
	mov	esi,eax
	mov	edi,edx
	mov	ecx,[edi-04]
	push	edi
	mov	edx,[esi-04]
	dec	edx
	js	0040481C

l00404801:
	mov	al,[esi]
	inc	esi
	sub	ecx,edx
	jle	0040481C

l00404808:
	repne scasb

l0040480A:
	jnz	0040481C

l0040480C:
	mov	ebx,ecx
	push	esi
	push	edi
	mov	ecx,edx

l00404812:
	rep cmpsb

l00404814:
	pop	edi
	pop	esi
	jz	00404824

l00404818:
	mov	ecx,ebx
	jmp	00404808

l0040481C:
	pop	edx
	xor	eax,eax
	jmp	00404829

l00404821:
	xor	eax,eax
	ret

l00404824:
	pop	edx
	mov	eax,edi
	sub	eax,edx

l00404829:
	pop	edi
	pop	esi
	pop	ebx

l0040482C:
	ret
0040482D                                        8D 40 00              .@.

;; fn00404830: 00404830
;;   Called from:
;;     00404529 (in fn00404508)
;;     00404540 (in fn00404508)
;;     004047DF (in fn004047A0)
;;     004077D7 (in fn004077C0)
;;     0040878E (in fn00408718)
;;     004087BE (in fn00408718)
fn00404830 proc
	push	ebx
	push	esi
	push	edi
	mov	ebx,eax
	mov	esi,edx
	xor	edi,edi
	test	edx,edx
	jle	00404885

l0040483D:
	mov	eax,[ebx]
	test	eax,eax
	jz	00404866

l00404843:
	cmp	dword ptr [eax-08],01
	jnz	00404866

l00404849:
	sub	eax,08
	add	edx,09
	push	eax
	mov	eax,esp
	call	00402A78
	pop	eax
	add	eax,08
	mov	[ebx],eax
	mov	[eax-04],esi
	mov	byte ptr [esi+eax],00
	jmp	0040488E

l00404866:
	mov	eax,edx
	call	00404304
	mov	edi,eax
	mov	eax,[ebx]
	test	eax,eax
	jz	00404885

l00404875:
	mov	edx,edi
	mov	ecx,[eax-04]
	cmp	ecx,esi
	jl	00404880

l0040487E:
	mov	ecx,esi

l00404880:
	call	00402C1C

l00404885:
	mov	eax,ebx
	call	00404240
	mov	[ebx],edi

l0040488E:
	pop	edi
	pop	esi
	pop	ebx
	ret
00404892       8B C0                                       ..           

;; fn00404894: 00404894
;;   Called from:
;;     00427AB0 (in Win32CrtStartup)
;;     00427AC9 (in Win32CrtStartup)
;;     00427B75 (in Win32CrtStartup)
fn00404894 proc
	push	ebx
	push	esi
	push	ecx
	mov	esi,edx
	mov	ebx,eax
	mov	eax,ebx
	xor	ecx,ecx
	mov	edx,esi
	call	004048B0
	mov	[esp],eax
	mov	eax,[esp]
	pop	edx
	pop	esi
	pop	ebx
	ret

;; fn004048B0: 004048B0
;;   Called from:
;;     004048A1 (in fn00404894)
fn004048B0 proc
	push	ebx
	mov	ebx,edx
	mov	edx,ecx
	xor	ecx,ecx
	test	ebx,ebx
	jz	004048C0

l004048BB:
	mov	ecx,[ebx-04]
	sub	edx,ecx

l004048C0:
	push	ecx
	call	004031AC
	pop	ecx
	mov	edx,ebx
	pop	ebx
	jmp	00403158
004048CF                                              C3                .

l004048D0:
	mov	al,01
	jmp	00402B7C
004048D7                      C3 85 C0 74 10 50 6A 00 E8        ...t.Pj..
004048E0 F0 C9 FF FF 85 C0 0F 84 E4 FF FF FF C3 8D 40 00 ..............@.
004048F0 87 10 85 D2 74 06 52 E8 E8 C9 FF FF C3 8D 40 00 ....t.R.......@.

;; fn00404900: 00404900
;;   Called from:
;;     0040493E (in fn0040493C)
;;     00404949 (in fn0040493C)
;;     00404D13 (in fn00404CAC)
fn00404900 proc
	mov	edx,[eax]
	test	edx,edx
	jz	00404914

l00404906:
	mov	dword ptr [eax],00000000
	push	eax
	push	edx
	call	004012E4
	pop	eax

l00404914:
	ret
00404915                8D 40 00                              .@.       

;; fn00404918: 00404918
;;   Called from:
;;     00404D1C (in fn00404CAC)
fn00404918 proc
	push	ebx
	push	esi
	mov	ebx,eax
	mov	esi,edx

l0040491E:
	mov	eax,[ebx]
	test	eax,eax
	jz	00404930

l00404924:
	mov	dword ptr [ebx],00000000
	push	eax
	call	004012E4

l00404930:
	add	ebx,04
	dec	esi
	jnz	0040491E

l00404936:
	pop	esi
	pop	ebx
	ret
00404939                            8D 40 00                      .@.   

;; fn0040493C: 0040493C
;;   Called from:
;;     00404E3D (in fn00404DBC)
;;     00404F39 (in fn00404ED8)
fn0040493C proc
	test	edx,edx
	jz	00404900

l00404944:
	mov	ecx,[edx-04]
	shr	ecx,01
	jz	00404900

l0040494F:
	push	ecx
	push	edx
	push	eax
	call	004012DC
	test	eax,eax
	jz	004048D0

l0040495F:
	ret
00404960 53 56 57 55 81 C4 04 F0 FF FF 50 83 C4 FC 8B F1 SVWU......P.....
00404970 89 14 24 8B F8 85 F6 7F 09 8B C7 E8 80 FF FF FF ..$.............
00404980 EB 5D 8D 6E 01 81 FD FF 07 00 00 7D 28 56 8D 44 .].n.......}(V.D
00404990 24 08 8B 4C 24 04 BA FF 07 00 00 E8 E0 F9 FF FF $..L$...........
004049A0 8B D8 85 DB 7E 0F 8D 54 24 04 8B C7 8B CB E8 39 ....~..T$......9
004049B0 00 00 00 EB 2A 8B DD 8B C7 8B D3 E8 88 01 00 00 ....*...........
004049C0 56 8B 07 8B 4C 24 04 8B D3 E8 B2 F9 FF FF 8B D8 V...L$..........
004049D0 85 DB 7D 02 33 DB 8B C7 8B D3 E8 69 01 00 00 81 ..}.3......i....
004049E0 C4 04 10 00 00 5D 5F 5E 5B C3 8B C0 85 C9 0F 84 .....]_^[.......
004049F0 0C FF FF FF 50 51 52 E8 D8 C8 FF FF 85 C0 0F 84 ....PQR.........
00404A00 CC FE FF FF 5A FF 32 89 02 E8 D6 C8 FF FF C3 90 ....Z.2.........
00404A10 31 C9 85 D2 74 2D 52 66 3B 0A 74 20 66 3B 4A 02 1...t-Rf;.t f;J.
00404A20 74 17 66 3B 4A 04 74 0E 66 3B 4A 06 74 05 83 C2 t.f;J.t.f;J.t...
00404A30 08 EB E4 83 C2 02 83 C2 02 83 C2 02 89 D1 5A 29 ..............Z)
00404A40 D1 D1 E9 E9 A4 FF FF FF C3 8D 40 00 31 C9 85 D2 ..........@.1...
00404A50 74 03 8B 4A FC E9 06 FF FF FF C3 90 85 C0 74 04 t..J..........t.
00404A60 C3 90 00 00 B8 62 4A 40 00 C3 8B C0 85 C0 74 05 .....bJ@......t.
00404A70 8B 40 FC D1 E8 C3 8B C0 53 56 57 89 C6 89 D7 39 .@......SVW....9
00404A80 D0 74 72 85 F6 74 51 85 FF 74 54 8B 46 FC 8B 57 .tr..tQ..tT.F..W
00404A90 FC 29 D0 77 02 01 C2 52 C1 EA 02 74 26 8B 0E 8B .).w...R...t&...
00404AA0 1F 39 D9 75 41 4A 74 15 8B 4E 04 8B 5F 04 39 D9 .9.uAJt..N.._.9.
00404AB0 75 34 83 C6 08 83 C7 08 4A 75 E2 EB 06 83 C6 04 u4......Ju......
00404AC0 83 C7 04 5A 83 E2 02 74 0B 66 8B 0E 66 8B 1F 66 ...Z...t.f..f..f
00404AD0 39 D9 75 21 01 C0 EB 1D 8B 57 FC 29 D0 EB 16 8B 9.u!.....W.)....
00404AE0 46 FC 29 D0 EB 0F 5A 66 39 D9 75 09 C1 E9 10 C1 F.)...Zf9.u.....
00404AF0 EB 10 66 39 D9 5F 5E 5B C3 8D 40 00 55 8B EC 53 ..f9._^[..@.U..S
00404B00 56 57 8B F9 8B DA 8B F0 8B C6 E8 5D FF FF FF 83 VW.........]....
00404B10 FB 01 7D 04 33 DB EB 07 4B 3B C3 7D 02 8B D8 85 ..}.3...K;.}....
00404B20 FF 7D 04 33 C0 EB 08 2B C3 3B F8 7D 02 8B C7 8B .}.3...+.;.}....
00404B30 D3 03 D2 03 D6 8B 4D 08 91 E8 AE FE FF FF 5F 5E ......M......._^
00404B40 5B 5D C2 04 00 8D 40 00 53 56 51 8B DA 8B F0 33 []....@.SVQ....3
00404B50 C0 89 04 24 85 DB 7E 29 8B C3 E8 79 FD FF FF 89 ...$..~)...y....
00404B60 04 24 8B 06 E8 03 FF FF FF 85 C0 7E 14 3B D8 7D .$.........~.;.}
00404B70 02 8B C3 8B C8 03 C9 8B 14 24 8B 06 E8 9B E0 FF .........$......
00404B80 FF 8B C6 8B 14 24 E8 65 FD FF FF 5A 5E 5B C3 90 .....$.e...Z^[..

;; fn00404B90: 00404B90
;;   Called from:
;;     00404C46 (in fn00404BC0)
;;     004264E0 (in fn004264A0)
fn00404B90 proc
	xor	ecx,ecx
	push	ebx
	mov	cl,[edx+01]
	push	esi
	push	edi
	mov	ebx,eax
	lea	esi,[ecx+edx+0A]
	mov	edi,[ecx+edx+06]

l00404BA2:
	mov	edx,[esi]
	mov	eax,[esi+04]
	add	eax,ebx
	mov	edx,[edx]
	mov	ecx,00000001
	call	00404BC0
	add	esi,08
	dec	edi
	jg	00404BA2

l00404BBB:
	pop	edi
	pop	esi
	pop	ebx
	ret
00404BBF                                              90                .

;; fn00404BC0: 00404BC0
;;   Called from:
;;     00404BB0 (in fn00404B90)
;;     00404C30 (in fn00404BC0)
fn00404BC0 proc
	test	ecx,ecx
	jz	00404C52

l00404BC8:
	push	ebx
	push	esi
	push	edi
	mov	ebx,eax
	mov	esi,edx
	mov	edi,ecx
	xor	edx,edx
	mov	al,[esi]
	mov	dl,[esi+01]
	xor	ecx,ecx
	cmp	al,0A
	jz	00404C00

l00404BDE:
	cmp	al,0B
	jz	00404C00

l00404BE2:
	cmp	al,0C
	jz	00404C0A

l00404BE6:
	cmp	al,0D
	jz	00404C1D

l00404BEA:
	cmp	al,0E
	jz	00404C3B

l00404BEE:
	cmp	al,0F
	jz	00404C00

l00404BF2:
	cmp	al,11
	jz	00404C00

l00404BF6:
	mov	al,02
	pop	edi
	pop	esi
	pop	ebx
	jmp	00402B7C

l00404C00:
	mov	[ebx],ecx
	add	ebx,04
	dec	edi
	jg	00404C00

l00404C08:
	jmp	00404C4F

l00404C0A:
	mov	[ebx],ecx
	mov	[ebx+04],ecx
	mov	[ebx+08],ecx
	mov	[ebx+0C],ecx
	add	ebx,10
	dec	edi
	jg	00404C0A

l00404C1B:
	jmp	00404C4F

l00404C1D:
	push	ebp
	mov	ebp,edx

l00404C20:
	mov	edx,[esi+ebp+0A]
	mov	eax,ebx
	add	ebx,[esi+ebp+02]
	mov	ecx,[esi+ebp+06]
	mov	edx,[edx]
	call	00404BC0
	dec	edi
	jg	00404C20

l00404C38:
	pop	ebp
	jmp	00404C4F

l00404C3B:
	push	ebp
	mov	ebp,edx

l00404C3E:
	mov	eax,ebx
	add	ebx,[esi+ebp+02]
	mov	edx,esi
	call	00404B90
	dec	edi
	jg	00404C3E

l00404C4E:
	pop	ebp

l00404C4F:
	pop	edi
	pop	esi
	pop	ebx

l00404C52:
	ret
00404C53          90 B9 01 00 00 00 E9 62 FF FF FF C3 90    .......b.....

;; fn00404C60: 00404C60
;;   Called from:
;;     00404D5B (in fn00404CAC)
fn00404C60 proc
	xor	ecx,ecx
	push	ebx
	mov	cl,[edx+01]
	push	esi
	push	edi
	mov	ebx,eax
	lea	esi,[ecx+edx+0A]
	mov	edi,[ecx+edx+06]

l00404C72:
	mov	edx,[esi]
	mov	eax,[esi+04]
	add	eax,ebx
	mov	edx,[edx]
	mov	ecx,00000001
	call	00404CAC
	add	esi,08
	dec	edi
	jg	00404C72

l00404C8B:
	mov	eax,ebx
	pop	edi
	pop	esi
	pop	ebx
	ret
00404C91    8D 40 00                                      .@.           

;; fn00404C94: 00404C94
;;   Called from:
;;     00404D28 (in fn00404CAC)
fn00404C94 proc
	cmp	dword ptr [0042800C],00
	jz	00404CA4

l00404C9D:
	call	dword ptr [0042800C]
	ret

l00404CA4:
	mov	al,10
	call	00402B7C
	ret

;; fn00404CAC: 00404CAC
;;   Called from:
;;     00404C80 (in fn00404C60)
;;     00404D45 (in fn00404CAC)
;;     004052B4 (in fn004052B4)
;;     004054A7 (in fn0040547C)
fn00404CAC proc
	cmp	ecx,00
	jz	00404D95

l00404CB5:
	push	eax
	push	ebx
	push	esi
	push	edi
	mov	ebx,eax
	mov	esi,edx
	mov	edi,ecx
	xor	edx,edx
	mov	al,[esi]
	mov	dl,[esi+01]
	cmp	al,0A
	jz	00404CEF

l00404CCA:
	cmp	al,0B
	jz	00404D0C

l00404CCE:
	cmp	al,0C
	jz	00404D23

l00404CD2:
	cmp	al,0D
	jz	00404D32

l00404CD6:
	cmp	al,0E
	jz	00404D50

l00404CDA:
	cmp	al,0F
	jz	00404D66

l00404CE2:
	cmp	al,11
	jz	00404D75

l00404CEA:
	jmp	00404D86

l00404CEF:
	cmp	ecx,01
	mov	eax,ebx
	jg	00404D00

l00404CF6:
	call	00404240
	jmp	00404D91

l00404D00:
	mov	edx,ecx
	call	00404264
	jmp	00404D91

l00404D0C:
	cmp	ecx,01
	mov	eax,ebx
	jg	00404D1A

l00404D13:
	call	00404900
	jmp	00404D91

l00404D1A:
	mov	edx,ecx
	call	00404918
	jmp	00404D91

l00404D23:
	mov	eax,ebx
	add	ebx,10
	call	00404C94
	dec	edi
	jg	00404D23

l00404D30:
	jmp	00404D91

l00404D32:
	push	ebp
	mov	ebp,edx

l00404D35:
	mov	edx,[esi+ebp+0A]
	mov	eax,ebx
	add	ebx,[esi+ebp+02]
	mov	ecx,[esi+ebp+06]
	mov	edx,[edx]
	call	00404CAC
	dec	edi
	jg	00404D35

l00404D4D:
	pop	ebp
	jmp	00404D91

l00404D50:
	push	ebp
	mov	ebp,edx

l00404D53:
	mov	eax,ebx
	add	ebx,[esi+ebp+02]
	mov	edx,esi
	call	00404C60
	dec	edi
	jg	00404D53

l00404D63:
	pop	ebp
	jmp	00404D91

l00404D66:
	mov	eax,ebx
	add	ebx,04
	call	00405BC8
	dec	edi
	jg	00404D66

l00404D73:
	jmp	00404D91

l00404D75:
	mov	eax,ebx
	mov	edx,esi
	add	ebx,04
	call	0040547C
	dec	edi
	jg	00404D75

l00404D84:
	jmp	00404D91

l00404D86:
	pop	edi
	pop	esi
	pop	ebx
	pop	eax
	mov	al,02
	jmp	00402B7C

l00404D91:
	pop	edi
	pop	esi
	pop	ebx
	pop	eax

l00404D95:
	ret
00404D96                   8B C0 B9 01 00 00 00 E9 0A FF       ..........
00404DA0 FF FF C3 90                                     ....           

;; fn00404DA4: 00404DA4
;;   Called from:
;;     00404E4E (in fn00404DBC)
;;     00404F4D (in fn00404ED8)
fn00404DA4 proc
	cmp	dword ptr [00428014],00
	jz	00404DB4

l00404DAD:
	call	dword ptr [00428014]
	ret

l00404DB4:
	mov	al,10
	call	00402B7C
	ret

;; fn00404DBC: 00404DBC
;;   Called from:
;;     00404E8B (in fn00404DBC)
;;     00404F84 (in fn00404ED8)
fn00404DBC proc
	push	ebx
	push	esi
	push	edi
	push	ebp
	mov	ebx,eax
	mov	esi,edx
	xor	eax,eax
	mov	al,[ecx+01]
	lea	edi,[eax+ecx+0A]
	mov	ebp,[edi-04]
	xor	eax,eax
	mov	ecx,[edi-08]
	push	ecx

l00404DD6:
	mov	ecx,[edi+04]
	sub	ecx,eax
	jle	00404DE8

l00404DDD:
	mov	edx,eax
	add	eax,esi
	add	edx,ebx
	call	00402C1C

l00404DE8:
	mov	eax,[edi+04]
	mov	edx,[edi]
	mov	edx,[edx]
	mov	cl,[edx]
	cmp	cl,0A
	jz	00404E27

l00404DF6:
	cmp	cl,0B
	jz	00404E38

l00404DFB:
	cmp	cl,0C
	jz	00404E49

l00404E00:
	cmp	cl,0D
	jz	00404E5A

l00404E05:
	cmp	cl,0E
	jz	00404E7A

l00404E0A:
	cmp	cl,0F
	jz	00404E93

l00404E13:
	cmp	cl,11
	jz	00404EA4

l00404E1C:
	mov	al,02
	pop	ebp
	pop	edi
	pop	esi
	pop	ebx
	jmp	00402B7C

l00404E27:
	mov	edx,[eax+esi]
	add	eax,ebx
	call	00404294
	mov	eax,00000004
	jmp	00404EB5

l00404E38:
	mov	edx,[eax+esi]
	add	eax,ebx
	call	0040493C
	mov	eax,00000004
	jmp	00404EB5

l00404E49:
	lea	edx,[eax+esi]
	add	eax,ebx
	call	00404DA4
	mov	eax,00000010
	jmp	00404EB5

l00404E5A:
	xor	ecx,ecx
	mov	cl,[edx+01]
	push	dword ptr [ecx+edx+02]
	push	dword ptr [ecx+edx+06]
	mov	ecx,[ecx+edx+0A]
	mov	ecx,[ecx]
	lea	edx,[eax+esi]
	add	eax,ebx
	call	00404ED8
	pop	eax
	jmp	00404EB5

l00404E7A:
	xor	ecx,ecx
	mov	cl,[edx+01]
	mov	ecx,[ecx+edx+02]
	push	ecx
	mov	ecx,edx
	lea	edx,[eax+esi]
	add	eax,ebx
	call	00404DBC
	pop	eax
	jmp	00404EB5

l00404E93:
	mov	edx,[eax+esi]
	add	eax,ebx
	call	00405BE0
	mov	eax,00000004
	jmp	00404EB5

l00404EA4:
	mov	ecx,edx
	mov	edx,[eax+esi]
	add	eax,ebx
	call	004054B8
	mov	eax,00000004

l00404EB5:
	add	eax,[edi+04]
	add	edi,08
	dec	ebp
	jnz	00404DD6

l00404EC2:
	pop	ecx
	sub	ecx,eax
	jle	00404ED1

l00404EC7:
	lea	edx,[eax+ebx]
	add	eax,esi
	call	00402C1C

l00404ED1:
	pop	ebp
	pop	edi
	pop	esi
	pop	ebx
	ret
00404ED6                   8B C0                               ..       

;; fn00404ED8: 00404ED8
;;   Called from:
;;     00404E72 (in fn00404DBC)
;;     00404F70 (in fn00404ED8)
;;     004052AA (in fn004052A4)
fn00404ED8 proc
	push	ebx
	push	esi
	push	edi
	push	ebp
	mov	ebx,eax
	mov	esi,edx
	mov	edi,ecx
	mov	ebp,[esp+14]
	mov	cl,[edi]
	cmp	cl,0A
	jz	00404F1E

l00404EED:
	cmp	cl,0B
	jz	00404F35

l00404EF2:
	cmp	cl,0C
	jz	00404F49

l00404EF7:
	cmp	cl,0D
	jz	00404F5D

l00404EFC:
	cmp	cl,0E
	jz	00404F7E

l00404F01:
	cmp	cl,0F
	jz	00404F9B

l00404F0A:
	cmp	cl,11
	jz	00404FAF

l00404F13:
	mov	al,02
	pop	ebp
	pop	edi
	pop	esi
	pop	ebx
	jmp	00402B7C

l00404F1E:
	mov	eax,ebx
	mov	edx,[esi]
	call	00404294
	add	ebx,04
	add	esi,04
	dec	ebp
	jnz	00404F1E

l00404F30:
	jmp	00404FC3

l00404F35:
	mov	eax,ebx
	mov	edx,[esi]
	call	0040493C
	add	ebx,04
	add	esi,04
	dec	ebp
	jnz	00404F35

l00404F47:
	jmp	00404FC3

l00404F49:
	mov	eax,ebx
	mov	edx,esi
	call	00404DA4
	add	ebx,10
	add	esi,10
	dec	ebp
	jnz	00404F49

l00404F5B:
	jmp	00404FC3

l00404F5D:
	xor	ecx,ecx
	mov	cl,[edi+01]
	lea	edi,[ecx+edi+02]

l00404F66:
	mov	eax,ebx
	mov	edx,esi
	mov	ecx,[edi+08]
	push	dword ptr [edi+04]
	call	00404ED8
	add	ebx,[edi]
	add	esi,[edi]
	dec	ebp
	jnz	00404F66

l00404F7C:
	jmp	00404FC3

l00404F7E:
	mov	eax,ebx
	mov	edx,esi
	mov	ecx,edi
	call	00404DBC
	xor	eax,eax
	mov	al,[edi+01]
	add	ebx,[eax+edi+02]
	add	esi,[eax+edi+02]
	dec	ebp
	jnz	00404F7E

l00404F99:
	jmp	00404FC3

l00404F9B:
	mov	eax,ebx
	mov	edx,[esi]
	call	00405BE0
	add	ebx,04
	add	esi,04
	dec	ebp
	jnz	00404F9B

l00404FAD:
	jmp	00404FC3

l00404FAF:
	mov	eax,ebx
	mov	edx,[esi]
	mov	ecx,edi
	call	004054B8
	add	ebx,04
	add	esi,04
	dec	ebp
	jnz	00404FAF

l00404FC3:
	pop	ebp
	pop	edi
	pop	esi
	pop	ebx
	ret	0004
00404FCA                               C3 90 52 E8 56 DA           ..R.V.
00404FD0 FF FF 5A 85 C0 74 07 50 E8 77 FC FF FF 58 C3 90 ..Z..t.P.w...X..
00404FE0 50 E8 B2 FD FF FF 58 E8 6C DA FF FF C3 8D 40 00 P.....X.l.....@.
00404FF0 91 87 CA E8 A4 F3 FF FF C3 8D 40 00 53 56 51 8B ..........@.SVQ.
00405000 F2 8B D8 89 1C 24 8B 04 24 E8 5E FA FF FF 8B D0 .....$..$.^.....
00405010 8B CE 8B C3 E8 D7 FF FF FF 5A 5E 5B C3 8D 40 00 .........Z^[..@.
00405020 53 51 8B D8 33 C0 89 04 24 8B C3 E8 D0 F4 FF FF SQ..3...$.......
00405030 8B C8 8B C4 8B D3 E8 25 F9 FF FF 8B 04 24 5A 5B .......%.....$Z[
00405040 C3 8D 40 00 B0 11 E9 31 DB FF FF C3 52 50 8B 44 ..@....1....RP.D
00405050 24 10 F7 24 24 89 C1 8B 44 24 04 F7 64 24 0C 01 $..$$...D$..d$..
00405060 C1 8B 04 24 F7 64 24 0C 01 CA 59 59 C2 08 00 C3 ...$.d$...YY....
00405070 53 56 57 55 83 C4 EC 89 14 24 8B F0 BD 01 00 00 SVWU.....$......
00405080 00 33 FF C7 44 24 08 00 00 00 00 C7 44 24 0C 00 .3..D$......D$..
00405090 00 00 00 85 F6 75 0B 8B 04 24 89 28 E9 E1 01 00 .....u...$.(....
004050A0 00 45 80 7C 2E FF 20 74 F8 C6 44 24 10 00 8A 44 .E.|.. t..D$...D
004050B0 2E FF 3C 2D 75 08 C6 44 24 10 01 45 EB 05 3C 2B ..<-u..D$..E..<+
004050C0 75 01 45 B3 01 80 7C 2E FF 24 74 28 8A 44 2E FF u.E...|..$t(.D..
004050D0 E8 87 DB FF FF 3C 58 74 1B 80 7C 2E FF 30 0F 85 .....<Xt..|..0..
004050E0 D4 00 00 00 8A 04 2E E8 70 DB FF FF 3C 58 0F 85 ........p...<X..
004050F0 C4 00 00 00 80 7C 2E FF 30 75 01 45 45 8A 4C 2E .....|..0u.EE.L.
00405100 FF 8B C1 04 D0 2C 0A 72 0E 04 F9 2C 06 72 15 04 .....,.r...,.r..
00405110 E6 2C 06 72 1C EB 7A 8B F9 81 E7 FF 00 00 00 83 .,.r..z.........
00405120 EF 30 EB 18 8B F9 81 E7 FF 00 00 00 83 EF 37 EB .0............7.
00405130 0B 8B F9 81 E7 FF 00 00 00 83 EF 57 83 7C 24 0C ...........W.|$.
00405140 00 75 09 83 7C 24 08 00 72 47 EB 02 7C 43 81 7C .u..|$..rG..|C.|
00405150 24 0C FF FF FF 0F 75 09 83 7C 24 08 FF 76 04 EB $.....u..|$..v..
00405160 30 7F 2E 8B C7 99 52 50 8B 44 24 10 8B 54 24 14 0.....RP.D$..T$.
00405170 0F A4 C2 04 C1 E0 04 03 04 24 13 54 24 04 83 C4 .........$.T$...
00405180 08 89 44 24 08 89 54 24 0C 45 33 DB E9 6C FF FF ..D$..T$.E3..l..
00405190 FF 80 7C 24 10 00 0F 84 CC 00 00 00 8B 44 24 08 ..|$.........D$.
004051A0 8B 54 24 0C F7 D8 83 D2 00 F7 DA 89 44 24 08 89 .T$.........D$..
004051B0 54 24 0C E9 B0 00 00 00 8A 44 2E FF 04 D0 2C 0A T$.......D....,.
004051C0 73 5F 0F B6 7C 2E FF 83 EF 30 83 7C 24 0C 00 75 s_..|....0.|$..u
004051D0 09 83 7C 24 08 00 72 49 EB 02 7C 45 81 7C 24 0C ..|$..rI..|E.|$.
004051E0 CC CC CC 0C 75 0C 81 7C 24 08 CC CC CC CC 76 04 ....u..|$.....v.
004051F0 EB 2F 7F 2D 6A 00 6A 0A 8B 44 24 10 8B 54 24 14 ./.-j.j..D$..T$.
00405200 E8 47 FE FF FF 52 50 8B C7 99 03 04 24 13 54 24 .G...RP.....$.T$
00405210 04 83 C4 08 89 44 24 08 89 54 24 0C 45 33 DB EB .....D$..T$.E3..
00405220 97 80 7C 24 10 00 74 17 8B 44 24 08 8B 54 24 0C ..|$..t..D$..T$.
00405230 F7 D8 83 D2 00 F7 DA 89 44 24 08 89 54 24 0C 83 ........D$..T$..
00405240 7C 24 0C 00 75 05 83 7C 24 08 00 74 1B 83 7C 24 |$..u..|$..t..|$
00405250 0C 00 75 0A 83 7C 24 08 00 0F 92 C0 EB 03 0F 9C ..u..|$.........
00405260 C0 3A 44 24 10 74 01 4D 80 7C 2E FF 00 0F 95 C0 .:D$.t.M.|......
00405270 0A D8 74 07 8B 04 24 89 28 EB 07 8B 04 24 33 D2 ..t...$.(....$3.
00405280 89 10 8B 44 24 08 8B 54 24 0C 83 C4 14 5D 5F 5E ...D$..T$....]_^
00405290 5B C3 8B C0                                     [...           

;; fn00405294: 00405294
;;   Called from:
;;     0040529C (in fn0040529C)
;;     004270E0 (in fn00426C30)
;;     00427405 (in fn0042718C)
;;     00427747 (in fn00427488)
fn00405294 proc
	test	eax,eax
	jz	0040529B

l00405298:
	mov	eax,[eax-04]

l0040529B:
	ret

;; fn0040529C: 0040529C
;;   Called from:
;;     00426DB0 (in fn00426C30)
;;     00426E7D (in fn00426C30)
;;     0042728E (in fn0042718C)
;;     00427358 (in fn0042718C)
;;     004275CF (in fn00427488)
;;     0042769A (in fn00427488)
fn0040529C proc
	call	00405294
	dec	eax
	ret
004052A3          90                                        .           

;; fn004052A4: 004052A4
;;   Called from:
;;     004053E6 (in fn004052C4)
fn004052A4 proc
	push	ebp
	mov	ebp,esp
	push	dword ptr [ebp+08]
	call	00404ED8
	pop	ebp
	ret	0004
004052B3          90                                        .           

;; fn004052B4: 004052B4
;;   Called from:
;;     00405388 (in fn004052C4)
fn004052B4 proc
	jmp	00404CAC
004052B9                            C3 8B C0                      ...   

;; fn004052BC: 004052BC
;;   Called from:
;;     004052F8 (in fn004052C4)
fn004052BC proc
	call	0040547C
	ret
004052C2       8B C0                                       ..           

;; fn004052C4: 004052C4
;;   Called from:
;;     00405454 (in fn004052C4)
;;     00405475 (in fn00405470)
fn004052C4 proc
	push	ebp
	mov	ebp,esp
	add	esp,E4
	push	ebx
	push	esi
	push	edi
	mov	[ebp-0C],ecx
	mov	[ebp-08],edx
	mov	[ebp-04],eax
	mov	eax,[ebp-04]
	mov	eax,[eax]
	mov	[ebp-18],eax
	mov	eax,[ebp+08]
	mov	ebx,[eax]
	test	ebx,ebx
	jg	00405302

l004052E7:
	test	ebx,ebx
	jge	004052F2

l004052EB:
	mov	al,04
	call	00402B7C

l004052F2:
	mov	eax,[ebp-04]
	mov	edx,[ebp-08]
	call	004052BC
	jmp	00405465

l00405302:
	xor	edi,edi
	cmp	dword ptr [ebp-18],00
	jz	00405317

l0040530A:
	sub	dword ptr [ebp-18],04
	mov	eax,[ebp-18]
	mov	edi,[eax]
	sub	dword ptr [ebp-18],04

l00405317:
	mov	eax,[ebp-08]
	movzx	eax,byte ptr [eax+01]
	add	[ebp-08],eax
	mov	eax,[ebp-08]
	mov	esi,[eax+02]
	mov	edx,[eax+06]
	test	edx,edx
	jz	00405335

l0040532E:
	mov	eax,[edx]
	mov	[ebp-08],eax
	jmp	0040533A

l00405335:
	xor	eax,eax
	mov	[ebp-08],eax

l0040533A:
	mov	eax,ebx
	imul	esi
	mov	[ebp-14],eax
	mov	eax,[ebp-14]
	cdq
	idiv	ebx
	cmp	esi,eax
	jz	00405352

l0040534B:
	mov	al,04
	call	00402B7C

l00405352:
	add	dword ptr [ebp-14],08
	cmp	dword ptr [ebp-18],00
	jz	00405364

l0040535C:
	mov	eax,[ebp-18]
	cmp	dword ptr [eax],01
	jnz	004053A0

l00405364:
	mov	eax,[ebp-18]
	mov	[ebp-1C],eax
	cmp	edi,ebx
	jle	0040538D

l0040536E:
	cmp	dword ptr [ebp-08],00
	jz	0040538D

l00405374:
	mov	eax,[ebp-18]
	add	eax,08
	mov	edx,ebx
	imul	edx,esi
	add	eax,edx
	mov	ecx,edi
	sub	ecx,ebx
	mov	edx,[ebp-08]
	call	004052B4

l0040538D:
	lea	eax,[ebp-1C]
	mov	edx,[ebp-14]
	call	00402A78
	mov	eax,[ebp-1C]
	mov	[ebp-18],eax
	jmp	00405403

l004053A0:
	mov	eax,[ebp-18]
	dec	dword ptr [eax]
	mov	eax,[ebp-14]
	call	00402A28
	mov	[ebp-18],eax
	mov	[ebp-10],edi
	cmp	ebx,[ebp-10]
	jge	004053BB

l004053B8:
	mov	[ebp-10],ebx

l004053BB:
	cmp	dword ptr [ebp-08],00
	jz	004053ED

l004053C1:
	mov	edx,[ebp-10]
	imul	edx,esi
	mov	eax,[ebp-18]
	add	eax,08
	xor	ecx,ecx
	call	00403020
	mov	eax,[ebp-10]
	push	eax
	mov	edx,[ebp-04]
	mov	edx,[edx]
	mov	eax,[ebp-18]
	add	eax,08
	mov	ecx,[ebp-08]
	call	004052A4
	jmp	00405403

l004053ED:
	mov	ecx,[ebp-10]
	imul	ecx,esi
	mov	edx,[ebp-18]
	add	edx,08
	mov	eax,[ebp-04]
	mov	eax,[eax]
	call	00402C1C

l00405403:
	mov	eax,[ebp-18]
	mov	dword ptr [eax],00000001
	add	dword ptr [ebp-18],04
	mov	eax,[ebp-18]
	mov	[eax],ebx
	add	dword ptr [ebp-18],04
	mov	edx,ebx
	sub	edx,edi
	imul	edx,esi
	mov	eax,esi
	imul	eax,edi
	add	eax,[ebp-18]
	xor	ecx,ecx
	call	00403020
	cmp	dword ptr [ebp-0C],01
	jle	0040545D

l00405435:
	add	dword ptr [ebp+08],04
	dec	dword ptr [ebp-0C]
	dec	ebx
	test	ebx,ebx
	jl	0040545D

l00405441:
	inc	ebx
	xor	esi,esi

l00405444:
	mov	eax,[ebp+08]
	push	eax
	mov	eax,[ebp-18]
	lea	eax,[eax+esi*4]
	mov	ecx,[ebp-0C]
	mov	edx,[ebp-08]
	call	004052C4
	inc	esi
	dec	ebx
	jnz	00405444

l0040545D:
	mov	eax,[ebp-04]
	mov	edx,[ebp-18]
	mov	[eax],edx

l00405465:
	pop	edi
	pop	esi
	pop	ebx
	mov	esp,ebp
	pop	ebp
	ret	0004
0040546E                                           8B C0               ..

;; fn00405470: 00405470
;;   Called from:
;;     00426DA5 (in fn00426C30)
;;     00426F0F (in fn00426C30)
;;     004270F9 (in fn00426C30)
;;     00427283 (in fn0042718C)
;;     004273DC (in fn0042718C)
;;     0042741E (in fn0042718C)
;;     004275C4 (in fn00427488)
;;     0042771E (in fn00427488)
;;     00427760 (in fn00427488)
fn00405470 proc
	push	esp
	add	dword ptr [esp],04
	call	004052C4
	ret
0040547B                                  90                        .   

;; fn0040547C: 0040547C
;;   Called from:
;;     00404D7C (in fn00404CAC)
;;     004052BC (in fn004052BC)
;;     004054D4 (in fn004054B8)
;;     00427137 (in fn00426C30)
;;     0042744C (in fn0042718C)
;;     0042778E (in fn00427488)
fn0040547C proc
	mov	ecx,[eax]
	test	ecx,ecx
	jz	004054B5

l00405482:
	mov	dword ptr [eax],00000000
	lock
	dec	dword ptr [ecx-08]
	jnz	004054B5

l0040548E:
	push	eax
	mov	eax,ecx
	xor	ecx,ecx
	mov	cl,[edx+01]
	mov	edx,[ecx+edx+06]
	test	edx,edx
	jz	004054AC

l0040549E:
	mov	ecx,[eax-04]
	test	ecx,ecx
	jz	004054AC

l004054A5:
	mov	edx,[edx]
	call	00404CAC

l004054AC:
	sub	eax,08
	call	00402A58
	pop	eax

l004054B5:
	ret
004054B6                   8B C0                               ..       

;; fn004054B8: 004054B8
;;   Called from:
;;     00404EAB (in fn00404DBC)
;;     00404FB5 (in fn00404ED8)
fn004054B8 proc
	push	ebx
	mov	ebx,[eax]
	test	edx,edx
	jz	004054C3

l004054BF:
	lock
	inc	dword ptr [edx-08]

l004054C3:
	test	ebx,ebx
	jz	004054DB

l004054C7:
	lock
	dec	dword ptr [ebx-08]
	jnz	004054DB

l004054CD:
	push	eax
	push	edx
	mov	edx,ecx
	inc	dword ptr [ebx-08]
	call	0040547C
	pop	edx
	pop	eax

l004054DB:
	mov	[eax],edx
	pop	ebx
	ret
004054DF                                              90                .
004054E0 83 C4 E4 6A 1C 8D 54 24 04 52 50 E8 DC BD FF FF ...j..T$.RP.....
004054F0 81 7C 24 10 00 10 00 00 75 06 8B 44 24 04 EB 02 .|$.....u..D$...
00405500 33 C0 83 C4 1C C3 8B C0                         3.......       

;; fn00405508: 00405508
;;   Called from:
;;     0040557B (in fn00405550)
fn00405508 proc
	push	ebx
	push	esi
	add	esp,FFFFFEF8
	mov	ebx,eax
	cmp	dword ptr [ebx+10],00
	jnz	00405543

l00405518:
	push	00000105
	lea	eax,[esp+04]
	push	eax
	mov	eax,[ebx+04]
	push	eax
	call	0040125C
	mov	eax,esp
	mov	dl,01
	call	0040579C
	mov	esi,eax
	mov	[ebx+10],esi
	test	esi,esi
	jnz	00405543

l0040553D:
	mov	eax,[ebx+04]
	mov	[ebx+10],eax

l00405543:
	mov	eax,[ebx+10]
	add	esp,00000108
	pop	esi
	pop	ebx
	ret
0040554F                                              90                .

;; fn00405550: 00405550
;;   Called from:
;;     0040607C (in fn00406050)
fn00405550 proc
	push	ebx
	push	esi
	push	edi
	push	ecx
	mov	ebx,eax
	mov	esi,esp
	mov	eax,[00428038]
	mov	[esi],eax
	cmp	dword ptr [esi],00
	jz	0040558F

l00405564:
	mov	eax,[esi]
	cmp	ebx,[eax+04]
	jz	00405579

l0040556B:
	mov	eax,[esi]
	cmp	ebx,[eax+08]
	jz	00405579

l00405572:
	mov	eax,[esi]
	cmp	ebx,[eax+0C]
	jnz	00405584

l00405579:
	mov	eax,[esi]
	call	00405508
	mov	edi,eax
	jmp	00405591

l00405584:
	mov	eax,[esi]
	mov	eax,[eax]
	mov	[esi],eax
	cmp	dword ptr [esi],00
	jnz	00405564

l0040558F:
	mov	edi,ebx

l00405591:
	mov	eax,edi
	pop	edx
	pop	edi
	pop	esi
	pop	ebx
	ret

;; fn00405598: 00405598
;;   Called from:
;;     0040564B (in fn004055C4)
;;     00405663 (in fn004055C4)
;;     004056A5 (in fn004055C4)
fn00405598 proc
	push	ebp
	mov	ebp,esp
	push	ecx
	push	ebx
	push	esi
	lea	esi,[ebp-04]
	mov	[esi],eax
	jmp	004055AF

l004055A5:
	mov	eax,[esi]
	push	eax
	call	00401214
	mov	[esi],eax

l004055AF:
	mov	eax,[esi]
	mov	bl,[eax]
	test	bl,bl
	jz	004055BC

l004055B7:
	cmp	bl,5C
	jnz	004055A5

l004055BC:
	mov	eax,[esi]
	pop	esi
	pop	ebx
	pop	ecx
	pop	ebp
	ret
004055C3          90                                        .           

;; fn004055C4: 004055C4
;;   Called from:
;;     0040583E (in fn0040579C)
fn004055C4 proc
	push	ebp
	mov	ebp,esp
	add	esp,FFFFFDA4
	push	ebx
	push	esi
	push	edi
	mov	[ebp-08],edx
	mov	[ebp-04],eax
	mov	eax,[ebp-04]
	mov	[ebp-0C],eax
	push	00405778
	call	00401264
	mov	esi,eax
	test	esi,esi
	jz	00405630

l004055EC:
	push	00405788
	push	esi
	call	0040126C
	mov	[ebp-18],eax
	cmp	dword ptr [ebp-18],00
	jz	00405630

l00405600:
	push	00000105
	lea	eax,[ebp-0000025B]
	push	eax
	mov	eax,[ebp-04]
	push	eax
	call	dword ptr [ebp-18]
	test	eax,eax
	jz	00405630

l00405617:
	mov	eax,[ebp-08]
	push	eax
	lea	eax,[ebp-0000025B]
	push	eax
	mov	eax,[ebp-04]
	push	eax
	call	00401294
	jmp	0040576C

l00405630:
	mov	eax,[ebp-04]
	cmp	byte ptr [eax],5C
	jnz	00405679

l00405638:
	mov	eax,[ebp-04]
	cmp	byte ptr [eax+01],5C
	jnz	0040576C

l00405645:
	mov	eax,[ebp-04]
	add	eax,02
	call	00405598
	mov	[ebp-10],eax
	mov	eax,[ebp-10]
	cmp	byte ptr [eax],00
	jz	0040576C

l0040565F:
	mov	eax,[ebp-10]
	inc	eax
	call	00405598
	mov	[ebp-10],eax
	mov	eax,[ebp-10]
	cmp	byte ptr [eax],00
	jz	0040576C

l00405677:
	jmp	00405682

l00405679:
	mov	eax,[ebp-04]
	add	eax,02
	mov	[ebp-10],eax

l00405682:
	mov	ebx,[ebp-10]
	sub	ebx,[ebp-04]
	lea	eax,[ebx+01]
	push	eax
	mov	eax,[ebp-04]
	push	eax
	lea	eax,[ebp-0000025B]
	push	eax
	call	00401294
	jmp	0040574C

l004056A1:
	mov	eax,[ebp-10]
	inc	eax
	call	00405598
	mov	[ebp-14],eax
	mov	edi,[ebp-14]
	sub	edi,[ebp-10]
	mov	eax,edi
	add	eax,ebx
	inc	eax
	cmp	eax,00000105
	jg	0040576C

l004056C3:
	inc	edi
	push	edi
	mov	eax,[ebp-10]
	push	eax
	lea	eax,[ebp-0000025B]
	add	eax,ebx
	push	eax
	call	00401294
	lea	eax,[ebp-00000156]
	push	eax
	lea	eax,[ebp-0000025B]
	push	eax
	call	00401234
	mov	esi,eax
	cmp	esi,FF
	jz	0040576C

l004056F1:
	push	esi
	call	0040122C
	lea	eax,[ebp-0000012A]
	push	eax
	call	0040129C
	lea	edx,[ebx+01]
	add	eax,edx
	inc	eax
	cmp	eax,00000105
	jg	0040576C

l00405710:
	mov	byte ptr [ebp+ebx-0000025B],5C
	mov	eax,00000105
	sub	eax,ebx
	dec	eax
	push	eax
	lea	eax,[ebp-0000012A]
	push	eax
	lea	eax,[ebp-0000025B]
	add	eax,ebx
	inc	eax
	push	eax
	call	00401294
	lea	eax,[ebp-0000012A]
	push	eax
	call	0040129C
	inc	eax
	add	ebx,eax
	mov	eax,[ebp-14]
	mov	[ebp-10],eax

l0040574C:
	mov	eax,[ebp-10]
	cmp	byte ptr [eax],00
	jnz	004056A1

l00405758:
	mov	eax,[ebp-08]
	push	eax
	lea	eax,[ebp-0000025B]
	push	eax
	mov	eax,[ebp-04]
	push	eax
	call	00401294

l0040576C:
	mov	eax,[ebp-0C]
	pop	edi
	pop	esi
	pop	ebx
	mov	esp,ebp
	pop	ebp
	ret
00405776                   00 00 6B 65 72 6E 65 6C 33 32       ..kernel32
00405780 2E 64 6C 6C 00 00 00 00 47 65 74 4C 6F 6E 67 50 .dll....GetLongP
00405790 61 74 68 4E 61 6D 65 41 00 00 00 00             athNameA....   

;; fn0040579C: 0040579C
;;   Called from:
;;     0040552F (in fn00405508)
fn0040579C proc
	push	ebp
	mov	ebp,esp
	add	esp,FFFFFEDC
	push	ebx
	mov	[ebp-04],eax
	push	00000105
	lea	eax,[ebp-00000121]
	push	eax
	push	00
	call	0040125C
	mov	byte ptr [ebp-12],00
	lea	eax,[ebp-08]
	push	eax
	push	000F0019
	push	00
	push	004059E0
	push	80000001
	call	004012B4
	test	eax,eax
	jz	0040581E

l004057DE:
	lea	eax,[ebp-08]
	push	eax
	push	000F0019
	push	00
	push	004059E0
	push	80000002
	call	004012B4
	test	eax,eax
	jz	0040581E

l004057FC:
	lea	eax,[ebp-08]
	push	eax
	push	000F0019
	push	00
	push	004059FC
	push	80000001
	call	004012B4
	test	eax,eax
	jnz	004058A7

l0040581E:
	xor	eax,eax
	push	ebp
	push	004058A0
	push	dword ptr fs:[eax]
	mov	fs:[eax],esp
	mov	dword ptr [ebp-18],00000005
	lea	eax,[ebp-00000121]
	mov	edx,00000105
	call	004055C4
	lea	eax,[ebp-18]
	push	eax
	lea	eax,[ebp-12]
	push	eax
	push	00
	push	00
	lea	eax,[ebp-00000121]
	push	eax
	mov	eax,[ebp-08]
	push	eax
	call	004012BC
	test	eax,eax
	jz	00405885

l00405863:
	lea	eax,[ebp-18]
	push	eax
	lea	eax,[ebp-12]
	push	eax
	push	00
	push	00
	push	00405A1C
	mov	eax,[ebp-08]
	push	eax
	call	004012BC
	test	eax,eax
	jz	00405885

l00405881:
	mov	byte ptr [ebp-12],00

l00405885:
	mov	byte ptr [ebp-0E],00
	xor	eax,eax
	pop	edx
	pop	ecx
	pop	ecx
	mov	fs:[eax],edx
	push	004058A7
	mov	eax,[ebp-08]
	push	eax
	call	004012AC
	ret
004058A0 E9 7F E3 FF FF EB EF                            .......        

l004058A7:
	push	00000105
	mov	eax,[ebp-04]
	push	eax
	lea	eax,[ebp-00000121]
	push	eax
	call	00401294
	push	05
	lea	eax,[ebp-0D]
	push	eax
	push	03
	call	0040127C
	push	eax
	call	00401254
	xor	ebx,ebx
	cmp	byte ptr [ebp-00000121],00
	jz	004059D7

l004058DE:
	cmp	byte ptr [ebp-0D],00
	jnz	004058EE

l004058E4:
	cmp	byte ptr [ebp-12],00
	jz	004059D7

l004058EE:
	lea	eax,[ebp-00000121]
	push	eax
	call	0040129C
	lea	edx,[ebp-00000121]
	add	eax,edx
	mov	[ebp-1C],eax
	jmp	0040590A

l00405907:
	dec	dword ptr [ebp-1C]

l0040590A:
	mov	eax,[ebp-1C]
	cmp	byte ptr [eax],2E
	jz	0040591D

l00405912:
	lea	eax,[ebp-00000121]
	cmp	eax,[ebp-1C]
	jnz	00405907

l0040591D:
	lea	eax,[ebp-00000121]
	cmp	eax,[ebp-1C]
	jz	004059D7

l0040592C:
	inc	dword ptr [ebp-1C]
	cmp	byte ptr [ebp-12],00
	jz	00405961

l00405935:
	mov	edx,[ebp-1C]
	sub	edx,eax
	mov	eax,00000105
	sub	eax,edx
	push	eax
	lea	eax,[ebp-12]
	push	eax
	mov	eax,[ebp-1C]
	push	eax
	call	00401294
	push	02
	push	00
	lea	eax,[ebp-00000121]
	push	eax
	call	00401284
	mov	ebx,eax

l00405961:
	test	ebx,ebx
	jnz	004059D7

l00405965:
	cmp	byte ptr [ebp-0D],00
	jz	004059D7

l0040596B:
	lea	eax,[ebp-00000121]
	mov	edx,[ebp-1C]
	sub	edx,eax
	mov	eax,00000105
	sub	eax,edx
	push	eax
	lea	eax,[ebp-0D]
	push	eax
	mov	eax,[ebp-1C]
	push	eax
	call	00401294
	push	02
	push	00
	lea	eax,[ebp-00000121]
	push	eax
	call	00401284
	mov	ebx,eax
	test	ebx,ebx
	jnz	004059D7

l004059A1:
	mov	byte ptr [ebp-0B],00
	lea	eax,[ebp-00000121]
	mov	edx,[ebp-1C]
	sub	edx,eax
	mov	eax,00000105
	sub	eax,edx
	push	eax
	lea	eax,[ebp-0D]
	push	eax
	mov	eax,[ebp-1C]
	push	eax
	call	00401294
	push	02
	push	00
	lea	eax,[ebp-00000121]
	push	eax
	call	00401284
	mov	ebx,eax

l004059D7:
	mov	eax,ebx
	pop	ebx
	mov	esp,ebp
	pop	ebp
	ret
004059DE                                           00 00               ..
004059E0 53 6F 66 74 77 61 72 65 5C 42 6F 72 6C 61 6E 64 Software\Borland
004059F0 5C 4C 6F 63 61 6C 65 73 00 00 00 00 53 6F 66 74 \Locales....Soft
00405A00 77 61 72 65 5C 42 6F 72 6C 61 6E 64 5C 44 65 6C ware\Borland\Del
00405A10 70 68 69 5C 4C 6F 63 61 6C 65 73 00 00 00 00 00 phi\Locales.....
00405A20 E8 0B 00 00 00 C3 8B C0 E8 23 00 00 00 C3 8B C0 .........#......
00405A30 53 8B D8 B8 08 00 00 00 E8 EB CF FF FF 8B 15 3C S..............<
00405A40 80 42 00 89 10 89 58 04 A3 3C 80 42 00 5B C3 90 .B....X..<.B.[..
00405A50 53 56 57 83 C4 F8 8B F0 8D 7C 24 04 A1 3C 80 42 SVW......|$..<.B
00405A60 00 89 04 24 83 3C 24 00 74 25 8B 04 24 8B 40 04 ...$.<$.t%..$.@.
00405A70 3B C6 75 1B A1 3C 80 42 00 8B 00 A3 3C 80 42 00 ;.u..<.B....<.B.
00405A80 BA 08 00 00 00 8B 04 24 E8 CB CF FF FF EB 40 8B .......$......@.
00405A90 04 24 89 07 83 3F 00 74 36 8B 07 8B 18 85 DB 74 .$...?.t6......t
00405AA0 23 8B 43 04 3B C6 75 1C 89 1C 24 8B 07 8B 00 8B #.C.;.u...$.....
00405AB0 00 8B 17 89 02 BA 08 00 00 00 8B 04 24 E8 96 CF ............$...
00405AC0 FF FF EB 0B 8B 07 8B 00 89 07 83 3F 00 75 CA 59 ...........?.u.Y
00405AD0 5A 5F 5E 5B C3 8D 40 00                         Z_^[..@.       

;; fn00405AD8: 00405AD8
;;   Called from:
;;     00405B61 (in fn00405B44)
fn00405AD8 proc
	push	ebp
	mov	ebp,esp
	add	esp,F8
	push	ebx
	push	esi
	push	edi
	mov	[ebp-04],eax
	mov	eax,[0042803C]
	mov	[ebp-08],eax
	cmp	dword ptr [ebp-08],00
	jz	00405B2B

l00405AF2:
	xor	eax,eax
	push	ebp
	push	00405B13
	push	dword ptr fs:[eax]
	mov	fs:[eax],esp
	mov	ebx,[ebp-08]
	mov	eax,[ebp-04]
	call	dword ptr [ebx+04]
	xor	eax,eax
	pop	edx
	pop	ecx
	pop	ecx
	mov	fs:[eax],edx
	jmp	00405B1D
00405B13          E9 E0 DF FF FF E8 BB E1 FF FF             ..........  

l00405B1D:
	mov	eax,[ebp-08]
	mov	eax,[eax]
	mov	[ebp-08],eax
	cmp	dword ptr [ebp-08],00
	jnz	00405AF2

l00405B2B:
	pop	edi
	pop	esi
	pop	ebx
	pop	ecx
	pop	ecx
	pop	ebp
	ret
00405B32       8B C0                                       ..           

;; fn00405B34: 00405B34
;;   Called from:
;;     00406301 (in fn004062FC)
fn00405B34 proc
	mov	edx,[00428038]
	mov	[eax],edx
	mov	[00428038],eax
	ret
00405B42       8B C0                                       ..           

;; fn00405B44: 00405B44
;;   Called from:
;;     004041BE (in fn00404148)
fn00405B44 proc
	push	ebp
	mov	ebp,esp
	add	esp,F8
	mov	[ebp-04],eax
	xor	eax,eax
	push	ebp
	push	00405BBD
	push	dword ptr fs:[eax]
	mov	fs:[eax],esp
	mov	eax,[ebp-04]
	mov	eax,[eax+04]
	call	00405AD8
	xor	eax,eax
	pop	edx
	pop	ecx
	pop	ecx
	mov	fs:[eax],edx
	push	00405BC4
	mov	eax,[ebp-04]
	cmp	eax,[00428038]
	jnz	00405B8A

l00405B7E:
	mov	eax,[ebp-04]
	mov	eax,[eax]
	mov	[00428038],eax
	jmp	00405BBC

l00405B8A:
	mov	eax,[00428038]
	mov	[ebp-08],eax
	cmp	dword ptr [ebp-08],00
	jz	00405BBC

l00405B98:
	mov	eax,[ebp-08]
	mov	eax,[eax]
	cmp	eax,[ebp-04]
	jnz	00405BAE

l00405BA2:
	mov	eax,[ebp-04]
	mov	eax,[eax]
	mov	edx,[ebp-08]
	mov	[edx],eax
	jmp	00405BBC

l00405BAE:
	mov	eax,[ebp-08]
	mov	eax,[eax]
	mov	[ebp-08],eax
	cmp	dword ptr [ebp-08],00
	jnz	00405B98

l00405BBC:
	ret
00405BBD                                        E9 62 E0              .b.
00405BC0 FF FF EB AF 59 59 5D C3                         ....YY].       

;; fn00405BC8: 00405BC8
;;   Called from:
;;     00404D6B (in fn00404CAC)
fn00405BC8 proc
	mov	edx,[eax]
	test	edx,edx
	jz	00405BDC

l00405BCE:
	mov	dword ptr [eax],00000000
	push	eax
	push	edx
	mov	eax,[edx]
	call	dword ptr [eax+08]
	pop	eax

l00405BDC:
	ret
00405BDD                                        8D 40 00              .@.

;; fn00405BE0: 00405BE0
;;   Called from:
;;     00404E98 (in fn00404DBC)
;;     00404F9F (in fn00404ED8)
fn00405BE0 proc
	test	edx,edx
	jz	00405BFD

l00405BE4:
	push	edx
	push	eax
	mov	eax,[edx]
	push	edx
	call	dword ptr [eax+04]
	pop	eax
	mov	ecx,[eax]
	pop	dword ptr [eax]
	test	ecx,ecx
	jnz	00405BF6

l00405BF5:
	ret

l00405BF6:
	mov	eax,[ecx]
	push	ecx
	call	dword ptr [eax+08]
	ret

l00405BFD:
	mov	ecx,[eax]
	test	ecx,ecx
	mov	[eax],edx
	jz	00405C0B

l00405C05:
	mov	eax,[ecx]
	push	ecx
	call	dword ptr [eax+08]

l00405C0B:
	ret
00405C0C                                     83 C0 04 50             ...P
00405C10 E8 DF B6 FF FF C3 8B C0 83 78 04 00 74 07 B0 02 .........x..t...
00405C20 E8 57 CF FF FF C3 8B C0 E8 8B DA FF FF C7 40 04 .W............@.
00405C30 01 00 00 00 C3 8D 40 00 55 8B EC 53 8B 5D 08 8B ......@.U..S.]..
00405C40 4D 10 8B 55 0C 8B C3 E8 88 DB FF FF 84 C0 74 04 M..U..........t.
00405C50 33 C0 EB 05 B8 02 40 00 80 5B 5D C2 0C 00 8B C0 3.....@..[].....
00405C60 55 8B EC 8B 45 08 83 C0 04 50 E8 7D B6 FF FF 5D U...E....P.}...]
00405C70 C2 04 00 90 55 8B EC 53 56 8B 5D 08 8D 43 04 50 ....U..SV.]..C.P
00405C80 E8 6F B6 FF FF 8B F0 85 F6 75 09 B2 01 8B C3 8B .o.......u......
00405C90 08 FF 51 FC 8B C6 5E 5B 5D C2 04 00 55 8B EC 83 ..Q...^[]...U...
00405CA0 C4 F8 53 56 89 4D F8 89 55 FC 33 D2 83 7D F8 00 ..SV.M..U.3..}..
00405CB0 0F 84 B8 00 00 00 33 F6 33 C9 85 C0 0F 84 87 00 ......3.3.......
00405CC0 00 00 EB 6C 8B 55 F8 0F B7 14 4A 41 83 FA 7F 77 ...l.U....JA...w
00405CD0 06 88 14 30 46 EB 59 81 FA FF 07 00 00 76 31 8D ...0F.Y......v1.
00405CE0 5E 03 3B 5D FC 77 53 8B DA C1 EB 0C 80 CB E0 88 ^.;].wS.........
00405CF0 1C 30 8B DA C1 EB 06 80 E3 3F 80 CB 80 88 5C 30 .0.......?....\0
00405D00 01 80 E2 3F 80 CA 80 88 54 30 02 83 C6 03 EB 20 ...?....T0..... 
00405D10 8D 5E 02 3B 5D FC 77 22 8B DA C1 EB 06 80 CB C0 .^.;].w"........
00405D20 88 1C 30 80 E2 3F 80 CA 80 88 54 30 01 83 C6 02 ..0..?....T0....
00405D30 3B 4D 08 73 05 3B 75 FC 72 8A 3B 75 FC 72 04 8B ;M.s.;u.r.;u.r..
00405D40 75 FC 4E C6 04 30 00 EB 22 3B 4D 08 73 1D 8B 45 u.N..0..";M.s..E
00405D50 F8 0F B7 14 48 41 83 FA 7F 76 0A 81 FA FF 07 00 ....HA...v......
00405D60 00 76 01 46 46 46 3B 4D 08 72 E3 8D 56 01 8B C2 .v.FFF;M.r..V...
00405D70 5E 5B 59 59 5D C2 04 00 55 8B EC 83 C4 F0 53 56 ^[YY]...U.....SV
00405D80 89 4D F4 89 55 F8 89 45 FC 83 7D F4 00 75 0A 33 .M..U..E..}..u.3
00405D90 C0 89 45 F0 E9 09 01 00 00 C7 45 F0 FF FF FF FF ..E.......E.....
00405DA0 33 C0 33 F6 83 7D FC 00 0F 84 A9 00 00 00 E9 82 3.3..}..........
00405DB0 00 00 00 8B 55 F4 33 C9 8A 0C 32 46 F6 C1 80 74 ....U.3...2F...t
00405DC0 6C 3B 75 08 0F 83 D8 00 00 00 83 E1 3F F6 C1 20 l;u.........?.. 
00405DD0 74 2E 8B 55 F4 8A 14 32 46 8B DA 80 E3 C0 80 FB t..U...2F.......
00405DE0 80 0F 85 BB 00 00 00 3B 75 08 0F 83 B2 00 00 00 .......;u.......
00405DF0 80 E2 3F 81 E2 FF 00 00 00 C1 E1 06 0B D1 8B CA ..?.............
00405E00 8B 55 F4 8A 14 32 46 8B DA 80 E3 C0 80 FB 80 0F .U...2F.........
00405E10 85 8D 00 00 00 80 E2 3F 81 E2 FF 00 00 00 C1 E1 .......?........
00405E20 06 66 0B D1 8B 4D FC 66 89 14 41 EB 07 8B 55 FC .f...M.f..A...U.
00405E30 66 89 0C 42 40 3B 75 08 73 09 3B 45 F8 0F 82 70 f..B@;u.s.;E...p
00405E40 FF FF FF 3B 45 F8 72 04 8B 45 F8 48 8B 55 FC 66 ...;E.r..E.H.U.f
00405E50 C7 04 42 00 00 EB 47 3B 75 08 73 42 8B 55 F4 8A ..B...G;u.sB.U..
00405E60 14 32 46 F6 C2 80 74 30 3B 75 08 73 35 80 E2 3F .2F...t0;u.s5..?
00405E70 F6 C2 20 74 14 8B 55 F4 8A 14 32 46 80 E2 C0 80 .. t..U...2F....
00405E80 FA 80 75 1E 3B 75 08 73 19 8B 55 F4 8A 14 32 46 ..u.;u.s..U...2F
00405E90 80 E2 C0 80 FA 80 75 0A 40 3B 75 08 72 BE 40 89 ......u.@;u.r.@.
00405EA0 45 F0 8B 45 F0 5E 5B 8B E5 5D C2 04 00 8D 40 00 E..E.^[..]....@.
00405EB0 55 8B EC 6A 00 53 56 8B F2 8B D8 33 C0 55 68 4F U..j.SV....3.UhO
00405EC0 5F 40 00 64 FF 30 64 89 20 8B C6 E8 70 E3 FF FF _@.d.0d. ...p...
00405ED0 8B C3 33 D2 E8 9F EB FF FF 74 5E 8B C3 E8 8A EB ..3......t^.....
00405EE0 FF FF 8D 14 40 8D 45 FC E8 43 E9 FF FF 8B C3 E8 ....@.E..C......
00405EF0 78 EB FF FF 50 8B 45 FC E8 03 E6 FF FF 40 50 8B x...P.E......@P.
00405F00 C3 E8 56 EB FF FF 50 8B 45 FC E8 F1 E7 FF FF 59 ..V...P.E......Y
00405F10 5A E8 86 FD FF FF 85 C0 7E 0D 8B D0 4A 8D 45 FC Z.......~...J.E.
00405F20 E8 0B E9 FF FF EB 08 8D 45 FC E8 11 E3 FF FF 8B ........E.......
00405F30 C6 8B 55 FC E8 5B E3 FF FF 33 C0 5A 59 59 64 89 ..U..[...3.ZYYd.
00405F40 10 68 56 5F 40 00 8D 45 FC E8 F2 E2 FF FF C3 E9 .hV_@..E........
00405F50 D0 DC FF FF EB F0 5E 5B 59 5D C3 90 55 8B EC 6A ......^[Y]..U..j
00405F60 00 53 56 8B F2 8B D8 33 C0 55 68 F3 5F 40 00 64 .SV....3.Uh._@.d
00405F70 FF 30 64 89 20 8B C6 E8 84 E9 FF FF 85 DB 74 5D .0d. .........t]
00405F80 8B C3 E8 79 E5 FF FF 8B D0 8D 45 FC E8 B7 EB FF ...y......E.....
00405F90 FF 8B C3 E8 68 E5 FF FF 50 8B 45 FC E8 CB EA FF ....h...P.E.....
00405FA0 FF 40 50 8B C3 E8 56 E7 FF FF 50 8B 45 FC E8 A9 .@P...V...P.E...
00405FB0 EA FF FF 59 5A E8 BE FD FF FF 85 C0 7E 0D 8B D0 ...YZ.......~...
00405FC0 4A 8D 45 FC E8 7F EB FF FF EB 08 8D 45 FC E8 2D J.E.........E..-
00405FD0 E9 FF FF 8B C6 8B 55 FC E8 5F E9 FF FF 33 C0 5A ......U.._...3.Z
00405FE0 59 59 64 89 10 68 FA 5F 40 00 8D 45 FC E8 0E E9 YYd..h._@..E....
00405FF0 FF FF C3 E9 2C DC FF FF EB F0 5E 5B 59 5D C3 90 ....,.....^[Y]..
00406000 55 8B EC 6A 00 53 56 8B F2 8B D8 33 C0 55 68 43 U..j.SV....3.UhC
00406010 60 40 00 64 FF 30 64 89 20 8D 45 FC 8B D3 E8 29 `@.d.0d. .E....)
00406020 EA FF FF 8B 45 FC 8B D6 E8 83 FE FF FF 33 C0 5A ....E........3.Z
00406030 59 59 64 89 10 68 4A 60 40 00 8D 45 FC E8 BE E8 YYd..hJ`@..E....
00406040 FF FF C3 E9 DC DB FF FF EB F0 5E 5B 59 5D C3 90 ..........^[Y]..

;; fn00406050: 00406050
;;   Called from:
;;     0040B0DE (in fn0040B0C4)
;;     0040B133 (in fn0040B100)
;;     00414312 (in fn004142F4)
;;     004195BB (in fn004195A0)
fn00406050 proc
	push	ebx
	push	esi
	add	esp,FFFFF004
	push	eax
	mov	esi,edx
	mov	ebx,eax
	test	ebx,ebx
	jz	0040609E

l00406061:
	cmp	dword ptr [ebx+04],00010000
	jge	00406094

l0040606A:
	push	00001000
	lea	eax,[esp+04]
	push	eax
	mov	eax,[ebx+04]
	push	eax
	mov	eax,[ebx]
	mov	eax,[eax]
	call	00405550
	push	eax
	call	0040128C
	mov	ecx,eax
	mov	edx,esp
	mov	eax,esi
	call	00404330
	jmp	0040609E

l00406094:
	mov	eax,esi
	mov	edx,[ebx+04]
	call	00404438

l0040609E:
	add	esp,00001000
	pop	esi
	pop	ebx
	ret
004060A7                      90 55 8B EC 83 C4 F0 53 33        .U.....S3
004060B0 D2 89 55 F0 33 D2 55 68 0E 61 40 00 64 FF 32 64 ..U.3.Uh.a@.d.2d
004060C0 89 22 6A 07 8D 55 F5 52 68 04 10 00 00 50 E8 81 ."j..U.Rh....P..
004060D0 B1 FF FF 8D 45 F0 8D 55 F5 B9 07 00 00 00 E8 CD ....E..U........
004060E0 E3 FF FF 8B 45 F0 8D 55 FC E8 52 CF FF FF 8B D8 ....E..U..R.....
004060F0 83 7D FC 00 74 02 33 DB 33 C0 5A 59 59 64 89 10 .}..t.3.3.ZYYd..
00406100 68 15 61 40 00 8D 45 F0 E8 33 E1 FF FF C3 E9 11 h.a@..E..3......
00406110 DB FF FF EB F0 8B C3 5B 8B E5 5D C3 55 8B EC 33 .......[..].U..3
00406120 C0 55 68 66 61 40 00 64 FF 30 64 89 20 FF 05 BC .Uhfa@.d.0d. ...
00406130 B5 42 00 75 23 B8 50 B0 42 00 E8 6D CE FF FF B8 .B.u#.P.B..m....
00406140 1C B2 42 00 E8 63 CE FF FF B8 E8 B3 42 00 E8 59 ..B..c......B..Y
00406150 CE FF FF E8 F8 BA FF FF 33 C0 5A 59 59 64 89 10 ........3.ZYYd..
00406160 68 6D 61 40 00 C3 E9 B9 DA FF FF EB F8 5D C3 90 hma@.........]..
00406170 83 2D BC B5 42 00 01 0F 83 C5 00 00 00 C6 05 08 .-..B...........
00406180 80 42 00 02 C7 05 14 B0 42 00 DC 11 40 00 C7 05 .B......B...@...
00406190 18 B0 42 00 EC 11 40 00 C6 05 4E B0 42 00 02 C7 ..B...@...N.B...
004061A0 05 00 B0 42 00 44 50 40 00 E8 D6 D3 FF FF 84 C0 ...B.DP@........
004061B0 74 05 E8 FD D3 FF FF E8 BC D4 FF FF 66 C7 05 54 t...........f..T
004061C0 B0 42 00 B0 D7 66 C7 05 20 B2 42 00 B0 D7 66 C7 .B...f.. .B...f.
004061D0 05 EC B3 42 00 B0 D7 E8 68 B0 FF FF A3 40 B0 42 ...B....h....@.B
004061E0 00 E8 26 B1 FF FF A3 3C B0 42 00 E8 14 B1 FF FF ..&....<.B......
004061F0 25 00 00 00 80 3D 00 00 00 80 74 2D E8 03 B1 FF %....=....t-....
00406200 FF 25 FF 00 00 00 66 83 F8 04 76 0C C7 05 C0 B5 .%....f...v.....
00406210 42 00 03 00 00 00 EB 20 E8 5F B0 FF FF E8 86 FE B...... ._......
00406220 FF FF A3 C0 B5 42 00 EB 0F E8 4E B0 FF FF E8 75 .....B....N....u
00406230 FE FF FF A3 C0 B5 42 00 E8 BF B0 FF FF A3 34 B0 ......B.......4.
00406240 42 00 C3 90 FF 25 18 E2 42 00 8B C0 FF 25 14 E2 B....%..B....%..
00406250 42 00 8B C0 FF 25 10 E2 42 00 8B C0 FF 25 0C E2 B....%..B....%..
00406260 42 00 8B C0                                     B...           

;; fn00406264: 00406264
;;   Called from:
;;     00406299 (in fn00406278)
fn00406264 proc
	push	eax
	push	40
	call	0040624C
	ret
0040626D                                        8D 40 00              .@.

;; fn00406270: 00406270
;;   Called from:
;;     00406279 (in fn00406278)
fn00406270 proc
	mov	eax,0000000C
	ret
00406276                   8B C0                               ..       

;; fn00406278: 00406278
;;   Called from:
;;     004062D6 (in fn004062BC)
fn00406278 proc
	push	ebx
	call	00406270
	mov	ebx,eax
	test	ebx,ebx
	jz	004062BA

l00406284:
	cmp	dword ptr [004280A0],FF
	jnz	00406297

l0040628D:
	mov	eax,000000E2
	call	00404234

l00406297:
	mov	eax,ebx
	call	00406264
	test	eax,eax
	jnz	004062AE

l004062A2:
	mov	eax,000000E2
	call	00404234
	jmp	004062BA

l004062AE:
	push	eax
	mov	eax,[004280A0]
	push	eax
	call	0040625C

l004062BA:
	pop	ebx
	ret

;; fn004062BC: 004062BC
;;   Called from:
;;     00402B50 (in fn00402B30)
;;     00402B8B (in fn00402B88)
;;     00402BAB (in fn00402BA8)
;;     004031C7 (in fn004031AC)
fn004062BC proc
	mov	cl,[0042B664]
	mov	eax,[004280A0]
	test	cl,cl
	jnz	004062F1

l004062CB:
	mov	edx,fs:[0000002C]
	mov	eax,[edx+eax*4]
	ret

l004062D6:
	call	00406278
	mov	eax,[004280A0]
	push	eax
	call	00406254
	test	eax,eax
	jz	004062EB

l004062EA:
	ret

l004062EB:
	mov	eax,[0042B670]
	ret

l004062F1:
	push	eax
	call	00406254
	test	eax,eax
	jz	004062D6

l004062FB:
	ret

;; fn004062FC: 004062FC
;;   Called from:
;;     00406336 (in fn00406308)
fn004062FC proc
	mov	eax,004280A4
	call	00405B34
	ret
00406307                      90                                .       

;; fn00406308: 00406308
;;   Called from:
;;     00427A4F (in Win32CrtStartup)
fn00406308 proc
	push	ebx
	mov	ebx,eax
	xor	eax,eax
	mov	[004280A0],eax
	push	00
	call	00406244
	mov	[0042B668],eax
	mov	eax,[0042B668]
	mov	[004280A8],eax
	xor	eax,eax
	mov	[004280AC],eax
	xor	eax,eax
	mov	[004280B0],eax
	call	004062FC
	mov	edx,004280A4
	mov	eax,ebx
	call	00403F88
	pop	ebx
	ret
00406349                            8D 40 00 55 8B EC 33          .@.U..3
00406350 C0 55 68 71 63 40 00 64 FF 30 64 89 20 FF 05 6C .Uhqc@.d.0d. ..l
00406360 B6 42 00 33 C0 5A 59 59 64 89 10 68 78 63 40 00 .B.3.ZYYd..hxc@.
00406370 C3 E9 AE D8 FF FF EB F8 5D C3 8B C0 83 2D 6C B6 ........]....-l.
00406380 42 00 01 C3                                     B...           

;; fn00406384: 00406384
;;   Called from:
;;     00413CEA (in fn00413CD0)
fn00406384 proc
	push	ebp
	mov	ebp,esp
	push	ebx
	mov	ebx,[ebp+08]
	mov	[ebx],eax
	mov	[ebx+04],edx
	mov	eax,[ebp+0C]
	mov	[ebx+0C],eax
	mov	[ebx+08],ecx
	pop	ebx
	pop	ebp
	ret	0008
0040639E                                           8B C0               ..
004063A0 55 8B EC 33 C0 55 68 C5 63 40 00 64 FF 30 64 89 U..3.Uh.c@.d.0d.
004063B0 20 FF 05 74 B6 42 00 33 C0 5A 59 59 64 89 10 68  ..t.B.3.ZYYd..h
004063C0 CC 63 40 00 C3 E9 5A D8 FF FF EB F8 5D C3 8B C0 .c@...Z.....]...
004063D0 83 2D 74 B6 42 00 01 C3 FF 25 04 E3 42 00 8B C0 .-t.B....%..B...
004063E0 FF 25 00 E3 42 00 8B C0 FF 25 00 E3 42 00 8B C0 .%..B....%..B...
004063F0 FF 25 FC E2 42 00 8B C0 FF 25 F8 E2 42 00 8B C0 .%..B....%..B...
00406400 FF 25 F4 E2 42 00 8B C0 FF 25 F0 E2 42 00 8B C0 .%..B....%..B...
00406410 FF 25 EC E2 42 00 8B C0 FF 25 E8 E2 42 00 8B C0 .%..B....%..B...
00406420 FF 25 E4 E2 42 00 8B C0 FF 25 E0 E2 42 00 8B C0 .%..B....%..B...
00406430 FF 25 DC E2 42 00 8B C0 FF 25 D8 E2 42 00 8B C0 .%..B....%..B...
00406440 FF 25 D4 E2 42 00 8B C0 FF 25 D0 E2 42 00 8B C0 .%..B....%..B...
00406450 FF 25 CC E2 42 00 8B C0 FF 25 C8 E2 42 00 8B C0 .%..B....%..B...
00406460 FF 25 C4 E2 42 00 8B C0 FF 25 C0 E2 42 00 8B C0 .%..B....%..B...
00406470 FF 25 BC E2 42 00 8B C0 FF 25 B8 E2 42 00 8B C0 .%..B....%..B...
00406480 FF 25 B4 E2 42 00 8B C0 FF 25 B0 E2 42 00 8B C0 .%..B....%..B...
00406490 FF 25 AC E2 42 00 8B C0 FF 25 A8 E2 42 00 8B C0 .%..B....%..B...
004064A0 FF 25 A4 E2 42 00 8B C0 FF 25 A0 E2 42 00 8B C0 .%..B....%..B...
004064B0 FF 25 9C E2 42 00 8B C0 FF 25 98 E2 42 00 8B C0 .%..B....%..B...
004064C0 FF 25 94 E2 42 00 8B C0 FF 25 90 E2 42 00 8B C0 .%..B....%..B...
004064D0 FF 25 8C E2 42 00 8B C0 FF 25 88 E2 42 00 8B C0 .%..B....%..B...
004064E0 FF 25 88 E2 42 00 8B C0 FF 25 84 E2 42 00 8B C0 .%..B....%..B...
004064F0 FF 25 80 E2 42 00 8B C0 FF 25 7C E2 42 00 8B C0 .%..B....%|.B...
00406500 FF 25 78 E2 42 00 8B C0 FF 25 74 E2 42 00 8B C0 .%x.B....%t.B...
00406510 FF 25 70 E2 42 00 8B C0 FF 25 6C E2 42 00 8B C0 .%p.B....%l.B...
00406520 FF 25 68 E2 42 00 8B C0 FF 25 64 E2 42 00 8B C0 .%h.B....%d.B...
00406530 FF 25 60 E2 42 00 8B C0 FF 25 5C E2 42 00 8B C0 .%`.B....%\.B...
00406540 FF 25 58 E2 42 00 8B C0 FF 25 54 E2 42 00 8B C0 .%X.B....%T.B...
00406550 FF 25 50 E2 42 00 8B C0 FF 25 4C E2 42 00 8B C0 .%P.B....%L.B...
00406560 FF 25 48 E2 42 00 8B C0 FF 25 44 E2 42 00 8B C0 .%H.B....%D.B...
00406570 FF 25 40 E2 42 00 8B C0 FF 25 3C E2 42 00 8B C0 .%@.B....%<.B...
00406580 FF 25 38 E2 42 00 8B C0 FF 25 34 E2 42 00 8B C0 .%8.B....%4.B...
00406590 FF 25 30 E2 42 00 8B C0 FF 25 2C E2 42 00 8B C0 .%0.B....%,.B...
004065A0 FF 25 28 E2 42 00 8B C0 FF 25 24 E2 42 00 8B C0 .%(.B....%$.B...
004065B0 FF 25 20 E2 42 00 8B C0 FF 25 14 E3 42 00 8B C0 .% .B....%..B...
004065C0 FF 25 10 E3 42 00 8B C0 FF 25 0C E3 42 00 8B C0 .%..B....%..B...
004065D0 FF 25 B8 E3 42 00 8B C0 FF 25 B4 E3 42 00 8B C0 .%..B....%..B...
004065E0 FF 25 B0 E3 42 00 8B C0 FF 25 AC E3 42 00 8B C0 .%..B....%..B...
004065F0 FF 25 A8 E3 42 00 8B C0 FF 25 A4 E3 42 00 8B C0 .%..B....%..B...
00406600 FF 25 A0 E3 42 00 8B C0 FF 25 9C E3 42 00 8B C0 .%..B....%..B...
00406610 FF 25 98 E3 42 00 8B C0 FF 25 94 E3 42 00 8B C0 .%..B....%..B...
00406620 FF 25 90 E3 42 00 8B C0 FF 25 8C E3 42 00 8B C0 .%..B....%..B...
00406630 FF 25 88 E3 42 00 8B C0 FF 25 84 E3 42 00 8B C0 .%..B....%..B...
00406640 FF 25 80 E3 42 00 8B C0 FF 25 7C E3 42 00 8B C0 .%..B....%|.B...
00406650 FF 25 78 E3 42 00 8B C0 FF 25 74 E3 42 00 8B C0 .%x.B....%t.B...
00406660 FF 25 70 E3 42 00 8B C0 FF 25 6C E3 42 00 8B C0 .%p.B....%l.B...
00406670 FF 25 68 E3 42 00 8B C0 FF 25 64 E3 42 00 8B C0 .%h.B....%d.B...
00406680 FF 25 60 E3 42 00 8B C0 FF 25 5C E3 42 00 8B C0 .%`.B....%\.B...
00406690 FF 25 58 E3 42 00 8B C0 FF 25 54 E3 42 00 8B C0 .%X.B....%T.B...
004066A0 FF 25 50 E3 42 00 8B C0 FF 25 4C E3 42 00 8B C0 .%P.B....%L.B...
004066B0 FF 25 48 E3 42 00 8B C0 FF 25 44 E3 42 00 8B C0 .%H.B....%D.B...
004066C0 FF 25 40 E3 42 00 8B C0 FF 25 3C E3 42 00 8B C0 .%@.B....%<.B...
004066D0 FF 25 38 E3 42 00 8B C0 FF 25 34 E3 42 00 8B C0 .%8.B....%4.B...
004066E0 FF 25 30 E3 42 00 8B C0 FF 25 2C E3 42 00 8B C0 .%0.B....%,.B...
004066F0 FF 25 28 E3 42 00 8B C0 FF 25 24 E3 42 00 8B C0 .%(.B....%$.B...
00406700 FF 25 20 E3 42 00 8B C0 FF 25 1C E3 42 00 8B C0 .% .B....%..B...
00406710 FF 25 E4 E3 42 00 8B C0 FF 25 E4 E3 42 00 8B C0 .%..B....%..B...
00406720 FF 25 E0 E3 42 00 8B C0 FF 25 EC E3 42 00 8B C0 .%..B....%..B...
00406730 FF 25 E8 E3 42 00 8B C0 FF 25 E8 E3 42 00 8B C0 .%..B....%..B...
00406740 FF 25 DC E3 42 00 8B C0 FF 25 D8 E3 42 00 8B C0 .%..B....%..B...
00406750 FF 25 D4 E3 42 00 8B C0 FF 25 D0 E3 42 00 8B C0 .%..B....%..B...
00406760 FF 25 CC E3 42 00 8B C0 FF 25 C8 E3 42 00 8B C0 .%..B....%..B...
00406770 FF 25 C4 E3 42 00 8B C0 FF 25 C0 E3 42 00 8B C0 .%..B....%..B...
00406780 52 50 E8 79 FD FF FF 50 E8 83 FD FF FF C3 8B C0 RP.y...P........
00406790 51 52 50 E8 80 FD FF FF 50 50 E8 89 FD FF FF E8 QRP.....PP......
004067A0 7C FD FF FF 50 E8 66 FD FF FF C3 90 50 E8 66 FD |...P.f.....P.f.
004067B0 FF FF 50 50 E8 6F FD FF FF E8 4A FD FF FF C3 90 ..PP.o....J.....
004067C0 C1 E2 08 81 E2 00 00 00 FF 0B C2 C3 55 8B EC 33 ............U..3
004067D0 C0 55 68 F1 67 40 00 64 FF 30 64 89 20 FF 05 78 .Uh.g@.d.0d. ..x
004067E0 B6 42 00 33 C0 5A 59 59 64 89 10 68 F8 67 40 00 .B.3.ZYYd..h.g@.
004067F0 C3 E9 2E D4 FF FF EB F8 5D C3 8B C0 83 2D 78 B6 ........]....-x.
00406800 42 00 01 C3 55 8B EC 33 C0 55 68 29 68 40 00 64 B...U..3.Uh)h@.d
00406810 FF 30 64 89 20 FF 05 7C B6 42 00 33 C0 5A 59 59 .0d. ..|.B.3.ZYY
00406820 64 89 10 68 30 68 40 00 C3 E9 F6 D3 FF FF EB F8 d..h0h@.........
00406830 5D C3 8B C0 83 2D 7C B6 42 00 01 C3 68 B6 42 00 ]....-|.B...h.B.
00406840 F0 FF 00 00 68 B6 42 00 F1 FF 00 00 68 B6 42 00 ....h.B.....h.B.
00406850 F2 FF 00 00 68 B6 42 00 F3 FF 00 00 68 B6 42 00 ....h.B.....h.B.
00406860 F4 FF 00 00 68 B6 42 00 F5 FF 00 00 68 B6 42 00 ....h.B.....h.B.
00406870 F6 FF 00 00 68 B6 42 00 F7 FF 00 00 68 B6 42 00 ....h.B.....h.B.
00406880 F8 FF 00 00 68 B6 42 00 F9 FF 00 00 68 B6 42 00 ....h.B.....h.B.
00406890 FA FF 00 00 68 B6 42 00 FB FF 00 00 68 B6 42 00 ....h.B.....h.B.
004068A0 FC FF 00 00 68 B6 42 00 FD FF 00 00 68 B6 42 00 ....h.B.....h.B.
004068B0 FE FF 00 00 68 B6 42 00 FF FF 00 00 68 B6 42 00 ....h.B.....h.B.
004068C0 E0 FF 00 00 68 B6 42 00 E1 FF 00 00 68 B6 42 00 ....h.B.....h.B.
004068D0 E2 FF 00 00 68 B6 42 00 E3 FF 00 00 68 B6 42 00 ....h.B.....h.B.
004068E0 E4 FF 00 00 68 B6 42 00 E5 FF 00 00 68 B6 42 00 ....h.B.....h.B.
004068F0 E6 FF 00 00 68 B6 42 00 E7 FF 00 00 68 B6 42 00 ....h.B.....h.B.
00406900 E8 FF 00 00 68 B6 42 00 E9 FF 00 00 68 B6 42 00 ....h.B.....h.B.
00406910 EA FF 00 00 68 B6 42 00 EB FF 00 00 68 B6 42 00 ....h.B.....h.B.
00406920 EC FF 00 00 68 B6 42 00 ED FF 00 00 68 B6 42 00 ....h.B.....h.B.
00406930 EE FF 00 00 68 B6 42 00 EF FF 00 00 68 B6 42 00 ....h.B.....h.B.
00406940 D0 FF 00 00 68 B6 42 00 D1 FF 00 00 68 B6 42 00 ....h.B.....h.B.
00406950 D2 FF 00 00 68 B6 42 00 D3 FF 00 00 68 B6 42 00 ....h.B.....h.B.
00406960 D4 FF 00 00 68 B6 42 00 D5 FF 00 00 68 B6 42 00 ....h.B.....h.B.
00406970 D6 FF 00 00 68 B6 42 00 D7 FF 00 00 68 B6 42 00 ....h.B.....h.B.
00406980 D8 FF 00 00 68 B6 42 00 D9 FF 00 00 68 B6 42 00 ....h.B.....h.B.
00406990 DA FF 00 00 68 B6 42 00 DB FF 00 00 68 B6 42 00 ....h.B.....h.B.
004069A0 DC FF 00 00 68 B6 42 00 DD FF 00 00 68 B6 42 00 ....h.B.....h.B.
004069B0 DE FF 00 00 68 B6 42 00 DF FF 00 00 68 B6 42 00 ....h.B.....h.B.
004069C0 C0 FF 00 00 68 B6 42 00 C1 FF 00 00 68 B6 42 00 ....h.B.....h.B.
004069D0 C2 FF 00 00 68 B6 42 00 C3 FF 00 00 68 B6 42 00 ....h.B.....h.B.
004069E0 C4 FF 00 00 68 B6 42 00 C5 FF 00 00 68 B6 42 00 ....h.B.....h.B.
004069F0 C6 FF 00 00 68 B6 42 00 C7 FF 00 00 68 B6 42 00 ....h.B.....h.B.
00406A00 C8 FF 00 00 68 B6 42 00 C9 FF 00 00 68 B6 42 00 ....h.B.....h.B.
00406A10 CA FF 00 00 68 B6 42 00 CB FF 00 00 68 B6 42 00 ....h.B.....h.B.
00406A20 CC FF 00 00 68 B6 42 00 CD FF 00 00 68 B6 42 00 ....h.B.....h.B.
00406A30 CE FF 00 00 68 B6 42 00 CF FF 00 00 68 B6 42 00 ....h.B.....h.B.
00406A40 B0 FF 00 00 68 B6 42 00 B1 FF 00 00 68 B6 42 00 ....h.B.....h.B.
00406A50 B2 FF 00 00 68 B6 42 00 B3 FF 00 00 68 B6 42 00 ....h.B.....h.B.
00406A60 B4 FF 00 00 68 B6 42 00 B5 FF 00 00 68 B6 42 00 ....h.B.....h.B.
00406A70 B6 FF 00 00 68 B6 42 00 B7 FF 00 00 68 B6 42 00 ....h.B.....h.B.
00406A80 B8 FF 00 00 68 B6 42 00 B9 FF 00 00 68 B6 42 00 ....h.B.....h.B.
00406A90 BA FF 00 00 68 B6 42 00 BB FF 00 00 68 B6 42 00 ....h.B.....h.B.
00406AA0 BC FF 00 00 68 B6 42 00 BD FF 00 00 68 B6 42 00 ....h.B.....h.B.
00406AB0 BE FF 00 00 68 B6 42 00 BF FF 00 00 68 B6 42 00 ....h.B.....h.B.
00406AC0 A0 FF 00 00 68 B6 42 00 A1 FF 00 00 68 B6 42 00 ....h.B.....h.B.
00406AD0 A2 FF 00 00 68 B6 42 00 A3 FF 00 00 68 B6 42 00 ....h.B.....h.B.
00406AE0 A4 FF 00 00 68 B6 42 00 A5 FF 00 00 68 B6 42 00 ....h.B.....h.B.
00406AF0 A6 FF 00 00 68 B6 42 00 A7 FF 00 00 68 B6 42 00 ....h.B.....h.B.
00406B00 A8 FF 00 00 68 B6 42 00 A9 FF 00 00 55 8B EC 33 ....h.B.....U..3
00406B10 C0 55 68 31 6B 40 00 64 FF 30 64 89 20 FF 05 80 .Uh1k@.d.0d. ...
00406B20 B6 42 00 33 C0 5A 59 59 64 89 10 68 38 6B 40 00 .B.3.ZYYd..h8k@.
00406B30 C3 E9 EE D0 FF FF EB F8 5D C3 8B C0 83 2D 80 B6 ........]....-..
00406B40 42 00 01 C3 48 6B 40 00 0A 09 54 46 69 6C 65 4E B...Hk@...TFileN
00406B50 61 6D 65 90 58 6B 40 00 0E 0A 54 53 65 61 72 63 ame.Xk@...TSearc
00406B60 68 52 65 63 58 01 00 00 01 00 00 00 44 6B 40 00 hRecX.......Dk@.
00406B70 0C 00 00 00 C0 6B 40 00 00 00 00 00 00 00 00 00 .....k@.........
00406B80 C0 6B 40 00 00 00 00 00 00 00 00 00 00 00 00 00 .k@.............
00406B90 00 00 00 00 D2 6B 40 00 0C 00 00 00 60 10 40 00 .....k@.....`.@.
00406BA0 54 39 40 00 60 39 40 00 64 39 40 00 68 39 40 00 T9@.`9@.d9@.h9@.
00406BB0 5C 39 40 00 B8 36 40 00 D4 36 40 00 10 37 40 00 \9@..6@..6@..7@.
00406BC0 0E 00 00 00 00 00 01 00 00 00 44 10 40 00 04 00 ..........D.@...
00406BD0 00 00 09 45 78 63 65 70 74 69 6F 6E 28 6C 40 00 ...Exception(l@.
00406BE0 00 00 00 00 00 00 00 00 00 00 00 00 00 00 00 00 ................
00406BF0 00 00 00 00 00 00 00 00 00 00 00 00 28 6C 40 00 ............(l@.
00406C00 10 00 00 00 74 6B 40 00 54 39 40 00 60 39 40 00 ....tk@.T9@.`9@.
00406C10 64 39 40 00 68 39 40 00 5C 39 40 00 B8 36 40 00 d9@.h9@.\9@..6@.
00406C20 DC B1 40 00 10 37 40 00 0E 45 48 65 61 70 45 78 ..@..7@..EHeapEx
00406C30 63 65 70 74 69 6F 6E 90 84 6C 40 00 00 00 00 00 ception..l@.....
00406C40 00 00 00 00 00 00 00 00 00 00 00 00 00 00 00 00 ................
00406C50 00 00 00 00 00 00 00 00 84 6C 40 00 10 00 00 00 .........l@.....
00406C60 DC 6B 40 00 54 39 40 00 60 39 40 00 64 39 40 00 .k@.T9@.`9@.d9@.
00406C70 68 39 40 00 5C 39 40 00 B8 36 40 00 DC B1 40 00 h9@.\9@..6@...@.
00406C80 10 37 40 00 0C 45 4F 75 74 4F 66 4D 65 6D 6F 72 .7@..EOutOfMemor
00406C90 79 8D 40 00 E0 6C 40 00 00 00 00 00 00 00 00 00 y.@..l@.........
00406CA0 00 00 00 00 00 00 00 00 00 00 00 00 00 00 00 00 ................
00406CB0 00 00 00 00 E0 6C 40 00 10 00 00 00 74 6B 40 00 .....l@.....tk@.
00406CC0 54 39 40 00 60 39 40 00 64 39 40 00 68 39 40 00 T9@.`9@.d9@.h9@.
00406CD0 5C 39 40 00 B8 36 40 00 D4 36 40 00 10 37 40 00 \9@..6@..6@..7@.
00406CE0 0B 45 49 6E 4F 75 74 45 72 72 6F 72 38 6D 40 00 .EInOutError8m@.
00406CF0 00 00 00 00 00 00 00 00 00 00 00 00 00 00 00 00 ................
00406D00 00 00 00 00 00 00 00 00 00 00 00 00 38 6D 40 00 ............8m@.
00406D10 10 00 00 00 74 6B 40 00 54 39 40 00 60 39 40 00 ....tk@.T9@.`9@.
00406D20 64 39 40 00 68 39 40 00 5C 39 40 00 B8 36 40 00 d9@.h9@.\9@..6@.
00406D30 D4 36 40 00 10 37 40 00 09 45 45 78 74 65 72 6E .6@..7@..EExtern
00406D40 61 6C 8B C0 90 6D 40 00 00 00 00 00 00 00 00 00 al...m@.........
00406D50 00 00 00 00 00 00 00 00 00 00 00 00 00 00 00 00 ................
00406D60 00 00 00 00 90 6D 40 00 10 00 00 00 EC 6C 40 00 .....m@......l@.
00406D70 54 39 40 00 60 39 40 00 64 39 40 00 68 39 40 00 T9@.`9@.d9@.h9@.
00406D80 5C 39 40 00 B8 36 40 00 D4 36 40 00 10 37 40 00 \9@..6@..6@..7@.
00406D90 12 45 45 78 74 65 72 6E 61 6C 45 78 63 65 70 74 .EExternalExcept
00406DA0 69 6F 6E 90 F0 6D 40 00 00 00 00 00 00 00 00 00 ion..m@.........
00406DB0 00 00 00 00 00 00 00 00 00 00 00 00 00 00 00 00 ................
00406DC0 00 00 00 00 F0 6D 40 00 10 00 00 00 EC 6C 40 00 .....m@......l@.
00406DD0 54 39 40 00 60 39 40 00 64 39 40 00 68 39 40 00 T9@.`9@.d9@.h9@.
00406DE0 5C 39 40 00 B8 36 40 00 D4 36 40 00 10 37 40 00 \9@..6@..6@..7@.
00406DF0 09 45 49 6E 74 45 72 72 6F 72 8B C0 48 6E 40 00 .EIntError..Hn@.
00406E00 00 00 00 00 00 00 00 00 00 00 00 00 00 00 00 00 ................
00406E10 00 00 00 00 00 00 00 00 00 00 00 00 48 6E 40 00 ............Hn@.
00406E20 10 00 00 00 A4 6D 40 00 54 39 40 00 60 39 40 00 .....m@.T9@.`9@.
00406E30 64 39 40 00 68 39 40 00 5C 39 40 00 B8 36 40 00 d9@.h9@.\9@..6@.
00406E40 D4 36 40 00 10 37 40 00 0A 45 44 69 76 42 79 5A .6@..7@..EDivByZ
00406E50 65 72 6F 90 A0 6E 40 00 00 00 00 00 00 00 00 00 ero..n@.........
00406E60 00 00 00 00 00 00 00 00 00 00 00 00 00 00 00 00 ................
00406E70 00 00 00 00 A0 6E 40 00 10 00 00 00 A4 6D 40 00 .....n@......m@.
00406E80 54 39 40 00 60 39 40 00 64 39 40 00 68 39 40 00 T9@.`9@.d9@.h9@.
00406E90 5C 39 40 00 B8 36 40 00 D4 36 40 00 10 37 40 00 \9@..6@..6@..7@.
00406EA0 0B 45 52 61 6E 67 65 45 72 72 6F 72 F8 6E 40 00 .ERangeError.n@.
00406EB0 00 00 00 00 00 00 00 00 00 00 00 00 00 00 00 00 ................
00406EC0 00 00 00 00 00 00 00 00 00 00 00 00 F8 6E 40 00 .............n@.
00406ED0 10 00 00 00 A4 6D 40 00 54 39 40 00 60 39 40 00 .....m@.T9@.`9@.
00406EE0 64 39 40 00 68 39 40 00 5C 39 40 00 B8 36 40 00 d9@.h9@.\9@..6@.
00406EF0 D4 36 40 00 10 37 40 00 0C 45 49 6E 74 4F 76 65 .6@..7@..EIntOve
00406F00 72 66 6C 6F 77 8D 40 00 54 6F 40 00 00 00 00 00 rflow.@.To@.....
00406F10 00 00 00 00 00 00 00 00 00 00 00 00 00 00 00 00 ................
00406F20 00 00 00 00 00 00 00 00 54 6F 40 00 10 00 00 00 ........To@.....
00406F30 EC 6C 40 00 54 39 40 00 60 39 40 00 64 39 40 00 .l@.T9@.`9@.d9@.
00406F40 68 39 40 00 5C 39 40 00 B8 36 40 00 D4 36 40 00 h9@.\9@..6@..6@.
00406F50 10 37 40 00 0A 45 4D 61 74 68 45 72 72 6F 72 90 .7@..EMathError.
00406F60 AC 6F 40 00 00 00 00 00 00 00 00 00 00 00 00 00 .o@.............
00406F70 00 00 00 00 00 00 00 00 00 00 00 00 00 00 00 00 ................
00406F80 AC 6F 40 00 10 00 00 00 08 6F 40 00 54 39 40 00 .o@......o@.T9@.
00406F90 60 39 40 00 64 39 40 00 68 39 40 00 5C 39 40 00 `9@.d9@.h9@.\9@.
00406FA0 B8 36 40 00 D4 36 40 00 10 37 40 00 0A 45 49 6E .6@..6@..7@..EIn
00406FB0 76 61 6C 69 64 4F 70 90 04 70 40 00 00 00 00 00 validOp..p@.....
00406FC0 00 00 00 00 00 00 00 00 00 00 00 00 00 00 00 00 ................
00406FD0 00 00 00 00 00 00 00 00 04 70 40 00 10 00 00 00 .........p@.....
00406FE0 08 6F 40 00 54 39 40 00 60 39 40 00 64 39 40 00 .o@.T9@.`9@.d9@.
00406FF0 68 39 40 00 5C 39 40 00 B8 36 40 00 D4 36 40 00 h9@.\9@..6@..6@.
00407000 10 37 40 00 0B 45 5A 65 72 6F 44 69 76 69 64 65 .7@..EZeroDivide
00407010 5C 70 40 00 00 00 00 00 00 00 00 00 00 00 00 00 \p@.............
00407020 00 00 00 00 00 00 00 00 00 00 00 00 00 00 00 00 ................
00407030 5C 70 40 00 10 00 00 00 08 6F 40 00 54 39 40 00 \p@......o@.T9@.
00407040 60 39 40 00 64 39 40 00 68 39 40 00 5C 39 40 00 `9@.d9@.h9@.\9@.
00407050 B8 36 40 00 D4 36 40 00 10 37 40 00 09 45 4F 76 .6@..6@..7@..EOv
00407060 65 72 66 6C 6F 77 8B C0 B4 70 40 00 00 00 00 00 erflow...p@.....
00407070 00 00 00 00 00 00 00 00 00 00 00 00 00 00 00 00 ................
00407080 00 00 00 00 00 00 00 00 B4 70 40 00 10 00 00 00 .........p@.....
00407090 08 6F 40 00 54 39 40 00 60 39 40 00 64 39 40 00 .o@.T9@.`9@.d9@.
004070A0 68 39 40 00 5C 39 40 00 B8 36 40 00 D4 36 40 00 h9@.\9@..6@..6@.
004070B0 10 37 40 00 0A 45 55 6E 64 65 72 66 6C 6F 77 90 .7@..EUnderflow.
004070C0 0C 71 40 00 00 00 00 00 00 00 00 00 00 00 00 00 .q@.............
004070D0 00 00 00 00 00 00 00 00 00 00 00 00 00 00 00 00 ................
004070E0 0C 71 40 00 10 00 00 00 DC 6B 40 00 54 39 40 00 .q@......k@.T9@.
004070F0 60 39 40 00 64 39 40 00 68 39 40 00 5C 39 40 00 `9@.d9@.h9@.\9@.
00407100 B8 36 40 00 DC B1 40 00 10 37 40 00 0F 45 49 6E .6@...@..7@..EIn
00407110 76 61 6C 69 64 50 6F 69 6E 74 65 72 68 71 40 00 validPointerhq@.
00407120 00 00 00 00 00 00 00 00 00 00 00 00 00 00 00 00 ................
00407130 00 00 00 00 00 00 00 00 00 00 00 00 68 71 40 00 ............hq@.
00407140 0C 00 00 00 74 6B 40 00 54 39 40 00 60 39 40 00 ....tk@.T9@.`9@.
00407150 64 39 40 00 68 39 40 00 5C 39 40 00 B8 36 40 00 d9@.h9@.\9@..6@.
00407160 D4 36 40 00 10 37 40 00 0C 45 49 6E 76 61 6C 69 .6@..7@..EInvali
00407170 64 43 61 73 74 8D 40 00 C4 71 40 00 00 00 00 00 dCast.@..q@.....
00407180 00 00 00 00 00 00 00 00 00 00 00 00 00 00 00 00 ................
00407190 00 00 00 00 00 00 00 00 C4 71 40 00 0C 00 00 00 .........q@.....
004071A0 74 6B 40 00 54 39 40 00 60 39 40 00 64 39 40 00 tk@.T9@.`9@.d9@.
004071B0 68 39 40 00 5C 39 40 00 B8 36 40 00 D4 36 40 00 h9@.\9@..6@..6@.
004071C0 10 37 40 00 0D 45 43 6F 6E 76 65 72 74 45 72 72 .7@..EConvertErr
004071D0 6F 72 8B C0 20 72 40 00 00 00 00 00 00 00 00 00 or.. r@.........
004071E0 00 00 00 00 00 00 00 00 00 00 00 00 00 00 00 00 ................
004071F0 00 00 00 00 20 72 40 00 10 00 00 00 EC 6C 40 00 .... r@......l@.
00407200 54 39 40 00 60 39 40 00 64 39 40 00 68 39 40 00 T9@.`9@.d9@.h9@.
00407210 5C 39 40 00 B8 36 40 00 D4 36 40 00 10 37 40 00 \9@..6@..6@..7@.
00407220 10 45 41 63 63 65 73 73 56 69 6F 6C 61 74 69 6F .EAccessViolatio
00407230 6E 8D 40 00 80 72 40 00 00 00 00 00 00 00 00 00 n.@..r@.........
00407240 00 00 00 00 00 00 00 00 00 00 00 00 00 00 00 00 ................
00407250 00 00 00 00 80 72 40 00 10 00 00 00 EC 6C 40 00 .....r@......l@.
00407260 54 39 40 00 60 39 40 00 64 39 40 00 68 39 40 00 T9@.`9@.d9@.h9@.
00407270 5C 39 40 00 B8 36 40 00 D4 36 40 00 10 37 40 00 \9@..6@..6@..7@.
00407280 0A 45 50 72 69 76 69 6C 65 67 65 90 D8 72 40 00 .EPrivilege..r@.
00407290 00 00 00 00 00 00 00 00 00 00 00 00 00 00 00 00 ................
004072A0 00 00 00 00 00 00 00 00 00 00 00 00 D8 72 40 00 .............r@.
004072B0 10 00 00 00 EC 6C 40 00 54 39 40 00 60 39 40 00 .....l@.T9@.`9@.
004072C0 64 39 40 00 68 39 40 00 5C 39 40 00 B8 36 40 00 d9@.h9@.\9@..6@.
004072D0 D4 36 40 00 10 37 40 00 0E 45 53 74 61 63 6B 4F .6@..7@..EStackO
004072E0 76 65 72 66 6C 6F 77 90 34 73 40 00 00 00 00 00 verflow.4s@.....
004072F0 00 00 00 00 00 00 00 00 00 00 00 00 00 00 00 00 ................
00407300 00 00 00 00 00 00 00 00 34 73 40 00 10 00 00 00 ........4s@.....
00407310 EC 6C 40 00 54 39 40 00 60 39 40 00 64 39 40 00 .l@.T9@.`9@.d9@.
00407320 68 39 40 00 5C 39 40 00 B8 36 40 00 D4 36 40 00 h9@.\9@..6@..6@.
00407330 10 37 40 00 09 45 43 6F 6E 74 72 6F 6C 43 8B C0 .7@..EControlC..
00407340 8C 73 40 00 00 00 00 00 00 00 00 00 00 00 00 00 .s@.............
00407350 00 00 00 00 00 00 00 00 00 00 00 00 00 00 00 00 ................
00407360 8C 73 40 00 0C 00 00 00 74 6B 40 00 54 39 40 00 .s@.....tk@.T9@.
00407370 60 39 40 00 64 39 40 00 68 39 40 00 5C 39 40 00 `9@.d9@.h9@.\9@.
00407380 B8 36 40 00 D4 36 40 00 10 37 40 00 0D 45 56 61 .6@..6@..7@..EVa
00407390 72 69 61 6E 74 45 72 72 6F 72 8B C0 E8 73 40 00 riantError...s@.
004073A0 00 00 00 00 00 00 00 00 00 00 00 00 00 00 00 00 ................
004073B0 00 00 00 00 00 00 00 00 00 00 00 00 E8 73 40 00 .............s@.
004073C0 0C 00 00 00 74 6B 40 00 54 39 40 00 60 39 40 00 ....tk@.T9@.`9@.
004073D0 64 39 40 00 68 39 40 00 5C 39 40 00 B8 36 40 00 d9@.h9@.\9@..6@.
004073E0 D4 36 40 00 10 37 40 00 10 45 41 73 73 65 72 74 .6@..7@..EAssert
004073F0 69 6F 6E 46 61 69 6C 65 64 8D 40 00 48 74 40 00 ionFailed.@.Ht@.
00407400 00 00 00 00 00 00 00 00 00 00 00 00 00 00 00 00 ................
00407410 00 00 00 00 00 00 00 00 00 00 00 00 48 74 40 00 ............Ht@.
00407420 0C 00 00 00 74 6B 40 00 54 39 40 00 60 39 40 00 ....tk@.T9@.`9@.
00407430 64 39 40 00 68 39 40 00 5C 39 40 00 B8 36 40 00 d9@.h9@.\9@..6@.
00407440 D4 36 40 00 10 37 40 00 0E 45 41 62 73 74 72 61 .6@..7@..EAbstra
00407450 63 74 45 72 72 6F 72 90 A4 74 40 00 00 00 00 00 ctError..t@.....
00407460 00 00 00 00 00 00 00 00 00 00 00 00 00 00 00 00 ................
00407470 00 00 00 00 00 00 00 00 A4 74 40 00 0C 00 00 00 .........t@.....
00407480 74 6B 40 00 54 39 40 00 60 39 40 00 64 39 40 00 tk@.T9@.`9@.d9@.
00407490 68 39 40 00 5C 39 40 00 B8 36 40 00 D4 36 40 00 h9@.\9@..6@..6@.
004074A0 10 37 40 00 0E 45 49 6E 74 66 43 61 73 74 45 72 .7@..EIntfCastEr
004074B0 72 6F 72 90 00 75 40 00 00 00 00 00 00 00 00 00 ror..u@.........
004074C0 00 00 00 00 00 00 00 00 00 00 00 00 00 00 00 00 ................
004074D0 00 00 00 00 00 75 40 00 10 00 00 00 74 6B 40 00 .....u@.....tk@.
004074E0 54 39 40 00 60 39 40 00 64 39 40 00 68 39 40 00 T9@.`9@.d9@.h9@.
004074F0 5C 39 40 00 B8 36 40 00 D4 36 40 00 10 37 40 00 \9@..6@..6@..7@.
00407500 08 45 4F 53 45 72 72 6F 72 8D 40 00 58 75 40 00 .EOSError.@.Xu@.
00407510 00 00 00 00 00 00 00 00 00 00 00 00 00 00 00 00 ................
00407520 00 00 00 00 00 00 00 00 00 00 00 00 58 75 40 00 ............Xu@.
00407530 0C 00 00 00 74 6B 40 00 54 39 40 00 60 39 40 00 ....tk@.T9@.`9@.
00407540 64 39 40 00 68 39 40 00 5C 39 40 00 B8 36 40 00 d9@.h9@.\9@..6@.
00407550 D4 36 40 00 10 37 40 00 12 45 53 61 66 65 63 61 .6@..7@..ESafeca
00407560 6C 6C 45 78 63 65 70 74 69 6F 6E 90 70 75 40 00 llException.pu@.
00407570 11 03 2E 37 34 04 00 00 00 44 10 40 00 48 00 00 ...74....D.@.H..
00407580 00 44 10 40 00 08 53 79 73 55 74 69 6C 73 8B C0 .D.@..SysUtils..
00407590 94 75 40 00 11 03 2E 38 34 04 00 00 00 44 10 40 .u@....84....D.@
004075A0 00 48 00 00 00 44 10 40 00 08 53 79 73 55 74 69 .H...D.@..SysUti
004075B0 6C 73 8B C0 FF FF FF FF 01 00 00 00 24 00 00 00 ls..........$...
004075C0 0C 76 40 00 00 00 00 00 00 00 00 00 00 00 00 00 .v@.............
004075D0 00 00 00 00 00 00 00 00 00 00 00 00 00 00 00 00 ................
004075E0 0C 76 40 00 44 00 00 00 60 10 40 00 54 39 40 00 .v@.D...`.@.T9@.
004075F0 60 39 40 00 64 39 40 00 68 39 40 00 5C 39 40 00 `9@.d9@.h9@.\9@.
00407600 B8 36 40 00 D4 36 40 00 F0 C4 40 00 13 54 54 68 .6@..6@...@..TTh
00407610 72 65 61 64 4C 6F 63 61 6C 43 6F 75 6E 74 65 72 readLocalCounter
00407620 CC 83 C0 D4 E9 3F 52 00 00 83 C0 D4 E9 A7 52 00 .....?R.......R.
00407630 00 83 C0 D4 E9 33 51 00 00 83 C0 D4 E9 D7 51 00 .....3Q.......Q.
00407640 00 83 44 24 04 D4 E9 ED E5 FF FF 83 44 24 04 D4 ..D$........D$..
00407650 E9 0B E6 FF FF 83 44 24 04 D4 E9 15 E6 FF FF CC ......D$........
00407660 41 76 40 00 4B 76 40 00 55 76 40 00 21 76 40 00 Av@.Kv@.Uv@.!v@.
00407670 29 76 40 00 31 76 40 00 39 76 40 00 01 00 00 00 )v@.1v@.9v@.....
00407680 52 8C 10 7B 8F 1D DB 4C 9C DF 57 E0 71 19 3D 3F R..{...L..W.q.=?
00407690 60 76 40 00 2C 00 00 00 00 00 00 00 E8 76 40 00 `v@.,........v@.
004076A0 7C 76 40 00 00 00 00 00 00 00 00 00 00 00 00 00 |v@.............
004076B0 00 00 00 00 00 00 00 00 00 00 00 00 E8 76 40 00 .............v@.
004076C0 30 00 00 00 54 11 40 00 54 39 40 00 0C 5C 40 00 0...T.@.T9@..\@.
004076D0 18 5C 40 00 68 39 40 00 5C 39 40 00 28 5C 40 00 .\@.h9@.\9@.(\@.
004076E0 D4 36 40 00 E0 C6 40 00 24 54 4D 75 6C 74 69 52 .6@...@.$TMultiR
004076F0 65 61 64 45 78 63 6C 75 73 69 76 65 57 72 69 74 eadExclusiveWrit
00407700 65 53 79 6E 63 68 72 6F 6E 69 7A 65 72 8D 40 00 eSynchronizer.@.
00407710 55 8B EC 53 89 D3 89 C2 C1 EA 10 66 F7 F3 8B 5D U..S.......f...]
00407720 08 66 89 01 66 89 13 5B 5D C2 04 00             .f..f..[]...   

;; fn0040772C: 0040772C
;;   Called from:
;;     00408304 (in fn004082B8)
fn0040772C proc
	push	ebx
	push	esi
	push	edi
	mov	edi,ecx
	mov	esi,edx
	mov	ebx,eax
	push	esi
	push	edi
	mov	ecx,ebx
	mov	dl,01
	mov	eax,[00407178]
	call	0040B100
	call	00403C5C
	pop	edi
	pop	esi
	pop	ebx
	ret
0040774E                                           8B C0               ..
00407750 53 56 8B D8 8B C3 E8 CD B2 FF FF 8B F0 8B C6 33 SV.............3
00407760 C9 8B D3 E8 B8 B8 FF FF 8B C6 5E 5B C3 8D 40 00 ..........^[..@.
00407770 53 56 57 83 C4 F8 8B FA 8B F0 8B C6 E8 7F CD FF SVW.............
00407780 FF 8B D8 8B C7 8B D3 E8 A4 D0 FF FF 89 34 24 8B .............4$.
00407790 07 89 44 24 04 85 DB 74 21 8B 04 24 8A 00 3C 61 ..D$...t!..$..<a
004077A0 72 06 3C 7A 77 02 2C 20 8B 54 24 04 88 02 FF 04 r.<zw., .T$.....
004077B0 24 FF 44 24 04 4B 85 DB 75 DF 59 5A 5F 5E 5B C3 $.D$.K..u.YZ_^[.

;; fn004077C0: 004077C0
;;   Called from:
;;     00427BA4 (in Win32CrtStartup)
fn004077C0 proc
	push	ebx
	push	esi
	push	edi
	add	esp,F8
	mov	edi,edx
	mov	esi,eax
	mov	eax,esi
	call	00404500
	mov	ebx,eax
	mov	eax,edi
	mov	edx,ebx
	call	00404830
	mov	[esp],esi
	mov	eax,[edi]
	mov	[esp+04],eax
	test	ebx,ebx
	jz	0040780A

l004077E9:
	mov	eax,[esp]
	mov	al,[eax]
	cmp	al,41
	jc	004077F8

l004077F2:
	cmp	al,5A
	ja	004077F8

l004077F6:
	add	al,20

l004077F8:
	mov	edx,[esp+04]
	mov	[edx],al
	inc	dword ptr [esp]
	inc	dword ptr [esp+04]
	dec	ebx
	test	ebx,ebx
	jnz	004077E9

l0040780A:
	pop	ecx
	pop	edx
	pop	edi
	pop	esi
	pop	ebx
	ret

;; fn00407810: 00407810
;;   Called from:
;;     00417C6C (in fn00417C08)
fn00407810 proc
	push	esi
	push	edi
	mov	esi,eax
	mov	edi,edx
	mov	edx,ecx
	xor	eax,eax
	and	edx,03
	sar	ecx,02
	js	0040782C

l00407822:
	rep cmpsd

l00407824:
	jnz	0040782D

l00407826:
	mov	ecx,edx

l00407828:
	rep cmpsb

l0040782A:
	jnz	0040782D

l0040782C:
	inc	eax

l0040782D:
	pop	edi
	pop	esi
	ret
00407830 56 57 53 89 C6 89 D7 09 C0 74 03 8B 40 FC 09 D2 VWS......t..@...
00407840 74 03 8B 52 FC 89 C1 39 D1 76 02 89 D1 39 C9 F3 t..R...9.v...9..
00407850 A6 74 2A 8A 5E FF 80 FB 61 72 08 80 FB 7A 77 03 .t*.^...ar...zw.
00407860 80 EB 20 8A 7F FF 80 FF 61 72 08 80 FF 7A 77 03 .. .....ar...zw.
00407870 80 EF 20 38 FB 74 D8 0F B6 C3 0F B6 D7 29 D0 5B .. 8.t.......).[
00407880 5F 5E C3 90 39 D0 74 19 09 C0 74 17 09 D2 74 14 _^..9.t...t...t.
00407890 8B 48 FC 3B 4A FC 75 0C E8 93 FF FF FF 85 C0 75 .H.;J.u........u
004078A0 03 B0 01 C3 31 C0 C3 90                         ....1...       

;; fn004078A8: 004078A8
;;   Called from:
;;     004269E1 (in fn00426954)
;;     004269EF (in fn00426954)
fn004078A8 proc
	push	ebx
	push	esi
	push	edi
	mov	edi,edx
	mov	esi,eax
	mov	eax,esi
	call	00404500
	mov	ebx,eax
	mov	eax,esi
	call	00404700
	mov	edx,eax
	mov	eax,edi
	mov	ecx,ebx
	call	00404330
	test	ebx,ebx
	jle	004078D7

l004078CE:
	push	ebx
	mov	eax,[edi]
	push	eax
	call	00406730

l004078D7:
	pop	edi
	pop	esi
	pop	ebx
	ret
004078DB                                  90 53 56 8B F2            .SV..
004078E0 8B D8 8B C6 E8 17 CC FF FF 50 8B C6 E8 0F CE FF .........P......
004078F0 FF 50 8B C3 E8 07 CC FF FF 50 8B C3 E8 FF CD FF .P.......P......
00407900 FF 50 6A 00 68 00 04 00 00 E8 D2 EA FF FF 83 E8 .Pj.h...........
00407910 02 5E 5B C3                                     .^[.           

;; fn00407914: 00407914
;;   Called from:
;;     004187C5 (in fn004186F4)
fn00407914 proc
	push	ebx
	push	esi
	mov	esi,edx
	mov	ebx,eax
	mov	eax,esi
	call	00404500
	push	eax
	mov	eax,esi
	call	00404700
	push	eax
	mov	eax,ebx
	call	00404500
	push	eax
	mov	eax,ebx
	call	00404700
	push	eax
	push	01
	push	00000400
	call	004063E0
	sub	eax,02
	pop	esi
	pop	ebx
	ret
0040794C                                     53 56 8B F2             SV..
00407950 8B D8 8B D6 8B C3 E8 B9 FF FF FF 85 C0 0F 94 C0 ................
00407960 5E 5B C3 90 53 56 57 55 8B EA 8B F8 8B C7 E8 8D ^[..SVWU........
00407970 CB FF FF 8B F0 BB 01 00 00 00 EB 01 43 3B F3 7C ............C;.|
00407980 07 80 7C 1F FF 20 76 F4 3B F3 7D 0A 8B C5 E8 AD ..|.. v.;.}.....
00407990 C8 FF FF EB 17 4E 80 7C 37 FF 20 76 F8 55 8B CE .....N.|7. v.U..
004079A0 2B CB 41 8B D3 8B C7 E8 B4 CD FF FF 5D 5F 5E 5B +.A.........]_^[
004079B0 C3 8D 40 00 08 C9 75 17 09 C0 79 0E F7 D8 E8 07 ..@...u...y.....
004079C0 00 00 00 B0 2D 41 4E 88 06 C3 B9 0A 00 00 00 52 ....-AN........R
004079D0 56 31 D2 F7 F1 4E 80 C2 30 80 FA 3A 72 03 80 C2 V1...N..0..:r...
004079E0 07 88 16 09 C0 75 EA 59 5A 29 F1 29 CA 76 10 01 .....u.YZ).).v..
004079F0 D1 B0 30 29 D6 EB 03 88 04 32 4A 75 FA 88 06 C3 ..0).....2Ju....
00407A00 56 89 E6 83 EC 10 31 C9 52 31 D2 E8 A4 FF FF FF V.....1.R1......
00407A10 89 F2 58 E8 18 C9 FF FF 83 C4 10 5E C3 8D 40 00 ..X........^..@.

l00407A20:
	or	cl,cl
	jnz	00407A54

l00407A24:
	mov	ecx,0000000A
	test	dword ptr [eax+04],80000000
	jz	00407A54

l00407A32:
	push	dword ptr [eax+04]
	push	dword ptr [eax]
	mov	eax,esp
	neg	dword ptr [esp]
	adc	dword ptr [esp+04],00
	neg	dword ptr [esp+04]
	call	00407A54
	mov	byte ptr [esi-01],2D
	dec	esi
	inc	ecx
	add	esp,08
	ret

;; fn00407A54: 00407A54
;;   Called from:
;;     00407A22 (in fn0040846A)
;;     00407A30 (in fn0040846A)
;;     00407A45 (in fn0040846A)
fn00407A54 proc
	push	esi
	sub	esp,04
	fstcw	word ptr [esp+02]
	fstcw	word ptr [esp]
	or	word ptr [esp],0F00
	fldcw	word ptr [esp]
	mov	[esp],cx
	fld1
	test	dword ptr [eax+04],80000000
	jz	00407A9E

l00407A77:
	push	dword ptr [eax+04]
	push	dword ptr [eax]
	and	dword ptr [esp+04],7FFFFFFF
	push	7FFFFFFF
	push	FFFFFFFF
	fild	qword ptr [esp+08]
	fild	qword ptr [esp]
	fadd	st(0),st(2)
	faddp	st(1),st(0)
	add	esp,10
	jmp	00407AA0

l00407A9E:
	fild	qword ptr [eax]

l00407AA0:
	fild	word ptr [esp]
	fld	st(1)

l00407AA5:
	dec	esi
	fprem	st(0),st(0)
	fistp	word ptr [esp]
	fdivr	st(0),st(1)
	mov	al,[esp]
	add	al,30
	cmp	al,3A
	jc	00407AB8

l00407AB6:
	add	al,07

l00407AB8:
	mov	[esi],al
	fld	st(1)
	fcom	st(0),st(3)
	wait
	fstsw	ax
	sahf
	jnc	00407AA5

l00407AC4:
	fldcw	word ptr [esp+02]
	add	esp,04
	ffree	st(3)
	ffree	st(2)
	ffree	st(1)
	ffree	st(0)
	pop	ecx
	sub	ecx,esi
	sub	edx,ecx
	jbe	00407AEA

l00407ADA:
	sub	esi,edx
	mov	al,30
	add	ecx,edx
	jmp	00407AE5

l00407AE2:
	mov	[edx+esi],al

l00407AE5:
	dec	edx
	jnz	00407AE2

l00407AE8:
	mov	[esi],al

l00407AEA:
	ret
00407AEB                                  90 55 8B EC 56            .U..V
00407AF0 89 E6 83 EC 20 31 C9 50 31 D2 8D 45 08 E8 1E FF .... 1.P1..E....
00407B00 FF FF 89 F2 58 E8 26 C8 FF FF 83 C4 20 5E 5D C2 ....X.&..... ^].
00407B10 08 00 8B C0 83 FA 20 76 02 31 D2 56 89 E6 83 EC ...... v.1.V....
00407B20 20 51 B9 10 00 00 00 E8 88 FE FF FF 89 F2 58 E8  Q............X.
00407B30 FC C7 FF FF 83 C4 20 5E C3 8D 40 00 53 51 8B DA ...... ^..@.SQ..
00407B40 8B D4 E8 F9 B4 FF FF 83 3C 24 00 74 02 8B C3 5A ........<$.t...Z
00407B50 5B C3 8B C0 53 56 51 8B F2 8B D8 8B D4 8B C3 E8 [...SVQ.........
00407B60 DC B4 FF FF 89 06 83 3C 24 00 0F 94 C0 5A 5E 5B .......<$....Z^[
00407B70 C3 8D 40 00 53 56 51 8B F2 8B D8 8B D4 8B C3 E8 ..@.SVQ.........
00407B80 EC D4 FF FF 89 06 89 56 04 83 3C 24 00 0F 94 C0 .......V..<$....
00407B90 5A 5E 5B C3 A1 8C B7 42 00 E8 F6 D6 FF FF 85 C0 Z^[....B........
00407BA0 75 29 6A 01 B8 8C B7 42 00 B9 01 00 00 00 8B 15 u)j....B........
00407BB0 6C 75 40 00 E8 B7 D8 FF FF 83 C4 04 A1 8C B7 42 lu@............B
00407BC0 00 BA 0C 7C 40 00 E8 C9 C6 FF FF A1 90 B7 42 00 ...|@.........B.
00407BD0 E8 BF D6 FF FF 85 C0 75 29 6A 01 B8 90 B7 42 00 .......u)j....B.
00407BE0 B9 01 00 00 00 8B 15 90 75 40 00 E8 80 D8 FF FF ........u@......
00407BF0 83 C4 04 A1 90 B7 42 00 BA 1C 7C 40 00 E8 92 C6 ......B...|@....
00407C00 FF FF C3 00 FF FF FF FF 04 00 00 00 54 72 75 65 ............True
00407C10 00 00 00 00 FF FF FF FF 05 00 00 00 46 61 6C 73 ............Fals
00407C20 65 00 00 00 55 8B EC 51 53 56 57 C6 45 FF 00 8B e...U..QSVW.E...
00407C30 F2 85 F6 7C 20 46 8B D8 8B 45 08 8B 40 FC 8B 13 ...| F...E..@...
00407C40 E8 07 FD FF FF 84 C0 74 06 C6 45 FF 01 EB 06 83 .......t..E.....
00407C50 C3 04 4E 75 E3 8A 45 FF 5F 5E 5B 59 5D C3 8B C0 ..Nu..E._^[Y]...
00407C60 55 8B EC 83 C4 F0 53 8B DA 89 45 FC 8D 55 F0 8B U.....S...E..U..
00407C70 45 FC E8 21 12 00 00 8B D0 84 D2 74 11 DB 6D F0 E..!.......t..m.
00407C80 D8 1D E0 7C 40 00 DF E0 9E 0F 95 03 EB 49 E8 01 ...|@........I..
00407C90 FF FF FF 55 A1 8C B7 42 00 E8 FE D5 FF FF 8B D0 ...U...B........
00407CA0 A1 8C B7 42 00 E8 7A FF FF FF 59 8B D0 84 D2 74 ...B..z...Y....t
00407CB0 05 C6 03 01 EB 21 55 A1 90 B7 42 00 E8 DB D5 FF .....!U...B.....
00407CC0 FF 8B D0 A1 90 B7 42 00 E8 57 FF FF FF 59 8B D0 ......B..W...Y..
00407CD0 84 D2 74 03 C6 03 00 8B C2 5B 8B E5 5D C3 00 00 ..t......[..]...
00407CE0 00 00 00 00 FF FF FF FF 01 00 00 00 30 00 00 00 ............0...
00407CF0 FF FF FF FF 02 00 00 00 2D 31 00 00 53 56 8B F1 ........-1..SV..
00407D00 8B D8 84 D2 74 2C E8 89 FE FF FF 84 DB 74 11 8B ....t,.......t..
00407D10 C6 8B 15 8C B7 42 00 8B 12 E8 76 C5 FF FF EB 24 .....B....v....$
00407D20 8B C6 8B 15 90 B7 42 00 8B 12 E8 65 C5 FF FF 5E ......B....e...^
00407D30 5B C3 8B C6 33 D2 8A D3 8B 14 95 34 81 42 00 E8 [...3......4.B..
00407D40 50 C5 FF FF 5E 5B C3 90 53 56 57 8B DA 8B F8 83 P...^[..SVW.....
00407D50 C8 FF 8B F3 83 E6 03 83 FE 02 77 3F 8B D3 81 E2 ..........w?....
00407D60 F0 00 00 00 83 FA 40 77 32 6A 00 68 80 00 00 00 ......@w2j.h....
00407D70 6A 03 6A 00 8B C3 25 F0 00 00 00 C1 E8 04 8B 04 j.j...%.........
00407D80 85 48 81 42 00 50 8B 04 B5 3C 81 42 00 50 8B C7 .H.B.P...<.B.P..
00407D90 E8 6B C9 FF FF 50 E8 65 E6 FF FF 5F 5E 5B C3 90 .k...P.e..._^[..
00407DA0 53 8B D8 6A 00 68 80 00 00 00 6A 02 6A 00 6A 00 S..j.h....j.j.j.
00407DB0 68 00 00 00 C0 8B C3 E8 44 C9 FF FF 50 E8 3E E6 h.......D...P.>.
00407DC0 FF FF 5B C3 E8 D7 FF FF FF C3 8B C0 53 56 57 51 ..[.........SVWQ
00407DD0 8B F9 8B F2 8B D8 6A 00 8D 44 24 04 50 57 56 53 ......j..D$.PWVS
00407DE0 E8 7B E7 FF FF 85 C0 75 07 C7 04 24 FF FF FF FF .{.....u...$....
00407DF0 8B 04 24 5A 5F 5E 5B C3 53 56 57 51 8B F9 8B F2 ..$Z_^[.SVWQ....
00407E00 8B D8 6A 00 8D 44 24 04 50 57 56 53 E8 9F E7 FF ..j..D$.PWVS....
00407E10 FF 85 C0 75 07 C7 04 24 FF FF FF FF 8B 04 24 5A ...u...$......$Z
00407E20 5F 5E 5B C3 55 8B EC 83 C4 F8 53 56 8B F2 8B D8 _^[.U.....SV....
00407E30 8B 45 08 89 45 F8 8B 45 0C 89 45 FC 56 8D 45 FC .E..E..E..E.V.E.
00407E40 50 8B 45 F8 50 53 E8 3D E7 FF FF 89 45 F8 8B 45 P.E.PS.=....E..E
00407E50 F8 8B 55 FC 5E 5B 59 59 5D C2 08 00 50 E8 76 E5 ..U.^[YY]...P.v.
00407E60 FF FF C3 90                                     ....           

;; fn00407E64: 00407E64
;;   Called from:
;;     00407EFC (in fn00407ED0)
;;     00407F36 (in fn00407F20)
fn00407E64 proc
	push	ebx
	push	esi
	add	esp,F8
	mov	ebx,eax
	jmp	00407E87

l00407E6D:
	lea	eax,[ebx+18]
	push	eax
	mov	eax,[ebx+14]
	push	eax
	call	00406448
	test	eax,eax
	jnz	00407E87

l00407E7E:
	call	004064A0
	mov	esi,eax
	jmp	00407EC6

l00407E87:
	mov	eax,[ebx+18]
	and	eax,[ebx+10]
	jnz	00407E6D

l00407E8F:
	push	esp
	lea	eax,[ebx+2C]
	push	eax
	call	00406430
	push	ebx
	lea	eax,[ebx+02]
	push	eax
	lea	eax,[esp+08]
	push	eax
	call	00406428
	mov	eax,[ebx+38]
	mov	[ebx+04],eax
	mov	eax,[ebx+18]
	mov	[ebx+08],eax
	lea	eax,[ebx+0C]
	lea	edx,[ebx+44]
	mov	ecx,00000104
	call	004044B0
	xor	esi,esi

l00407EC6:
	mov	eax,esi
	pop	ecx
	pop	edx
	pop	esi
	pop	ebx
	ret
00407ECD                                        8D 40 00              .@.

;; fn00407ED0: 00407ED0
;;   Called from:
;;     00426586 (in fn004264A0)
fn00407ED0 proc
	push	ebx
	push	esi
	push	edi
	mov	ebx,ecx
	mov	edi,eax
	not	edx
	and	edx,1E
	mov	[ebx+10],edx
	lea	eax,[ebx+18]
	push	eax
	mov	eax,edi
	call	00404700
	push	eax
	call	00406440
	mov	esi,eax
	mov	[ebx+14],esi
	cmp	esi,FF
	jz	00407F10

l00407EFA:
	mov	eax,ebx
	call	00407E64
	mov	esi,eax
	test	esi,esi
	jz	00407F17

l00407F07:
	mov	eax,ebx
	call	00407F44
	jmp	00407F17

l00407F10:
	call	004064A0
	mov	esi,eax

l00407F17:
	mov	eax,esi
	pop	edi
	pop	esi
	pop	ebx
	ret
00407F1D                                        8D 40 00              .@.

;; fn00407F20: 00407F20
;;   Called from:
;;     0042666F (in fn004264A0)
fn00407F20 proc
	push	ebx
	mov	ebx,eax
	lea	eax,[ebx+18]
	push	eax
	mov	eax,[ebx+14]
	push	eax
	call	00406448
	test	eax,eax
	jz	00407F3D

l00407F34:
	mov	eax,ebx
	call	00407E64
	pop	ebx
	ret

l00407F3D:
	call	004064A0
	pop	ebx
	ret

;; fn00407F44: 00407F44
;;   Called from:
;;     00407F09 (in fn00407ED0)
;;     0042669F (in fn004264A0)
fn00407F44 proc
	push	ebx
	mov	ebx,eax
	mov	eax,[ebx+14]
	cmp	eax,FF
	jz	00407F5C

l00407F4F:
	push	eax
	call	00406438
	mov	dword ptr [ebx+14],FFFFFFFF

l00407F5C:
	pop	ebx
	ret
00407F5E                                           8B C0               ..
00407F60 53 56 51 8B F0 8B C6 E8 94 C5 FF FF 8B D8 85 DB SVQ.............
00407F70 74 19 EB 01 4B 8B D3 8B C6 E8 A2 39 00 00 3C 02 t...K......9..<.
00407F80 74 F2 8D 44 1E FF 89 04 24 EB 05 33 C0 89 04 24 t..D....$..3...$
00407F90 8B 04 24 5A 5E 5B C3 90                         ..$Z^[..       

;; fn00407F98: 00407F98
;;   Called from:
;;     00407FF6 (in fn00407FE8)
;;     0040804A (in fn0040803C)
fn00407F98 proc
	push	ebx
	push	esi
	push	edi
	push	ecx
	mov	esi,edx
	mov	ebx,eax
	mov	eax,esi
	call	00404500
	mov	edi,eax
	mov	eax,ebx
	call	00404700
	mov	[esp],eax
	test	edi,edi
	jle	00407FE0

l00407FB7:
	mov	bl,[esi+edi-01]
	test	bl,bl
	jz	00407FDB

l00407FBF:
	mov	edx,ebx
	mov	eax,[esp]
	call	004081FC
	test	eax,eax
	jz	00407FDB

l00407FCD:
	mov	edx,edi
	mov	eax,esi
	call	0040B920
	cmp	al,02
	jnz	00407FE0

l00407FDA:
	dec	edi

l00407FDB:
	dec	edi
	test	edi,edi
	jg	00407FB7

l00407FE0:
	mov	eax,edi
	pop	edx
	pop	edi
	pop	esi
	pop	ebx
	ret
00407FE7                      90                                .       

;; fn00407FE8: 00407FE8
;;   Called from:
;;     00426515 (in fn004264A0)
fn00407FE8 proc
	push	ebx
	push	esi
	push	edi
	mov	edi,edx
	mov	esi,eax
	mov	edx,esi
	mov	eax,00408038
	call	00407F98
	mov	ebx,eax
	cmp	ebx,01
	jle	0040801D

l00408002:
	cmp	byte ptr [esi+ebx-01],5C
	jnz	0040801D

l00408009:
	mov	ecx,ebx
	dec	ecx
	mov	edx,esi
	mov	eax,00408038
	call	0040BBE0
	test	al,al
	jnz	0040801D

l0040801C:
	dec	ebx

l0040801D:
	push	edi
	mov	ecx,ebx
	mov	edx,00000001
	mov	eax,esi
	call	00404760
	pop	edi
	pop	esi
	pop	ebx
	ret
00408030 FF FF FF FF 02 00 00 00 5C 3A 00 00             ........\:..   

;; fn0040803C: 0040803C
;;   Called from:
;;     00427B4F (in Win32CrtStartup)
;;     00427B99 (in Win32CrtStartup)
fn0040803C proc
	push	ebx
	push	esi
	push	edi
	mov	edi,edx
	mov	ebx,eax
	mov	edx,ebx
	mov	eax,00408070
	call	00407F98
	mov	esi,eax
	push	edi
	lea	edx,[esi+01]
	mov	ecx,7FFFFFFF
	mov	eax,ebx
	call	00404760
	pop	edi
	pop	esi
	pop	ebx
	ret
00408065                00 00 00 FF FF FF FF 02 00 00 00      ...........
00408070 5C 3A 00 00 53 56 81 C4 F8 FE FF FF 8B F2 8B D8 \:..SV..........
00408080 54 8D 44 24 08 50 68 04 01 00 00 8B C3 E8 6E C6 T.D$.Ph.......n.
00408090 FF FF 50 E8 00 E4 FF FF 8B C8 8D 54 24 04 8B C6 ..P........T$...
004080A0 E8 8B C2 FF FF 81 C4 08 01 00 00 5E 5B C3 8B C0 ...........^[...
004080B0 55 8B EC 83 C4 E4 53 8B 45 08 85 C0 74 05 89 45 U.....S.E...t..E
004080C0 E4 EB 05 33 C0 89 45 E4 8D 45 F0 50 8D 45 F4 50 ...3..E..E.P.E.P
004080D0 8D 45 F8 50 8D 45 FC 50 8B 45 E4 50 E8 AF E3 FF .E.P.E.P.E.P....
004080E0 FF 8B D8 8B 45 FC F7 6D F8 33 D2 89 45 E8 89 55 ....E..m.3..E..U
004080F0 EC 8B 45 F4 33 D2 52 50 8B 45 E8 8B 55 EC E8 49 ..E.3.RP.E..U..I
00408100 CF FF FF 8B 4D 0C 89 01 89 51 04 8B 45 F0 33 D2 ....M....Q..E.3.
00408110 52 50 8B 45 E8 8B 55 EC E8 2F CF FF FF 8B 4D 10 RP.E..U../....M.
00408120 89 01 89 51 04 8B C3 5B 8B E5 5D C2 10 00 8B C0 ...Q...[..].....
00408130 89 FA 89 C7 B9 FF FF FF FF 32 C0 F2 AE B8 FE FF .........2......
00408140 FF FF 29 C8 89 D7 C3 90                         ..).....       

;; fn00408148: 00408148
;;   Called from:
;;     004082E3 (in fn004082B8)
fn00408148 proc
	push	ecx
	mov	[esp],eax
	xchg	eax,edx
	call	00402C1C
	mov	eax,[esp]
	pop	edx
	ret
00408157                      90                                .       

;; fn00408158: 00408158
;;   Called from:
;;     004081A7 (in fn0040818C)
fn00408158 proc
	push	edi
	push	esi
	push	ebx
	mov	esi,eax
	mov	edi,edx
	mov	ebx,ecx
	xor	al,al
	test	ecx,ecx
	jz	0040816C

l00408167:
	repne scasb

l00408169:
	jnz	0040816C

l0040816B:
	inc	ecx

l0040816C:
	sub	ebx,ecx
	mov	edi,esi
	mov	esi,edx
	mov	edx,edi
	mov	ecx,ebx
	shr	ecx,02

l00408179:
	rep movsd

l0040817B:
	mov	ecx,ebx
	and	ecx,03

l00408180:
	rep movsb

l00408182:
	stosb
	mov	eax,edx
	pop	ebx
	pop	esi
	pop	edi
	ret
00408189                            8D 40 00                      .@.   

;; fn0040818C: 0040818C
;;   Called from:
;;     004187E1 (in fn004186F4)
;;     004187FC (in fn004186F4)
fn0040818C proc
	push	ebx
	push	esi
	push	ecx
	mov	ebx,edx
	mov	esi,eax
	mov	eax,ebx
	call	00404500
	push	eax
	mov	eax,ebx
	call	00404700
	mov	edx,eax
	mov	eax,esi
	pop	ecx
	call	00408158
	mov	[esp],eax
	mov	eax,[esp]
	pop	edx
	pop	esi
	pop	ebx
	ret
004081B6                   8B C0 57 56 53 89 D7 89 C6 89       ..WVS.....
004081C0 CB 31 C0 09 C9 74 2F F2 AE 29 CB 89 D9 89 D7 31 .1...t/..).....1
004081D0 D2 F3 A6 74 21 8A 46 FF 3C 61 72 06 3C 7A 77 02 ...t!.F.<ar.<zw.
004081E0 2C 20 8A 57 FF 80 FA 61 72 08 80 FA 7A 77 03 80 , .W...ar...zw..
004081F0 EA 20 29 D0 74 DB 5B 5E 5F C3 8B C0             . ).t.[^_...   

;; fn004081FC: 004081FC
;;   Called from:
;;     00407FC4 (in fn00407F98)
;;     0040BC13 (in fn0040BBE0)
fn004081FC proc
	push	ecx
	mov	ecx,esp
	mov	[ecx],eax
	jmp	0040820F

l00408203:
	test	al,al
	jnz	0040820D

l00408207:
	xor	eax,eax
	mov	[ecx],eax
	jmp	00408217

l0040820D:
	inc	dword ptr [ecx]

l0040820F:
	mov	eax,[ecx]
	mov	al,[eax]
	cmp	dl,al
	jnz	00408203

l00408217:
	mov	eax,[ecx]
	pop	edx
	ret
0040821B                                  90 57 56 53 09            .WVS.
00408220 C0 74 44 09 D2 74 40 89 C3 89 D7 32 C0 B9 FF FF .tD..t@....2....
00408230 FF FF F2 AE F7 D1 49 74 2E 89 CE 89 DF B9 FF FF ......It........
00408240 FF FF F2 AE F7 D1 29 F1 76 1D 89 DF 8D 5E FF 89 ......).v....^..
00408250 D6 AC F2 AE 75 11 89 C8 57 89 D9 F3 A6 5F 89 C1 ....u...W...._..
00408260 75 ED 8D 47 FF EB 02 31 C0 5B 5E 5F C3 8D 40 00 u..G...1.[^_..@.
00408270 53 8B D8 83 C3 04 8B C3 E8 AB A7 FF FF 89 18 83 S...............
00408280 C0 04 5B C3 53 56 51 8B D8 85 DB 75 07 33 C0 89 ..[.SVQ....u.3..
00408290 04 24 EB 1D 8B C3 E8 95 FE FF FF 8B F0 46 8B C6 .$...........F..
004082A0 E8 CB FF FF FF 8B CE 8B D3 E8 9A FE FF FF 89 04 ................
004082B0 24 8B 04 24 5A 5E 5B C3                         $..$Z^[.       

;; fn004082B8: 004082B8
;;   Called from:
;;     004084E7 (in fn0040846A)
fn004082B8 proc
	push	ebx
	push	esi
	push	edi
	add	esp,D8
	mov	ebx,ecx
	mov	esi,edx
	mov	edi,eax
	cmp	ebx,1F
	jbe	004082CE

l004082C9:
	mov	ebx,0000001F

l004082CE:
	mov	edx,ebx
	dec	edx
	mov	eax,esi
	call	0040B944
	cmp	al,01
	jnz	004082DD

l004082DC:
	dec	ebx

l004082DD:
	mov	eax,esp
	mov	ecx,ebx
	mov	edx,esi
	call	00408148
	mov	byte ptr [esp+ebx],00
	mov	eax,esp
	mov	[esp+20],eax
	mov	byte ptr [esp+24],06
	lea	edx,[esp+20]
	mov	eax,[0042815C+edi*4]
	xor	ecx,ecx
	call	0040772C
	add	esp,28
	pop	edi
	pop	esi
	pop	ebx
	ret
00408310 53 8B 0D BC A9 42 00 83 39 00 74 0C 8B 1D BC A9 S....B..9.t.....
00408320 42 00 8B 1B FF D3 5B C3 B0 10 E8 4D A8 FF FF 5B B.....[....M...[
00408330 C3 8D 40 00                                     ..@.           

;; fn00408334: 00408334
;;   Called from:
;;     00408413 (in fn00408340)
fn00408334 proc
	push	ebx
	mov	ebx,eax
	mov	eax,ebx
	call	00404240
	pop	ebx
	ret

;; fn00408340: 00408340
;;   Called from:
;;     00408763 (in fn00408718)
;;     004087AC (in fn00408718)
fn00408340 proc
	push	ebp
	mov	ebp,esp
	add	esp,94
	push	ebx
	xor	ebx,ebx
	mov	[ebp-14],ebx
	push	ebx
	push	esi
	push	edi
	mov	edi,eax
	mov	esi,ecx
	xor	eax,eax
	mov	[ebp-04],eax
	add	ecx,[ebp+10]
	mov	[ebp-08],edi
	xor	eax,eax
	mov	[ebp-0C],eax
	mov	[ebp-10],eax
	mov	[ebp-14],eax

l00408369:
	or	edx,edx
	jz	0040837A

l0040836D:
	cmp	esi,ecx
	jz	0040837A

l00408371:
	lodsb
	cmp	al,25
	jz	00408384

l00408376:
	stosb
	dec	edx
	jnz	0040836D

;; fn0040837A: 0040837A
;;   Called from:
;;     0040836B (in fn00408340)
;;     0040836F (in fn00408340)
;;     00408378 (in fn00408340)
;;     00408386 (in fn00408340)
;;     0040839C (in fn00408340)
;;     004083AD (in fn00408340)
;;     004083C0 (in fn00408340)
;;     00408445 (in fn00408422)
fn0040837A proc
	mov	eax,edi
	sub	eax,[ebp-08]
	jmp	004086A7

l00408384:
	cmp	esi,ecx
	jz	0040837A

l00408388:
	lodsb
	cmp	al,25
	jz	00408376

l0040838D:
	lea	ebx,[esi-02]
	mov	[ebp-18],ebx

l00408393:
	mov	[ebp-19],al
	cmp	al,2D
	jnz	0040839F

l0040839A:
	cmp	esi,ecx
	jz	0040837A

l0040839E:
	lodsb

l0040839F:
	call	00408422
	cmp	al,3A
	jnz	004083B2

l004083A8:
	mov	[ebp-0C],ebx
	cmp	esi,ecx
	jz	0040837A

l004083AF:
	lodsb
	jmp	00408393

l004083B2:
	mov	[ebp-20],ebx
	mov	ebx,FFFFFFFF
	cmp	al,2E
	jnz	004083C8

l004083BE:
	cmp	esi,ecx
	jz	0040837A

l004083C2:
	lodsb
	call	00408422

l004083C8:
	mov	[ebp-24],ebx
	mov	[ebp-28],esi
	push	ecx
	push	edx
	call	0040846A
	pop	edx
	mov	ebx,[ebp-20]
	sub	ebx,ecx
	jnc	004083DF

l004083DD:
	xor	ebx,ebx

l004083DF:
	cmp	byte ptr [ebp-19],2D
	jnz	004083EF

l004083E5:
	sub	edx,ecx
	jnc	004083ED

l004083E9:
	add	ecx,edx
	xor	edx,edx

l004083ED:
	rep movsb

l004083EF:
	xchg	ecx,ebx
	sub	edx,ecx
	jnc	004083F9

l004083F5:
	add	ecx,edx
	xor	edx,edx

l004083F9:
	mov	al,20

l004083FB:
	rep stosb

l004083FD:
	xchg	ecx,ebx
	sub	edx,ecx
	jnc	00408407

l00408403:
	add	ecx,edx
	xor	edx,edx

l00408407:
	rep movsb

l00408409:
	cmp	dword ptr [ebp-10],00
	jz	00408419

l0040840F:
	push	edx
	lea	eax,[ebp-10]
	call	00408334
	pop	edx

l00408419:
	pop	ecx
	mov	esi,[ebp-28]
	jmp	00408369

;; fn00408422: 00408422
;;   Called from:
;;     0040839F (in fn00408340)
;;     004083C3 (in fn00408340)
fn00408422 proc
	xor	ebx,ebx
	cmp	al,2A
	jz	0040844A

l00408428:
	cmp	al,30
	jc	00408469

l0040842C:
	cmp	al,39
	ja	00408469

l00408430:
	imul	ebx,ebx,0000000A
	sub	al,30
	movzx	eax,al
	add	ebx,eax
	cmp	esi,ecx
	jz	00408444

l00408441:
	lodsb
	jmp	00408428

l00408444:
	pop	eax
	jmp	0040837A

l0040844A:
	mov	eax,[ebp-0C]
	cmp	eax,[ebp+08]
	jg	00408464

l00408452:
	inc	dword ptr [ebp-0C]
	mov	ebx,[ebp+0C]
	cmp	byte ptr [ebx+eax*8+04],00
	mov	ebx,[ebx+eax*8]
	jz	00408464

l00408462:
	xor	ebx,ebx

l00408464:
	cmp	esi,ecx
	jz	00408444

l00408468:
	lodsb

l00408469:
	ret

;; fn0040846A: 0040846A
;;   Called from:
;;     004083D0 (in fn00408340)
fn0040846A proc
	and	al,DF
	mov	cl,al
	mov	eax,00000001
	mov	ebx,[ebp-0C]
	cmp	ebx,[ebp+08]
	jg	004084D7

l0040847B:
	inc	dword ptr [ebp-0C]
	mov	esi,[ebp+0C]
	lea	esi,[esi+ebx*8]
	mov	eax,[esi]
	movzx	edx,byte ptr [esi+04]
	jmp	dword ptr [00408491+edx*4]
00408491    22 85 40 00 D5 84 40 00 5B 85 40 00 22 86 40  ".@...@.[.@.".@
004084A0 00 8B 85 40 00 03 86 40 00 E3 85 40 00 D5 84 40 ...@...@...@...@
004084B0 00 D5 84 40 00 D5 84 40 00 9C 85 40 00 C7 85 40 ...@...@...@...@
004084C0 00 1E 86 40 00 6A 85 40 00 D5 84 40 00 A3 85 40 ...@.j.@...@...@
004084D0 00 EC 84 40 00                                  ...@.          

l004084D5:
	xor	eax,eax

l004084D7:
	call	00408697
	mov	edx,[ebp-18]
	mov	ecx,[ebp-28]
	sub	ecx,edx
	mov	ebx,[ebp-04]
	call	004082B8
	lea	esi,[ebp-49]
	mov	edx,[ebp-24]
	cmp	edx,20
	jbe	004084F9

l004084F7:
	xor	edx,edx

l004084F9:
	mov	ebx,ecx
	sub	cl,44
	jz	00407A20

l00408504:
	mov	ecx,00000010
	cmp	bl,58
	jz	00407A20

l00408512:
	mov	ecx,0000000A
	cmp	bl,55
	jz	00407A20

l00408520:
	jmp	004084D5
00408522       8D 75 A7 8B 55 DC 89 CB 83 FA 10 76 02 31   .u..U......v.1
00408530 D2 80 E9 44 0F 84 7A F4 FF FF B9 10 00 00 00 80 ...D..z.........
00408540 FB 58 0F 84 6C F4 FF FF B9 0A 00 00 00 80 FB 55 .X..l..........U
00408550 0F 84 5E F4 FF FF E9 7A FF FF FF 80 F9 53 0F 85 ..^....z.....S..
00408560 71 FF FF FF B9 01 00 00 00 C3 80 F9 53 0F 85 62 q...........S..b
00408570 FF FF FF 66 83 38 01 76 0F 89 C2 8D 45 F0 E8 8D ...f.8.v....E...
00408580 FD FF FF 8B 75 F0 EB 4A 31 C9 C3 80 F9 53 0F 85 ....u..J1....S..
00408590 41 FF FF FF 89 C6 AC 0F B6 C8 EB 3D BE 68 44 40 A..........=.hD@
004085A0 00 EB 05 BE C8 44 40 00 03 75 FC 80 F9 53 0F 85 .....D@..u...S..
004085B0 21 FF FF FF 89 C2 8D 45 EC 53 8B 5D FC FF D6 5B !......E.S.]...[
004085C0 8B 75 EC 89 F0 EB 0B 80 F9 53 0F 85 05 FF FF FF .u.......S......
004085D0 89 C6 09 F6 74 B2 8B 4E FC 3B 4D DC 77 01 C3 8B ....t..N.;M.w...
004085E0 4D DC C3 80 F9 53 0F 85 E9 FE FF FF 89 C6 57 89 M....S........W.
004085F0 C7 32 C0 8B 4D DC E3 05 F2 AE 75 01 4F 89 F9 29 .2..M.....u.O..)
00408600 F1 5F C3 80 F9 50 0F 85 C9 FE FF FF BA 08 00 00 ._...P..........
00408610 00 B9 10 00 00 00 8D 75 A7 E9 96 F3 FF FF B7 01 .......u........
00408620 EB 02 B7 00 89 C6 B3 00 80 F9 47 74 3F B3 01 80 ..........Gt?...
00408630 F9 45 74 38 B3 02 80 F9 46 74 12 B3 03 80 F9 4E .Et8....Ft.....N
00408640 74 0B 80 F9 4D 0F 85 8A FE FF FF B3 04 B8 12 00 t...M...........
00408650 00 00 8B 55 DC 39 C2 76 25 BA 02 00 00 00 80 F9 ...U.9.v%.......
00408660 4D 75 1B 0F B6 15 8C B6 42 00 EB 12 8B 45 DC BA Mu......B....E..
00408670 03 00 00 00 83 F8 12 76 05 B8 0F 00 00 00 53 50 .......v......SP
00408680 52 8D 45 97 89 F2 0F B6 CF 8B 5D FC E8 93 01 00 R.E.......].....
00408690 00 89 C1 8D 75 97 C3                            ....u..        

;; fn00408697: 00408697
;;   Called from:
;;     004084D7 (in fn0040846A)
;;     004086A7 (in fn0040837A)
fn00408697 proc
	push	ebx
	push	eax
	lea	eax,[ebp-14]
	mov	ebx,[ebp-04]
	call	00404240
	pop	eax
	pop	ebx
	ret

l004086A7:
	call	00408697
	pop	edi
	pop	esi
	pop	ebx
	pop	ebx
	mov	esp,ebp
	pop	ebp
	ret	000C
004086B6                   8B C0 55 8B EC 51 53 56 57 8B       ..U..QSVW.
004086C0 F1 8B FA 8B D8 85 DB 74 28 85 F6 74 24 8B C6 E8 .......t(..t$...
004086D0 5C FA FF FF 50 8B 45 0C 50 8B 45 08 50 8B CE 8B \...P.E.P.E.P...
004086E0 C3 8B D7 E8 58 FC FF FF C6 04 03 00 89 5D FC EB ....X........]..
004086F0 05 33 C0 89 45 FC 8B 45 FC 5F 5E 5B 59 5D C2 08 .3..E..E._^[Y]..
00408700 00 8D 40 00                                     ..@.           

;; fn00408704: 00408704
;;   Called from:
;;     0040B078 (in fn0040B044)
;;     0040B141 (in fn0040B100)
;;     00427AA3 (in Win32CrtStartup)
;;     00427B68 (in Win32CrtStartup)
fn00408704 proc
	push	ebp
	mov	ebp,esp
	push	ecx
	mov	ecx,[ebp+08]
	xchg	eax,ecx
	xchg	ecx,edx
	call	00408718
	pop	ebp
	ret	0004
00408717                      90                                .       

;; fn00408718: 00408718
;;   Called from:
;;     0040870E (in fn00408704)
fn00408718 proc
	push	ebp
	mov	ebp,esp
	add	esp,FFFFF004
	push	eax
	add	esp,F8
	push	ebx
	push	esi
	push	edi
	mov	[ebp-08],ecx
	mov	[ebp-04],edx
	mov	esi,eax
	mov	ebx,00001000
	mov	eax,[ebp-04]
	call	00404500
	cmp	eax,00000C00
	jge	0040876C

l00408744:
	mov	eax,[ebp-04]
	call	00404500
	push	eax
	mov	eax,[ebp-08]
	push	eax
	mov	eax,[ebp+08]
	push	eax
	mov	ecx,[ebp-04]
	lea	eax,[ebp-00001008]
	mov	edx,00000FFF
	call	00408340
	mov	edi,eax
	jmp	00408778

l0040876C:
	mov	eax,[ebp-04]
	call	00404500
	mov	ebx,eax
	mov	edi,ebx

l00408778:
	mov	eax,ebx
	dec	eax
	cmp	edi,eax
	jl	004087C5

l0040877F:
	jmp	004087B3

l00408781:
	add	ebx,ebx
	mov	eax,esi
	call	00404240
	mov	eax,esi
	mov	edx,ebx
	call	00404830
	mov	eax,[ebp-04]
	call	00404500
	push	eax
	mov	eax,[ebp-08]
	push	eax
	mov	eax,[ebp+08]
	push	eax
	mov	ecx,[ebp-04]
	mov	edx,ebx
	dec	edx
	mov	eax,[esi]
	call	00408340
	mov	edi,eax

l004087B3:
	mov	eax,ebx
	dec	eax
	cmp	edi,eax
	jge	00408781

l004087BA:
	mov	eax,esi
	mov	edx,edi
	call	00404830
	jmp	004087D4

l004087C5:
	lea	edx,[ebp-00001008]
	mov	eax,esi
	mov	ecx,edi
	call	00404330

l004087D4:
	pop	edi
	pop	esi
	pop	ebx
	mov	esp,ebp
	pop	ebp
	ret	0004
004087DD                                        8D 40 00              .@.
004087E0 56 31 F6 AA 08 DB 75 04 31 D2 EB 0A 09 D2 7D 06 V1....u.1.....}.
004087F0 B0 2D F7 DA EB 06 08 E4 74 03 88 E0 AA 92 50 89 .-......t.....P.
00408800 E3 31 D2 F7 B6 70 81 42 00 80 C2 30 88 13 43 49 .1...p.B...0..CI
00408810 09 C0 75 ED 09 C9 7F E9 4B 8A 03 AA 39 E3 75 F8 ..u.....K...9.u.
00408820 58 5E C3 90 55 8B EC 83 C4 D4 57 56 53 89 45 FC X^..U.....WVS.E.
00408830 A0 8B B6 42 00 88 45 FB A0 8A B6 42 00 88 45 FA ...B..E....B..E.
00408840 A1 84 B6 42 00 89 45 F4 A0 88 B6 42 00 88 45 F3 ...B..E....B..E.
00408850 A0 89 B6 42 00 88 45 F2 C7 45 EC 00 00 00 00 B8 ...B..E..E......
00408860 13 00 00 00 80 F9 00 75 17 8B 45 0C 83 F8 02 7D .......u..E....}
00408870 05 B8 02 00 00 00 83 F8 12 7E 05 B8 12 00 00 00 .........~......
00408880 89 45 0C 50 B8 0F 27 00 00 80 7D 10 02 72 03 8B .E.P..'...}..r..
00408890 45 08 50 8D 45 D4 E8 5D 02 00 00 8B 7D FC 0F B7 E.P.E..]....}...
004088A0 45 D4 2D FF 7F 00 00 83 F8 02 73 1A 89 C1 E8 70 E.-.......s....p
004088B0 00 00 00 8D B4 49 14 89 40 00 03 75 EC B9 03 00 .....I..@..u....
004088C0 00 00 F3 A4 EB 2D 8D 75 D7 0F B6 5D 10 80 FB 01 .....-.u...]....
004088D0 74 10 80 FB 04 77 09 0F BF 45 D4 3B 45 0C 7E 02 t....w...E.;E.~.
004088E0 B3 00 8D 1C 9D 00 89 40 00 03 5D EC 8B 1B 03 5D .......@..]....]
004088F0 EC FF D3 89 F8 2B 45 FC 5B 5E 5F E9 F1 01 00 00 .....+E.[^_.....
00408900 2D 89 40 00 89 89 40 00 C0 89 40 00 C0 89 40 00 -.@...@...@...@.
00408910 2A 8A 40 00 49 4E 46 4E 41 4E AC 08 C0 75 03 B0 *.@.INFNAN...u..
00408920 30 4E C3 80 7D D6 00 74 03 B0 2D AA C3 E8 F1 FF 0N..}..t..-.....
00408930 FF FF 0F BF 4D D4 31 D2 3B 4D 0C 7F 1D 83 F9 FD ....M.1.;M......
00408940 7C 18 09 C9 7F 1A B0 30 AA 80 3E 00 74 3A 8A 45 |......0..>.t:.E
00408950 FB AA F7 D9 B0 30 F3 AA EB 1A B9 01 00 00 00 42 .....0.........B
00408960 AC 08 C0 74 17 AA E2 F8 AC 08 C0 74 13 88 C4 8A ...t.......t....
00408970 45 FB 66 AB AC 08 C0 74 07 AA EB F8 B0 30 F3 AA E.f....t.....0..
00408980 09 D2 74 04 31 C0 EB 1E C3 E8 95 FF FF FF E8 87 ..t.1...........
00408990 FF FF FF 8A 65 FB 66 AB 8B 4D 0C 49 E8 79 FF FF ....e.f..M.I.y..
004089A0 FF AA E2 F8 B4 2B 8B 4D 08 83 F9 04 76 02 31 C9 .....+.M....v.1.
004089B0 B0 45 8A 5D D7 0F BF 55 D4 4A E8 21 FE FF FF C3 .E.]...U.J.!....
004089C0 E8 5E FF FF FF 8B 55 08 83 FA 12 72 05 BA 12 00 .^....U....r....
004089D0 00 00 0F BF 4D D4 09 C9 7F 05 B0 30 AA EB 2A 31 ....M......0..*1
004089E0 DB 80 7D 10 02 74 0A 89 C8 48 B3 03 F6 F3 88 E3 ..}..t...H......
004089F0 43 E8 24 FF FF FF AA 49 74 0F 4B 75 F4 8A 45 FA C.$....It.Ku..E.
00408A00 84 C0 74 ED AA B3 03 EB E8 09 D2 74 1C 8A 45 FB ..t........t..E.
00408A10 84 C0 74 01 AA E3 09 B0 30 AA 4A 74 0C 41 75 F9 ..t.....0.Jt.Au.
00408A20 E8 F5 FE FF FF AA 4A 75 F7 C3 31 DB 8A 5D F3 B9 ......Ju..1..]..
00408A30 03 00 00 00 80 7D D6 00 74 08 8A 5D F2 B9 0F 04 .....}..t..]....
00408A40 00 00 38 CB 76 02 88 CB 00 EB 8D 9C 9B 8D 8A 40 ..8.v..........@
00408A50 00 03 5D EC B9 05 00 00 00 8A 03 3C 40 74 1E 51 ..]........<@t.Q
00408A60 53 3C 24 74 07 3C 2A 74 0A AA EB 0C E8 0D 00 00 S<$t.<*t........
00408A70 00 EB 05 E8 4D FF FF FF 5B 59 43 E2 DC C3 56 8B ....M...[YC...V.
00408A80 75 F4 85 F6 74 05 8B 4E FC F3 A4 5E C3 24 2A 40 u...t..N...^.$*@
00408A90 40 40 2A 24 40 40 40 24 20 2A 40 40 2A 20 24 40 @@*$@@@$ *@@* $@
00408AA0 40 28 24 2A 29 40 2D 24 2A 40 40 24 2D 2A 40 40 @($*)@-$*@@$-*@@
00408AB0 24 2A 2D 40 40 28 2A 24 29 40 2D 2A 24 40 40 2A $*-@@(*$)@-*$@@*
00408AC0 2D 24 40 40 2A 24 2D 40 40 2D 2A 20 24 40 2D 24 -$@@*$-@@-* $@-$
00408AD0 20 2A 40 2A 20 24 2D 40 24 20 2A 2D 40 24 20 2D  *@* $-@$ *-@$ -
00408AE0 2A 40 2A 2D 20 24 40 28 24 20 2A 29 28 2A 20 24 *@*- $@($ *)(* $
00408AF0 29 8B E5 5D C2 0C 00 90 55 8B EC 83 C4 E0 57 56 )..]....U.....WV
00408B00 53 89 C3 89 D6 C7 45 FC 00 00 00 00 80 F9 00 74 S.....E........t
00408B10 0A E8 31 01 00 00 E9 00 02 00 00 E8 05 00 00 00 ..1.............
00408B20 E9 F6 01 00 00 66 8B 46 08 89 C2 25 FF 7F 00 00 .....f.F...%....
00408B30 74 1E 3D FF 7F 00 00 75 22 66 F7 46 06 00 80 74 t.=....u"f.F...t
00408B40 11 83 3E 00 75 09 81 7E 04 00 00 00 80 74 03 40 ..>.u..~.....t.@
00408B50 31 D2 C6 43 03 00 E9 CD 00 00 00 DB 2E 2D FF 3F 1..C.........-.?
00408B60 00 00 69 C0 10 4D 00 00 C1 F8 10 40 89 45 F8 B8 ..i..M.....@.E..
00408B70 12 00 00 00 2B 45 F8 D9 E1 53 8B 5D FC E8 0E A7 ....+E...S.]....
00408B80 FF FF 5B D9 FC 8B 7D FC DB AF 64 81 42 00 D8 D9 ..[...}...d.B...
00408B90 9B DD 7D F6 9B 66 F7 45 F6 00 41 74 09 DA B7 70 ..}..f.E..At...p
00408BA0 81 42 00 FF 45 F8 DF 75 E8 8D 7B 03 BA 09 00 00 .B..E..u..{.....
00408BB0 00 9B 8A 44 2A E7 88 C4 C0 E8 04 80 E4 0F 66 05 ...D*.........f.
00408BC0 30 30 66 AB 4A 75 EB 32 C0 AA 8B 7D F8 03 7D 08 00f.Ju.2...}..}.
00408BD0 79 07 31 C0 E9 77 FF FF FF 3B 7D 0C 72 03 8B 7D y.1..w...;}.r..}
00408BE0 0C 83 FF 12 73 27 80 7C 3B 03 35 72 25 C6 44 3B ....s'.|;.5r%.D;
00408BF0 03 00 4F 78 0D FE 44 3B 03 80 7C 3B 03 39 77 ED ..Ox..D;..|;.9w.
00408C00 EB 1F 66 C7 43 03 31 00 FF 45 F8 EB 14 BF 12 00 ..f.C.1..E......
00408C10 00 00 C6 44 3B 03 00 4F 78 19 80 7C 3B 03 30 74 ...D;..Ox..|;.0t
00408C20 F1 66 8B 56 08 8B 45 F8 66 C1 EA 0F 66 89 03 88 .f.V..E.f...f...
00408C30 53 02 C3 31 D2 EB EE 0A 00 00 00 64 00 00 00 E8 S..1.......d....
00408C40 03 00 00 10 27 00 00 8B 06 8B 56 04 89 C1 09 D1 ....'.....V.....
00408C50 0F 84 B7 00 00 00 09 D2 79 07 F7 DA F7 D8 83 DA ........y.......
00408C60 00 31 C9 8B 7D 08 09 FF 7D 02 31 FF 83 FF 04 7C .1..}...}.1....|
00408C70 1F BF 04 00 00 00 41 2D 00 00 64 A7 81 DA B3 B6 ......A-..d.....
00408C80 E0 0D 73 F2 49 05 00 00 64 A7 81 D2 B3 B6 E0 0D ..s.I...d.......
00408C90 89 45 E0 89 55 E4 DF 6D E0 89 FA B8 04 00 00 00 .E..U..m........
00408CA0 29 D0 74 0A 8B 7D FC DA B4 87 33 8C 40 00 DF 75 ).t..}....3.@..u
00408CB0 E8 8D 7B 03 9B 09 C9 75 1B B9 09 00 00 00 8A 44 ..{....u.......D
00408CC0 29 E7 88 C4 C0 E8 04 75 1E 88 E0 24 0F 75 1F 49 )......u...$.u.I
00408CD0 75 EC EB 39 88 C8 04 30 AA B9 09 00 00 00 8A 44 u..9...0.......D
00408CE0 29 E7 88 C4 C0 E8 04 04 30 AA 88 E0 24 0F 04 30 ).......0...$..0
00408CF0 AA 49 75 EA 89 F8 8D 4C 13 03 29 C8 C6 07 00 4F .Iu....L..)....O
00408D00 80 3F 30 74 F7 8B 56 04 C1 EA 1F EB 07 31 C0 31 .?0t..V......1.1
00408D10 D2 88 43 03 66 89 03 88 53 02 C3 5B 5E 5F 8B E5 ..C.f...S..[^_..
00408D20 5D C2 08 00 55 8B EC 83 C4 F4 57 56 53 89 C6 89 ]...U.....WVS...
00408D30 D7 C7 45 FC 00 00 00 00 A0 8B B6 42 00 88 45 FB ..E........B..E.
00408D40 89 CB 9B D9 7D F8 9B DB E2 D9 2D 74 81 42 00 D9 ....}.....-t.B..
00408D50 EE E8 85 00 00 00 8A 3E 80 FF 2B 74 05 80 FF 2D .......>..+t...-
00408D60 75 01 46 89 F1 E8 7C 00 00 00 31 D2 8A 06 3A 45 u.F...|...1...:E
00408D70 FB 75 08 46 E8 6D 00 00 00 F7 DA 39 F1 74 4F 8A .u.F.m.....9.tO.
00408D80 06 24 DF 3C 45 75 0A 46 52 E8 74 00 00 00 58 01 .$.<Eu.FR.t...X.
00408D90 C2 E8 45 00 00 00 80 3E 00 75 33 89 D0 80 FB 01 ..E....>.u3.....
00408DA0 75 03 83 C0 04 53 8B 5D FC E8 E2 A4 FF FF 5B 80 u....S.]......[.
00408DB0 FF 2D 75 02 D9 E0 80 FB 00 74 04 DF 3F EB 02 DB .-u......t..?...
00408DC0 3F 9B DF E0 66 A9 09 00 75 06 B0 01 EB 04 DD D8 ?...f...u.......
00408DD0 31 C0 9B DB E2 D9 6D F8 9B EB 56 AC 08 C0 74 04 1.....m...V...t.
00408DE0 3C 20 74 F7 4E C3 31 C0 31 D2 AC 2C 3A 04 0A 73 < t.N.1.1..,:..s
00408DF0 0F DA 0D 70 81 42 00 89 45 F4 DA 45 F4 42 EB EA ...p.B..E..E.B..
00408E00 4E C3 31 C0 31 D2 8A 0E 80 F9 2B 74 05 80 F9 2D N.1.1.....+t...-
00408E10 75 01 46 8A 06 2C 3A 04 0A 73 0E 46 6B D2 0A 01 u.F..,:..s.Fk...
00408E20 C2 81 FA F4 01 00 00 72 EA 80 F9 2D 75 02 F7 DA .......r...-u...
00408E30 C3 5B 5E 5F 8B E5 5D C3 55 8B EC 83 C4 C0 53 8B .[^_..].U.....S.
00408E40 D8 6A 00 6A 0F 6A 00 8D 55 08 8D 45 C0 33 C9 E8 .j.j.j..U..E.3..
00408E50 D0 F9 FF FF 8B C8 8D 55 C0 8B C3 E8 D0 B4 FF FF .......U........
00408E60 5B 8B E5 5D C2 0C 00 90 55 8B EC 83 C4 C0 53 8B [..]....U.....S.
00408E70 D8 6A 00 6A 00 6A 00 8D 55 08 8D 45 C0 B1 01 E8 .j.j.j..U..E....
00408E80 A0 F9 FF FF 8B C8 8D 55 C0 8B C3 E8 A0 B4 FF FF .......U........
00408E90 5B 8B E5 5D C2 08 00 90 53 56 8B F2 8B D8 8B C3 [..]....SV......
00408EA0 E8 5B B8 FF FF 8B D6 33 C9 E8 76 FE FF FF 5E 5B .[.....3..v...^[
00408EB0 C3 8D 40 00 53 56 83 C4 F4 8B F2 8B D8 8B C3 E8 ..@.SV..........
00408EC0 3C B8 FF FF 8B D4 33 C9 E8 57 FE FF FF 84 C0 74 <.....3..W.....t
00408ED0 06 DB 2C 24 DD 1E 9B 83 C4 0C 5E 5B C3 8D 40 00 ..,$......^[..@.
00408EE0 53 56 83 C4 F4 8B F2 8B D8 8B C3 E8 10 B8 FF FF SV..............
00408EF0 8B D4 33 C9 E8 2B FE FF FF 84 C0 74 06 DB 2C 24 ..3..+.....t..,$
00408F00 D9 1E 9B 83 C4 0C 5E 5B C3 8D 40 00 53 56 8B F2 ......^[..@.SV..
00408F10 8B D8 8B C3 E8 E7 B7 FF FF 8B D6 B1 01 E8 02 FE ................
00408F20 FF FF 5E 5B C3 8D 40 00 55 8B EC 53 31 DB 89 C1 ..^[..@.U..S1...
00408F30 DD 45 08 D8 8B 78 81 42 00 83 EC 08 DF 3C 24 9B .E...x.B.....<$.
00408F40 58 5A 09 D2 79 11 F7 DA F7 D8 83 DA 00 F7 B3 7C XZ..y..........|
00408F50 81 42 00 F7 D8 EB 06 F7 B3 7C 81 42 00 05 5A 95 .B.......|.B..Z.
00408F60 0A 00 89 11 89 41 04 5B 5D C2 08 00 55 8B EC 83 .....A.[]...U...
00408F70 C4 F8 56 8B 75 0C C6 45 FF 00 66 83 F8 18 73 4D ..V.u..E..f...sM
00408F80 66 83 FA 3C 73 47 66 83 F9 3C 73 41 66 81 FE E8 f..<sGf..<sAf...
00408F90 03 73 3A 0F B7 C0 69 C0 80 EE 36 00 0F B7 D2 69 .s:...i...6....i
00408FA0 D2 60 EA 00 00 03 C2 0F B7 D1 69 D2 E8 03 00 00 .`........i.....
00408FB0 03 C2 0F B7 D6 03 C2 89 45 F8 DB 45 F8 D8 35 D8 ........E..E..5.
00408FC0 8F 40 00 8B 45 08 DD 18 9B C6 45 FF 01 8A 45 FF .@..E.....E...E.
00408FD0 5E 59 59 5D C2 08 00 00 80 CB A4 4C 55 8B EC 83 ^YY].......LU...
00408FE0 C4 F4 53 56 57 8B F9 8B F2 8B D8 8D 45 FC 50 FF ..SVW.......E.P.
00408FF0 75 10 FF 75 0C 8D 45 F4 E8 2B FF FF FF 8B 45 F4 u..u..E..+....E.
00409000 8D 4D FE 66 BA 60 EA E8 04 E7 FF FF 56 8B CB 0F .M.f.`......V...
00409010 B7 45 FE 66 BA 3C 00 E8 F4 E6 FF FF 8B 45 08 50 .E.f.<.......E.P
00409020 8B CF 0F B7 45 FC 66 BA E8 03 E8 E1 E6 FF FF 5F ....E.f........_
00409030 5E 5B 8B E5 5D C2 0C 00 53 56 8B C8 0F B7 C1 83 ^[..]...SV......
00409040 E0 03 85 C0 75 21 0F B7 D9 8B C3 BE 64 00 00 00 ....u!......d...
00409050 33 D2 F7 F6 85 D2 75 14 8B C3 B9 90 01 00 00 33 3.....u........3
00409060 D2 F7 F1 85 D2 74 05 33 C0 5E 5B C3 B0 01 5E 5B .....t.3.^[...^[
00409070 C3 8D 40 00 55 8B EC 83 C4 F4 53 56 57 8B D9 8B ..@.U.....SVW...
00409080 FA 8B F0 C6 45 FF 00 8B C6 E8 AA FF FF FF 83 E0 ....E...........
00409090 7F 8D 04 40 8D 04 C5 DC 80 42 00 89 45 F8 66 83 ...@.....B..E.f.
004090A0 FE 01 0F 82 8E 00 00 00 66 81 FE 0F 27 0F 87 83 ........f...'...
004090B0 00 00 00 66 83 FF 01 72 7D 66 83 FF 0C 77 77 66 ...f...r}f...wwf
004090C0 83 FB 01 72 71 0F B7 C7 8B 55 F8 66 3B 5C 42 FE ...rq....U.f;\B.
004090D0 77 64 0F B7 C7 48 85 C0 7E 11 B9 01 00 00 00 8B wd...H..~.......
004090E0 55 F8 66 03 5C 4A FE 41 48 75 F4 0F B7 CE 49 8B U.f.\J.AHu....I.
004090F0 C1 BE 64 00 00 00 99 F7 FE 69 F1 6D 01 00 00 8B ..d......i.m....
00409100 D1 85 D2 79 03 83 C2 03 C1 FA 02 03 F2 2B F0 8B ...y.........+..
00409110 C1 B9 90 01 00 00 99 F7 F9 03 F0 0F B7 C3 03 F0 ................
00409120 81 EE 5A 95 0A 00 89 75 F4 DB 45 F4 8B 45 08 DD ..Z....u..E..E..
00409130 18 9B C6 45 FF 01 8A 45 FF 5F 5E 5B 8B E5 5D C2 ...E...E._^[..].
00409140 04 00 8B C0 55 8B EC 83 C4 E4 53 56 89 4D F4 89 ....U.....SV.M..
00409150 55 F8 89 45 FC 8B 5D 08 FF 75 10 FF 75 0C 8D 45 U..E..]..u..u..E
00409160 E4 E8 C2 FD FF FF 8B 4D E8 85 C9 7F 24 8B 45 FC .......M....$.E.
00409170 66 C7 00 00 00 8B 45 F8 66 C7 00 00 00 8B 45 F4 f.....E.f.....E.
00409180 66 C7 00 00 00 66 C7 03 00 00 33 D2 E9 F8 00 00 f....f....3.....
00409190 00 8B C1 BE 07 00 00 00 99 F7 FE 42 66 89 13 49 ...........Bf..I
004091A0 66 BB 01 00 81 F9 B1 3A 02 00 7C 13 81 E9 B1 3A f......:..|....:
004091B0 02 00 66 81 C3 90 01 81 F9 B1 3A 02 00 7D ED 8D ..f.......:..}..
004091C0 45 F2 50 8D 45 F0 66 BA AC 8E 91 E8 40 E5 FF FF E.P.E.f.....@...
004091D0 66 83 7D F0 04 75 0A 66 FF 4D F0 66 81 45 F2 AC f.}..u.f.M.f.E..
004091E0 8E 66 6B 45 F0 64 66 03 D8 8D 45 F2 50 8D 4D F0 .fkE.df...E.P.M.
004091F0 0F B7 45 F2 66 BA B5 05 E8 13 E5 FF FF 66 8B 45 ..E.f........f.E
00409200 F0 C1 E0 02 66 03 D8 8D 45 F2 50 8D 4D F0 0F B7 ....f...E.P.M...
00409210 45 F2 66 BA 6D 01 E8 F5 E4 FF FF 66 83 7D F0 04 E.f.m......f.}..
00409220 75 0A 66 FF 4D F0 66 81 45 F2 6D 01 66 03 5D F0 u.f.M.f.E.m.f.].
00409230 8B C3 E8 01 FE FF FF 8B D0 33 C0 8A C2 8D 04 40 .........3.....@
00409240 8D 04 C5 DC 80 42 00 89 45 EC 66 B8 01 00 0F B7 .....B..E.f.....
00409250 C8 8B 75 EC 66 8B 4C 4E FE 66 89 4D F0 66 8B 4D ..u.f.LN.f.M.f.M
00409260 F2 66 3B 4D F0 72 0B 66 8B 4D F0 66 29 4D F2 40 .f;M.r.f.M.f)M.@
00409270 EB DC 8B 4D FC 66 89 19 8B 4D F8 66 89 01 66 8B ...M.f...M.f..f.
00409280 45 F2 40 8B 4D F4 66 89 01 8B C2 5E 5B 8B E5 5D E.@.M.f....^[..]
00409290 C2 0C 00 90 55 8B EC 51 56 8B F0 FF 75 0C FF 75 ....U..QV...u..u
004092A0 08 8D 45 FE 50 8B C6 E8 98 FE FF FF 5E 59 5D C2 ..E.P.......^Y].
004092B0 08 00 8B C0 55 8B EC 83 C4 F8 FF 75 0C FF 75 08 ....U......u..u.
004092C0 8D 45 F8 E8 60 FC FF FF 8B 45 FC B9 07 00 00 00 .E..`....E......
004092D0 99 F7 F9 8B C2 40 59 59 5D C2 08 00 83 C4 F0 54 .....@YY]......T
004092E0 E8 C3 D1 FF FF 66 8B 04 24 83 C4 10 C3 8D 40 00 .....f..$.....@.
004092F0 55 8B EC 53 8B 4D 08 BB 00 01 00 00 2B 99 FC FE U..S.M......+...
00409300 FF FF 3B D3 7D 02 8B DA 85 DB 74 1A 8B 55 08 8B ..;.}.....t..U..
00409310 92 FC FE FF FF 8B 4D 08 8D 94 11 00 FF FF FF 8B ......M.........
00409320 CB E8 F6 98 FF FF 8B 45 08 01 98 FC FE FF FF 5B .......E.......[
00409330 5D C3 8B C0 55 8B EC 53 8B D8 8B 45 08 50 8B C3 ]...U..S...E.P..
00409340 E8 BB B1 FF FF 8B D0 8B C3 E8 A2 FF FF FF 59 5B ..............Y[
00409350 5D C3 8B C0 55 8B EC 83 C4 E0 53 56 8B F2 8B D8 ]...U.....SV....
00409360 8B 45 08 50 6A 04 89 75 E0 C6 45 E4 00 89 5D E8 .E.Pj..u..E...].
00409370 C6 45 EC 00 8D 45 E0 50 6A 01 B9 80 81 42 00 8D .E...E.Pj....B..
00409380 45 F0 BA 10 00 00 00 E8 B4 EF FF FF 8B D0 8D 45 E..............E
00409390 F0 E8 5A FF FF FF 59 5E 5B 8B E5 5D C3 8D 40 00 ..Z...Y^[..]..@.
004093A0 55 8B EC 51 8B 45 08 83 C0 FC 8B 10 89 55 FC EB U..Q.E.......U..
004093B0 02 FF 00 8B 10 8A 12 8B 4D 08 3A 51 FB 74 F2 8B ........M.:Q.t..
004093C0 00 2B 45 FC 40 8B 55 08 89 42 F4 59 5D C3 8B C0 .+E.@.U..B.Y]...
004093D0 55 8B EC 8B 45 08 80 78 ED 00 75 2A 8B 45 08 8B U...E..x..u*.E..
004093E0 40 08 FF 70 0C FF 70 08 8B 45 08 8D 48 EE 8B 45 @..p..p..E..H..E
004093F0 08 8D 50 F0 8B 45 08 83 C0 F2 E8 95 FE FF FF 8B ..P..E..........
00409400 45 08 C6 40 ED 01 5D C3 55 8B EC 8B 45 08 80 78 E..@..].U...E..x
00409410 E3 00 75 31 8B 45 08 8B 40 08 FF 70 0C FF 70 08 ..u1.E..@..p..p.
00409420 8B 45 08 83 C0 E4 50 8B 45 08 8D 48 E6 8B 45 08 .E....P.E..H..E.
00409430 8D 50 E8 8B 45 08 83 C0 EA E8 9E FB FF FF 8B 45 .P..E..........E
00409440 08 C6 40 E3 01 5D C3 90 55 8B EC 81 C4 E4 FE FF ..@..]..U.......
00409450 FF 53 56 33 C9 89 8D E4 FE FF FF 89 4D FC 8B DA .SV3........M...
00409460 8B F0 33 C0 55 68 99 95 40 00 64 FF 30 64 89 20 ..3.Uh..@.d.0d. 
00409470 8B C3 E8 C9 AD FF FF 8B 45 08 66 8B 40 F2 66 89 ........E.f.@.f.
00409480 45 E8 8B 45 08 66 8B 40 F0 66 89 45 EA 8B 45 08 E..E.f.@.f.E..E.
00409490 66 8B 40 EE 66 89 45 EE 8D 45 FC BA B0 95 40 00 f.@.f.E..E....@.
004094A0 E8 33 AE FF FF 68 00 01 00 00 8D 85 E8 FE FF FF .3...h..........
004094B0 50 8B 45 FC E8 47 B2 FF FF 50 8D 45 E8 50 6A 04 P.E..G...P.E.Pj.
004094C0 E8 2B D0 FF FF 50 E8 BD CF FF FF 85 C0 0F 84 A5 .+...P..........
004094D0 00 00 00 8B C3 8D 95 E8 FE FF FF B9 00 01 00 00 ................
004094E0 E8 CB AF FF FF 4E 0F 85 8C 00 00 00 A1 48 B7 42 .....N.......H.B
004094F0 00 83 E8 04 74 22 83 E8 0D 75 7D 53 8B 03 BA 01 ....t"...u}S....
00409500 00 00 00 E8 CC 25 00 00 8B C8 8B 03 BA 01 00 00 .....%..........
00409510 00 E8 4A B2 FF FF EB 60 83 3D 4C B7 42 00 01 75 ..J....`.=L.B..u
00409520 57 8B 03 E8 D8 AF FF FF 8B D0 8B 03 E8 2B 24 00 W............+$.
00409530 00 83 F8 04 75 42 8B 03 BA 03 00 00 00 E8 2E 25 ....uB.........%
00409540 00 00 8D 95 E8 FE FF FF 03 C2 48 89 45 F8 8D 85 ..........H.E...
00409550 E4 FE FF FF 8B 55 F8 E8 DC AE FF FF 8B 85 E4 FE .....U..........
00409560 FF FF BA 02 00 00 00 E8 68 25 00 00 8B C8 8B C3 ........h%......
00409570 8B 55 F8 E8 B8 AD FF FF 33 C0 5A 59 59 64 89 10 .U......3.ZYYd..
00409580 68 A0 95 40 00 8D 85 E4 FE FF FF E8 B0 AC FF FF h..@............
00409590 8D 45 FC E8 A8 AC FF FF C3 E9 86 A6 FF FF EB E5 .E..............
004095A0 5E 5B 8B E5 5D C3 00 00 FF FF FF FF 02 00 00 00 ^[..]...........
004095B0 67 67 00 00 55 8B EC 81 C4 EC FE FF FF 53 56 33 gg..U........SV3
004095C0 C9 89 4D FC 8B DA 8B F0 33 C0 55 68 92 96 40 00 ..M.....3.Uh..@.
004095D0 64 FF 30 64 89 20 8B C3 E8 63 AC FF FF 8B 45 08 d.0d. ...c....E.
004095E0 66 8B 40 F2 66 89 45 EC 8B 45 08 66 8B 40 F0 66 f.@.f.E..E.f.@.f
004095F0 89 45 EE 8B 45 08 66 8B 40 EE 66 89 45 F2 83 FE .E..E.f.@.f.E...
00409600 02 7F 0F 8D 45 FC BA A8 96 40 00 E8 C8 AC FF FF ....E....@......
00409610 EB 0D 8D 45 FC BA B4 96 40 00 E8 B9 AC FF FF 68 ...E....@......h
00409620 00 01 00 00 8D 85 EC FE FF FF 50 8B 45 FC E8 CD ..........P.E...
00409630 B0 FF FF 50 8D 45 EC 50 6A 04 E8 B1 CE FF FF 50 ...P.E.Pj......P
00409640 E8 43 CE FF FF 85 C0 74 33 8B C3 8D 95 EC FE FF .C.....t3.......
00409650 FF B9 00 01 00 00 E8 55 AE FF FF 4E 75 1E 8B 03 .......U...Nu...
00409660 80 38 30 75 17 53 8B 03 E8 93 AE FF FF 8B C8 49 .80u.S.........I
00409670 8B 03 BA 02 00 00 00 E8 E4 B0 FF FF 33 C0 5A 59 ............3.ZY
00409680 59 64 89 10 68 99 96 40 00 8D 45 FC E8 AF AB FF Yd..h..@..E.....
00409690 FF C3 E9 8D A5 FF FF EB F0 5E 5B 8B E5 5D C3 00 .........^[..]..
004096A0 FF FF FF FF 02 00 00 00 79 79 00 00 FF FF FF FF ........yy......
004096B0 04 00 00 00 79 79 79 79 00 00 00 00 55 8B EC 83 ....yyyy....U...
004096C0 C4 D4 53 56 57 33 D2 89 55 D4 89 55 D8 89 45 FC ..SVW3..U..U..E.
004096D0 8D 75 FC 33 C0 55 68 62 9E 40 00 64 FF 30 64 89 .u.3.Uhb.@.d.0d.
004096E0 20 83 3E 00 0F 84 5D 07 00 00 8B 45 08 83 B8 F8  .>...]....E....
004096F0 FE FF FF 02 0F 8D 4D 07 00 00 8B 45 08 FF 80 F8 ......M....E....
00409700 FE FF FF C6 45 E2 20 C6 45 ED 00 C6 45 E3 00 C6 ....E. .E...E...
00409710 45 E1 00 E9 1B 07 00 00 8B 06 8A 00 88 45 FB 8A E............E..
00409720 45 FB 25 FF 00 00 00 0F A3 05 0C 81 42 00 73 27 E.%.........B.s'
00409730 8B 45 08 50 8B 06 E8 F9 23 00 00 8B D0 8B 06 E8 .E.P....#.......
00409740 AC FB FF FF 59 8B 06 E8 08 24 00 00 89 06 C6 45 ....Y....$.....E
00409750 E2 20 E9 DC 06 00 00 8B 06 E8 F6 23 00 00 89 06 . .........#....
00409760 8A 5D FB 8B C3 04 9F 2C 1A 73 03 80 EB 20 8B C3 .].....,.s... ..
00409770 04 BF 2C 1A 73 10 80 FB 4D 75 08 80 7D E2 48 75 ..,.s...Mu..}.Hu
00409780 02 B3 4E 88 5D E2 33 C0 8A C3 83 C0 DE 83 F8 38 ..N.].3........8
00409790 0F 87 8B 06 00 00 8A 80 A3 97 40 00 FF 24 85 DC ..........@..$..
004097A0 97 40 00 0F 00 00 00 00 0F 00 00 00 00 00 00 00 .@..............
004097B0 0D 00 00 00 00 00 00 00 00 00 00 0E 00 00 00 00 ................
004097C0 00 00 0B 00 0C 05 03 00 02 06 00 00 00 00 04 07 ................
004097D0 00 00 00 00 08 09 00 00 00 00 01 0A 21 9E 40 00 ............!.@.
004097E0 1C 98 40 00 6B 98 40 00 98 98 40 00 C5 98 40 00 ..@.k.@...@...@.
004097F0 2A 99 40 00 D7 99 40 00 EA 9A 40 00 1B 9B 40 00 *.@...@...@...@.
00409800 4C 9B 40 00 81 9B 40 00 B2 9B 40 00 2B 9D 40 00 L.@...@...@.+.@.
00409810 89 9D 40 00 AF 9D 40 00 CE 9D 40 00 55 E8 7E FB ..@...@...@.U.~.
00409820 FF FF 59 55 E8 A7 FB FF FF 59 83 7D F4 02 7F 23 ..YU.....Y.}...#
00409830 8B 45 08 50 0F B7 45 F2 B9 64 00 00 00 33 D2 F7 .E.P..E..d...3..
00409840 F1 8B C2 BA 02 00 00 00 E8 07 FB FF FF 59 E9 E0 .............Y..
00409850 05 00 00 8B 45 08 50 0F B7 45 F2 BA 04 00 00 00 ....E.P..E......
00409860 E8 EF FA FF FF 59 E9 C8 05 00 00 55 E8 2F FB FF .....Y.....U./..
00409870 FF 59 55 E8 58 FB FF FF 59 8B 45 08 50 55 8D 55 .YU.X...Y.E.PU.U
00409880 D8 8B 45 F4 E8 BF FB FF FF 59 8B 45 D8 E8 A2 FA ..E......Y.E....
00409890 FF FF 59 E9 9B 05 00 00 55 E8 02 FB FF FF 59 55 ..Y.....U.....YU
004098A0 E8 2B FB FF FF 59 8B 45 08 50 55 8D 55 D4 8B 45 .+...Y.E.PU.U..E
004098B0 F4 E8 FE FC FF FF 59 8B 45 D4 E8 75 FA FF FF 59 ......Y.E..u...Y
004098C0 E9 6E 05 00 00 55 E8 D5 FA FF FF 59 55 E8 FE FA .n...U.....YU...
004098D0 FF FF 59 8B 45 F4 48 83 E8 02 72 04 74 18 EB 30 ..Y.E.H...r.t..0
004098E0 8B 45 08 50 0F B7 45 F0 8B 55 F4 E8 64 FA FF FF .E.P..E..U..d...
004098F0 59 E9 3D 05 00 00 8B 45 08 50 0F B7 45 F0 8B 04 Y.=....E.P..E...
00409900 85 A8 B6 42 00 E8 2A FA FF FF 59 E9 23 05 00 00 ...B..*...Y.#...
00409910 8B 45 08 50 0F B7 45 F0 8B 04 85 D8 B6 42 00 E8 .E.P..E......B..
00409920 10 FA FF FF 59 E9 09 05 00 00 55 E8 70 FA FF FF ....Y.....U.p...
00409930 59 8B 45 F4 48 83 E8 02 72 0A 74 25 48 74 49 48 Y.E.H...r.t%HtIH
00409940 74 6D EB 7F 55 E8 86 FA FF FF 59 8B 45 08 50 0F tm..U.....Y.E.P.
00409950 B7 45 EE 8B 55 F4 E8 F9 F9 FF FF 59 E9 D2 04 00 .E..U......Y....
00409960 00 8B 45 08 50 8B 45 08 FF 70 0C FF 70 08 E8 41 ..E.P.E..p..p..A
00409970 F9 FF FF 0F B7 C0 8B 04 85 08 B7 42 00 E8 B2 F9 ...........B....
00409980 FF FF 59 E9 AB 04 00 00 8B 45 08 50 8B 45 08 FF ..Y......E.P.E..
00409990 70 0C FF 70 08 E8 1A F9 FF FF 0F B7 C0 8B 04 85 p..p............
004099A0 24 B7 42 00 E8 8B F9 FF FF 59 E9 84 04 00 00 8B $.B......Y......
004099B0 45 08 50 A1 90 B6 42 00 E8 FF FC FF FF 59 E9 70 E.P...B......Y.p
004099C0 04 00 00 8B 45 08 50 A1 94 B6 42 00 E8 EB FC FF ....E.P...B.....
004099D0 FF 59 E9 5C 04 00 00 55 E8 C3 F9 FF FF 59 55 E8 .Y.\...U.....YU.
004099E0 24 FA FF FF 59 C6 45 E0 00 8B 06 89 45 DC E9 AA $...Y.E.....E...
004099F0 00 00 00 8B 45 DC 8A 00 25 FF 00 00 00 0F A3 05 ....E...%.......
00409A00 0C 81 42 00 73 10 8B 45 DC E8 46 21 00 00 89 45 ..B.s..E..F!...E
00409A10 DC E9 87 00 00 00 8B 45 DC 0F B6 00 83 F8 48 7F .......E......H.
00409A20 17 0F 84 82 00 00 00 83 E8 22 74 66 83 E8 05 74 ........."tf...t
00409A30 61 83 E8 1A 74 0E EB 62 83 E8 61 74 07 83 E8 07 a...t..b..at....
00409A40 74 67 EB 56 80 7D E0 00 75 50 BA 70 9E 40 00 B9 tg.V.}..uP.p.@..
00409A50 05 00 00 00 8B 45 DC E8 5C E7 FF FF 85 C0 74 2C .....E..\.....t,
00409A60 BA 78 9E 40 00 B9 03 00 00 00 8B 45 DC E8 46 E7 .x.@.......E..F.
00409A70 FF FF 85 C0 74 16 BA 7C 9E 40 00 B9 04 00 00 00 ....t..|.@......
00409A80 8B 45 DC E8 30 E7 FF FF 85 C0 75 1D C6 45 E1 01 .E..0.....u..E..
00409A90 EB 17 8A 45 E0 34 01 88 45 E0 FF 45 DC 8B 45 DC ...E.4..E..E..E.
00409AA0 80 38 00 0F 85 4A FF FF FF 66 8B 7D EA 80 7D E1 .8...J...f.}..}.
00409AB0 00 74 15 66 85 FF 75 06 66 BF 0C 00 EB 0A 66 83 .t.f..u.f.....f.
00409AC0 FF 0C 76 04 66 83 EF 0C 83 7D F4 02 7E 07 C7 45 ..v.f....}..~..E
00409AD0 F4 02 00 00 00 8B 45 08 50 0F B7 C7 8B 55 F4 E8 ......E.P....U..
00409AE0 70 F8 FF FF 59 E9 49 03 00 00 55 E8 B0 F8 FF FF p...Y.I...U.....
00409AF0 59 55 E8 11 F9 FF FF 59 83 7D F4 02 7E 07 C7 45 YU.....Y.}..~..E
00409B00 F4 02 00 00 00 8B 45 08 50 0F B7 45 E8 8B 55 F4 ......E.P..E..U.
00409B10 E8 3F F8 FF FF 59 E9 18 03 00 00 55 E8 7F F8 FF .?...Y.....U....
00409B20 FF 59 55 E8 E0 F8 FF FF 59 83 7D F4 02 7E 07 C7 .YU.....Y.}..~..
00409B30 45 F4 02 00 00 00 8B 45 08 50 0F B7 45 E6 8B 55 E......E.P..E..U
00409B40 F4 E8 0E F8 FF FF 59 E9 E7 02 00 00 55 E8 4E F8 ......Y.....U.N.
00409B50 FF FF 59 83 7D F4 01 75 14 8B 45 08 50 A1 A4 B6 ..Y.}..u..E.P...
00409B60 42 00 E8 55 FB FF FF 59 E9 C6 02 00 00 8B 45 08 B..U...Y......E.
00409B70 50 A1 A8 B6 42 00 E8 41 FB FF FF 59 E9 B2 02 00 P...B..A...Y....
00409B80 00 55 E8 19 F8 FF FF 59 55 E8 7A F8 FF FF 59 83 .U.....YU.z...Y.
00409B90 7D F4 03 7E 07 C7 45 F4 03 00 00 00 8B 45 08 50 }..~..E......E.P
00409BA0 0F B7 45 E4 8B 55 F4 E8 A8 F7 FF FF 59 E9 81 02 ..E..U......Y...
00409BB0 00 00 55 E8 50 F8 FF FF 59 8B 06 48 89 45 DC BA ..U.P...Y..H.E..
00409BC0 70 9E 40 00 B9 05 00 00 00 8B 45 DC E8 E7 E5 FF p.@.......E.....
00409BD0 FF 85 C0 75 29 66 83 7D EA 0C 72 04 83 45 DC 03 ...u)f.}..r..E..
00409BE0 8B 45 08 50 BA 02 00 00 00 8B 45 DC E8 FF F6 FF .E.P......E.....
00409BF0 FF 59 83 06 04 C6 45 E1 01 E9 35 02 00 00 BA 78 .Y....E...5....x
00409C00 9E 40 00 B9 03 00 00 00 8B 45 DC E8 A8 E5 FF FF .@.......E......
00409C10 85 C0 75 29 66 83 7D EA 0C 72 04 83 45 DC 02 8B ..u)f.}..r..E...
00409C20 45 08 50 BA 01 00 00 00 8B 45 DC E8 C0 F6 FF FF E.P......E......
00409C30 59 83 06 02 C6 45 E1 01 E9 F6 01 00 00 BA 7C 9E Y....E........|.
00409C40 40 00 B9 04 00 00 00 8B 45 DC E8 69 E5 FF FF 85 @.......E..i....
00409C50 C0 75 33 66 83 7D EA 0C 73 11 8B 45 08 50 A1 9C .u3f.}..s..E.P..
00409C60 B6 42 00 E8 CC F6 FF FF 59 EB 0F 8B 45 08 50 A1 .B......Y...E.P.
00409C70 A0 B6 42 00 E8 BB F6 FF FF 59 83 06 03 C6 45 E1 ..B......Y....E.
00409C80 01 E9 AD 01 00 00 BA 84 9E 40 00 B9 04 00 00 00 .........@......
00409C90 8B 45 DC E8 20 E5 FF FF 85 C0 75 31 55 E8 2E F7 .E.. .....u1U...
00409CA0 FF FF 59 8B 45 08 50 8B 45 08 FF 70 0C FF 70 08 ..Y.E.P.E..p..p.
00409CB0 E8 FF F5 FF FF 0F B7 C0 8B 04 85 24 B7 42 00 E8 ...........$.B..
00409CC0 70 F6 FF FF 59 83 06 03 E9 66 01 00 00 BA 8C 9E p...Y....f......
00409CD0 40 00 B9 03 00 00 00 8B 45 DC E8 D9 E4 FF FF 85 @.......E.......
00409CE0 C0 75 31 55 E8 E7 F6 FF FF 59 8B 45 08 50 8B 45 .u1U.....Y.E.P.E
00409CF0 08 FF 70 0C FF 70 08 E8 B8 F5 FF FF 0F B7 C0 8B ..p..p..........
00409D00 04 85 08 B7 42 00 E8 29 F6 FF FF 59 83 06 02 E9 ....B..)...Y....
00409D10 1F 01 00 00 8B 45 08 50 8D 45 FB BA 01 00 00 00 .....E.P.E......
00409D20 E8 CB F5 FF FF 59 E9 08 01 00 00 55 E8 6F F6 FF .....Y.....U.o..
00409D30 FF 59 8B 45 08 50 A1 90 B6 42 00 E8 7C F9 FF FF .Y.E.P...B..|...
00409D40 59 55 E8 C1 F6 FF FF 59 66 83 7D EA 00 75 12 66 YU.....Yf.}..u.f
00409D50 83 7D E8 00 75 0B 66 83 7D E6 00 0F 84 D2 00 00 .}..u.f.}.......
00409D60 00 8B 45 08 50 B8 90 9E 40 00 BA 01 00 00 00 E8 ..E.P...@.......
00409D70 7C F5 FF FF 59 8B 45 08 50 A1 A8 B6 42 00 E8 39 |...Y.E.P...B..9
00409D80 F9 FF FF 59 E9 AA 00 00 00 80 3D 8D B6 42 00 00 ...Y......=..B..
00409D90 0F 84 9D 00 00 00 8B 45 08 50 B8 8D B6 42 00 BA .......E.P...B..
00409DA0 01 00 00 00 E8 47 F5 FF FF 59 E9 84 00 00 00 80 .....G...Y......
00409DB0 3D 98 B6 42 00 00 74 7B 8B 45 08 50 B8 98 B6 42 =..B..t{.E.P...B
00409DC0 00 BA 01 00 00 00 E8 25 F5 FF FF 59 EB 65 8B 06 .......%...Y.e..
00409DD0 89 45 DC EB 1F 8B 06 8A 00 25 FF 00 00 00 0F A3 .E.......%......
00409DE0 05 0C 81 42 00 73 0B 8B 06 E8 66 1D 00 00 89 06 ...B.s....f.....
00409DF0 EB 02 FF 06 8B 06 80 38 00 74 09 8B 06 8A 00 3A .......8.t.....:
00409E00 45 FB 75 D1 8B 45 08 50 8B 16 2B 55 DC 8B 45 DC E.u..E.P..+U..E.
00409E10 E8 DB F4 FF FF 59 8B 06 80 38 00 74 16 FF 06 EB .....Y...8.t....
00409E20 12 8B 45 08 50 8D 45 FB BA 01 00 00 00 E8 BE F4 ..E.P.E.........
00409E30 FF FF 59 8B 06 80 38 00 0F 85 DA F8 FF FF 8B 45 ..Y...8........E
00409E40 08 FF 88 F8 FE FF FF 33 C0 5A 59 59 64 89 10 68 .......3.ZYYd..h
00409E50 69 9E 40 00 8D 45 D4 BA 02 00 00 00 E8 03 A4 FF i.@..E..........
00409E60 FF C3 E9 BD 9D FF FF EB EB 5F 5E 5B 8B E5 5D C3 ........._^[..].
00409E70 41 4D 2F 50 4D 00 00 00 41 2F 50 00 41 4D 50 4D AM/PM...A/P.AMPM
00409E80 00 00 00 00 41 41 41 41 00 00 00 00 41 41 41 00 ....AAAA....AAA.
00409E90 20 00 00 00 55 8B EC 81 C4 F8 FE FF FF 53 56 8B  ...U........SV.
00409EA0 DA 8B F0 33 C0 89 85 FC FE FF FF 33 C0 89 85 F8 ...3.......3....
00409EB0 FE FF FF 85 DB 74 0B 55 8B C3 E8 FD F7 FF FF 59 .....t.U.......Y
00409EC0 EB 0C 55 B8 EC 9E 40 00 E8 EF F7 FF FF 59 8D 95 ..U...@......Y..
00409ED0 00 FF FF FF 8B C6 8B 8D FC FE FF FF E8 4F A4 FF .............O..
00409EE0 FF 5E 5B 8B E5 5D C2 08 00 00 00 00 43 00 00 00 .^[..]......C...
00409EF0 55 8B EC FF 75 0C FF 75 08 33 D2 E8 94 FF FF FF U...u..u.3......
00409F00 5D C2 08 00 53 56 57 8B FA 8B F0 8B 1F EB 01 43 ]...SVW........C
00409F10 8B C6 E8 E9 A5 FF FF 3B D8 7F 07 80 7C 1E FF 20 .......;....|.. 
00409F20 74 ED 89 1F 5F 5E 5B C3 55 8B EC 83 C4 F4 53 56 t..._^[.U.....SV
00409F30 57 89 4D F8 89 55 FC 8B F8 C6 45 F7 00 8B 45 08 W.M..U....E...E.
00409F40 C6 00 00 8B 55 FC 8B C7 E8 B7 FF FF FF 8B 5D FC ....U.........].
00409F50 8B 1B 33 F6 EB 17 8B C6 03 C0 8D 04 80 33 D2 8A ..3..........3..
00409F60 54 1F FF 66 83 EA 30 66 03 C2 8B F0 43 8B C7 E8 T..f..0f....C...
00409F70 8C A5 FF FF 3B D8 7F 11 8A 44 1F FF 04 D0 2C 0A ....;....D....,.
00409F80 73 07 66 81 FE E8 03 72 CD 8B 45 FC 3B 18 7E 1D s.f....r..E.;.~.
00409F90 8B C3 8B 55 FC 8B 12 2A C2 8B 55 08 88 02 8B 45 ...U...*..U....E
00409FA0 FC 89 18 8B 45 F8 66 89 30 C6 45 F7 01 8A 45 F7 ....E.f.0.E...E.
00409FB0 5F 5E 5B 8B E5 5D C2 04 00 8D 40 00 55 8B EC 83 _^[..]....@.U...
00409FC0 C4 F8 53 56 57 33 DB 89 5D F8 8B F9 8B F2 89 45 ..SVW3..]......E
00409FD0 FC 33 C0 55 68 35 A0 40 00 64 FF 30 64 89 20 33 .3.Uh5.@.d.0d. 3
00409FE0 DB 85 FF 74 3A 8B D6 8B 45 FC E8 15 FF FF FF 8D ...t:...E.......
00409FF0 45 F8 50 8B C7 E8 06 A5 FF FF 8B C8 8B 16 8B 45 E.P............E
0040A000 FC E8 5A A7 FF FF 8B 55 F8 8B C7 E8 04 D9 FF FF ..Z....U........
0040A010 85 C0 75 0B 8B C7 E8 E5 A4 FF FF 01 06 B3 01 33 ..u............3
0040A020 C0 5A 59 59 64 89 10 68 3C A0 40 00 8D 45 F8 E8 .ZYYd..h<.@..E..
0040A030 0C A2 FF FF C3 E9 EA 9B FF FF EB F0 8B C3 5F 5E .............._^
0040A040 5B 59 59 5D C3 8D 40 00 53 56 57 51 88 0C 24 8B [YY]..@.SVWQ..$.
0040A050 FA 8B F0 33 DB 8B D7 8B C6 E8 A6 FE FF FF 8B C6 ...3............
0040A060 E8 9B A4 FF FF 3B 07 7C 0F 8B 07 8A 44 06 FF 3A .....;.|....D..:
0040A070 04 24 75 04 FF 07 B3 01 8B C3 5A 5F 5E 5B C3 90 .$u.......Z_^[..
0040A080 53 56 57 8B F0 33 DB BF 01 00 00 00 EB 29 8A 44 SVW..3.......).D
0040A090 3E FF 24 DF 2C 44 74 1A FE C8 74 0A 2C 08 74 0E >.$.,Dt...t.,.t.
0040A0A0 2C 0C 74 06 EB 10 B3 02 EB 1A B3 02 EB 16 33 DB ,.t...........3.
0040A0B0 EB 12 B3 01 EB 0E 47 8B C6 E8 42 A4 FF FF 3B F8 ......G...B...;.
0040A0C0 7E CC 33 DB 8B C3 5F 5E 5B C3 8B C0 53 56 8B DA ~.3..._^[...SV..
0040A0D0 8B F0 EB 23 8B 03 8A 44 06 FF 25 FF 00 00 00 0F ...#...D..%.....
0040A0E0 A3 05 0C 81 42 00 73 0D 8B 13 8B C6 E8 B3 1A 00 ....B.s.........
0040A0F0 00 89 03 EB 02 FF 03 8B C6 E8 02 A4 FF FF 3B 03 ..............;.
0040A100 7C 0C 8B 03 8A 44 06 FF 04 D0 2C 0A 73 C6 5E 5B |....D....,.s.^[
0040A110 C3 8D 40 00 53 56 57 55 51 8B E8 33 C0 89 04 24 ..@.SVWUQ..3...$
0040A120 BF 07 00 00 00 BB 54 B7 42 00 BE 70 B7 42 00 83 ......T.B..p.B..
0040A130 3B 00 74 29 8B C5 E8 C5 A5 FF FF 50 8B 03 E8 BD ;.t).......P....
0040A140 A5 FF FF 5A E8 17 1B 00 00 85 C0 74 07 8B 06 89 ...Z.......t....
0040A150 04 24 EB 09 83 C6 04 83 C3 04 4F 75 D2 8B 04 24 .$........Ou...$
0040A160 5A 5D 5F 5E 5B C3 8B C0 55 8B EC 53 8B D8 83 3D Z]_^[...U..S...=
0040A170 48 B7 42 00 12 75 3A 83 FB 63 7F 24 E8 5B F1 FF H.B..u:..c.$.[..
0040A180 FF 0F B7 C8 8B 45 08 8B 40 FC 99 33 C2 2B C2 03 .....E..@..3.+..
0040A190 C8 8B C1 B9 64 00 00 00 99 F7 F9 6B C0 64 03 D8 ....d......k.d..
0040A1A0 8B 45 08 83 78 FC 00 7E 0E 8B 45 08 F7 58 FC EB .E..x..~..E..X..
0040A1B0 06 8B 45 08 FF 48 FC 8B 45 08 8B 40 FC 03 C3 5B ..E..H..E..@...[
0040A1C0 5D C3 8B C0 55 8B EC 83 C4 D8 53 56 57 33 DB 89 ]...U.....SVW3..
0040A1D0 5D D8 89 5D DC 89 5D E0 89 5D E4 89 4D F8 8B DA ]..]..]..]..M...
0040A1E0 8B F0 33 C0 55 68 DF A4 40 00 64 FF 30 64 89 20 ..3.Uh..@.d.0d. 
0040A1F0 33 FF 66 C7 45 EE 00 00 66 C7 45 EC 00 00 C6 45 3.f.E...f.E....E
0040A200 E8 00 C6 45 F7 00 A1 90 B6 42 00 E8 70 FE FF FF ...E.....B..p...
0040A210 88 45 F6 33 C0 89 45 FC 83 3D 90 B6 42 00 00 74 .E.3..E..=..B..t
0040A220 3E A1 90 B6 42 00 80 38 67 75 34 8B D3 8B C6 E8 >...B..8gu4.....
0040A230 98 FE FF FF 8D 45 E0 50 8B 0B 49 BA 01 00 00 00 .....E.P..I.....
0040A240 8B C6 E8 19 A5 FF FF 8B 45 E0 8D 55 E4 E8 12 D7 ........E..U....
0040A250 FF FF 8B 45 E4 E8 BA FE FF FF 89 45 FC EB 1C 8B ...E.......E....
0040A260 15 90 B6 42 00 B8 F8 A4 40 00 E8 B5 19 00 00 85 ...B....@.......
0040A270 C0 7E 08 A1 70 B7 42 00 89 45 FC 8D 45 EB 50 8D .~..p.B..E..E.P.
0040A280 4D F4 8B D3 8B C6 E8 9D FC FF FF 84 C0 0F 84 31 M..............1
0040A290 02 00 00 8B D3 8A 0D 8D B6 42 00 8B C6 E8 A6 FD .........B......
0040A2A0 FF FF 84 C0 0F 84 1A 02 00 00 8D 45 EA 50 8D 4D ...........E.P.M
0040A2B0 F2 8B D3 8B C6 E8 6E FC FF FF 84 C0 0F 84 02 02 ......n.........
0040A2C0 00 00 8B D3 8A 0D 8D B6 42 00 8B C6 E8 77 FD FF ........B....w..
0040A2D0 FF 84 C0 0F 84 CE 00 00 00 8D 45 E9 50 8D 4D F0 ..........E.P.M.
0040A2E0 8B D3 8B C6 E8 3F FC FF FF 84 C0 0F 84 D3 01 00 .....?..........
0040A2F0 00 8A 45 F6 2C 01 72 08 74 22 FE C8 74 3A EB 52 ..E.,.r.t"..t:.R
0040A300 66 8B 7D F0 8A 45 E9 88 45 E8 66 8B 45 F4 66 89 f.}..E..E.f.E.f.
0040A310 45 EE 66 8B 45 F2 66 89 45 EC EB 36 66 8B 7D F0 E.f.E.f.E..6f.}.
0040A320 8A 45 E9 88 45 E8 66 8B 45 F2 66 89 45 EE 66 8B .E..E.f.E.f.E.f.
0040A330 45 F4 66 89 45 EC EB 1A 66 8B 7D F4 8A 45 EB 88 E.f.E...f.}..E..
0040A340 45 E8 66 8B 45 F2 66 89 45 EE 66 8B 45 F0 66 89 E.f.E.f.E.f.E.f.
0040A350 45 EC 83 7D FC 00 7E 0E 55 0F B7 C7 E8 07 FE FF E..}..~.U.......
0040A360 FF 59 8B F8 EB 70 80 7D E8 02 77 6A E8 6B EF FF .Y...p.}..wj.k..
0040A370 FF 0F B7 C8 0F B7 05 D8 80 42 00 2B C8 8B C1 51 .........B.+...Q
0040A380 B9 64 00 00 00 99 F7 F9 59 66 6B C0 64 66 03 F8 .d......Yfk.df..
0040A390 66 83 3D D8 80 42 00 00 76 3C 0F B7 C7 3B C8 7E f.=..B..v<...;.~
0040A3A0 35 66 83 C7 64 EB 2F E8 30 EF FF FF 8B F8 80 7D 5f..d./.0......}
0040A3B0 F6 01 75 12 66 8B 45 F4 66 89 45 EC 66 8B 45 F2 ..u.f.E.f.E.f.E.
0040A3C0 66 89 45 EE EB 10 66 8B 45 F4 66 89 45 EE 66 8B f.E...f.E.f.E.f.
0040A3D0 45 F2 66 89 45 EC 8B D3 8A 0D 8D B6 42 00 8B C6 E.f.E.......B...
0040A3E0 E8 63 FC FF FF 8B D3 8B C6 E8 16 FB FF FF 80 3D .c.............=
0040A3F0 50 B7 42 00 00 0F 84 B3 00 00 00 8B 15 90 B6 42 P.B............B
0040A400 00 B8 04 A5 40 00 E8 DD A3 FF FF 85 C0 0F 84 9B ....@...........
0040A410 00 00 00 A1 A4 B6 42 00 8A 00 04 D0 2C 0A 73 12 ......B.....,.s.
0040A420 8B D3 8B C6 E8 A3 FC FF FF E9 80 00 00 00 EB 02 ................
0040A430 FF 03 8B C6 E8 C7 A0 FF FF 3B 03 7C 09 8B 03 80 .........;.|....
0040A440 7C 06 FF 20 75 EA 8B D3 8B C6 E8 B5 FA FF FF 8B |.. u...........
0040A450 C6 E8 AA A0 FF FF 3B 03 7C 54 8D 45 DC 50 A1 9C ......;.|T.E.P..
0040A460 B6 42 00 E8 98 A0 FF FF 8B C8 8B 13 8B C6 E8 ED .B..............
0040A470 A2 FF FF 8B 55 DC A1 9C B6 42 00 E8 94 D4 FF FF ....U....B......
0040A480 85 C0 74 2A 8D 45 D8 50 A1 A0 B6 42 00 E8 6E A0 ..t*.E.P...B..n.
0040A490 FF FF 8B C8 8B 13 8B C6 E8 C3 A2 FF FF 8B 55 D8 ..............U.
0040A4A0 A1 A0 B6 42 00 E8 6A D4 FF FF 85 C0 75 84 8B 45 ...B..j.....u..E
0040A4B0 F8 50 66 8B 4D EC 66 8B 55 EE 8B C7 E8 B3 EB FF .Pf.M.f.U.......
0040A4C0 FF 88 45 F7 33 C0 5A 59 59 64 89 10 68 E6 A4 40 ..E.3.ZYYd..h..@
0040A4D0 00 8D 45 D8 BA 04 00 00 00 E8 86 9D FF FF C3 E9 ..E.............
0040A4E0 40 97 FF FF EB EB 8A 45 F7 5F 5E 5B 8B E5 5D C3 @......E._^[..].
0040A4F0 FF FF FF FF 01 00 00 00 65 00 00 00 FF FF FF FF ........e.......
0040A500 03 00 00 00 64 64 64 00 53 56 57 55 83 C4 F0 89 ....ddd.SVWU....
0040A510 0C 24 8B F2 8B E8 33 DB 83 CF FF 8B D6 8B 0D 9C .$....3.........
0040A520 B6 42 00 8B C5 E8 92 FA FF FF 84 C0 75 12 8B D6 .B..........u...
0040A530 B9 EC A6 40 00 8B C5 E8 80 FA FF FF 84 C0 74 04 ...@..........t.
0040A540 33 FF EB 2A 8B D6 8B 0D A0 B6 42 00 8B C5 E8 69 3..*......B....i
0040A550 FA FF FF 84 C0 75 12 8B D6 B9 F8 A6 40 00 8B C5 .....u......@...
0040A560 E8 57 FA FF FF 84 C0 74 05 BF 0C 00 00 00 85 FF .W.....t........
0040A570 7C 09 8B D6 8B C5 E8 89 F9 FF FF 8D 44 24 0C 50 |...........D$.P
0040A580 8D 4C 24 08 8B D6 8B C5 E8 9B F9 FF FF 84 C0 0F .L$.............
0040A590 84 45 01 00 00 66 C7 44 24 06 00 00 66 C7 44 24 .E...f.D$...f.D$
0040A5A0 08 00 00 66 C7 44 24 0A 00 00 8B D6 8A 0D 98 B6 ...f.D$.........
0040A5B0 42 00 8B C5 E8 8F FA FF FF 84 C0 74 74 8D 44 24 B..........tt.D$
0040A5C0 0C 50 8D 4C 24 0A 8B D6 8B C5 E8 59 F9 FF FF 84 .P.L$......Y....
0040A5D0 C0 0F 84 03 01 00 00 8B D6 8A 0D 98 B6 42 00 8B .............B..
0040A5E0 C5 E8 62 FA FF FF 84 C0 74 47 8D 44 24 0C 50 8D ..b.....tG.D$.P.
0040A5F0 4C 24 0C 8B D6 8B C5 E8 2C F9 FF FF 84 C0 0F 84 L$......,.......
0040A600 D6 00 00 00 8B D6 8A 0D 8B B6 42 00 8B C5 E8 35 ..........B....5
0040A610 FA FF FF 84 C0 74 1A 8D 44 24 0C 50 8D 4C 24 0E .....t..D$.P.L$.
0040A620 8B D6 8B C5 E8 FF F8 FF FF 84 C0 0F 84 A9 00 00 ................
0040A630 00 85 FF 7D 53 8B D6 8B 0D 9C B6 42 00 8B C5 E8 ...}S......B....
0040A640 78 F9 FF FF 84 C0 75 12 8B D6 B9 EC A6 40 00 8B x.....u......@..
0040A650 C5 E8 66 F9 FF FF 84 C0 74 04 33 FF EB 2A 8B D6 ..f.....t.3..*..
0040A660 8B 0D A0 B6 42 00 8B C5 E8 4F F9 FF FF 84 C0 75 ....B....O.....u
0040A670 12 8B D6 B9 F8 A6 40 00 8B C5 E8 3D F9 FF FF 84 ......@....=....
0040A680 C0 74 05 BF 0C 00 00 00 85 FF 7C 24 66 83 7C 24 .t........|$f.|$
0040A690 04 00 74 46 66 83 7C 24 04 0C 77 3E 66 83 7C 24 ..tFf.|$..w>f.|$
0040A6A0 04 0C 75 07 66 C7 44 24 04 00 00 66 01 7C 24 04 ..u.f.D$...f.|$.
0040A6B0 8B D6 8B C5 E8 4B F8 FF FF 66 8B 44 24 0A 50 8B .....K...f.D$.P.
0040A6C0 44 24 04 50 66 8B 4C 24 10 66 8B 54 24 0E 66 8B D$.Pf.L$.f.T$.f.
0040A6D0 44 24 0C E8 94 E8 FF FF 8B D8 8B C3 83 C4 10 5D D$.............]
0040A6E0 5F 5E 5B C3 FF FF FF FF 02 00 00 00 41 4D 00 00 _^[.........AM..
0040A6F0 FF FF FF FF 02 00 00 00 50 4D 00 00 53 56 51 8B ........PM..SVQ.
0040A700 F2 8B D8 C7 04 24 01 00 00 00 8B CE 8B D4 8B C3 .....$..........
0040A710 E8 AF FA FF FF 84 C0 74 0C 8B C3 E8 E0 9D FF FF .......t........
0040A720 3B 04 24 7C 04 33 C0 EB 02 B0 01 5A 5E 5B C3 90 ;.$|.3.....Z^[..
0040A730 53 56 51 8B F2 8B D8 C7 04 24 01 00 00 00 8B CE SVQ......$......
0040A740 8B D4 8B C3 E8 BF FD FF FF 84 C0 74 0C 8B C3 E8 ...........t....
0040A750 AC 9D FF FF 3B 04 24 7C 04 33 C0 EB 02 B0 01 5A ....;.$|.3.....Z
0040A760 5E 5B C3 90 53 56 57 83 C4 E8 8B FA 8B F0 B3 01 ^[..SVW.........
0040A770 C7 04 24 01 00 00 00 33 C0 89 44 24 10 89 44 24 ..$....3..D$..D$
0040A780 14 8D 4C 24 08 8B D4 8B C6 E8 36 FA FF FF 84 C0 ..L$......6.....
0040A790 74 1D 8B C6 E8 67 9D FF FF 3B 04 24 7C 1E 8D 4C t....g...;.$|..L
0040A7A0 24 10 8B D4 8B C6 E8 5D FD FF FF 84 C0 75 0D 8B $......].....u..
0040A7B0 D7 8B C6 E8 78 FF FF FF 8B D8 EB 27 DD 44 24 08 ....x......'.D$.
0040A7C0 D8 1D EC A7 40 00 DF E0 9E 72 0D DD 44 24 08 DC ....@....r..D$..
0040A7D0 44 24 10 DD 1F 9B EB 0B DD 44 24 08 DC 64 24 10 D$.......D$..d$.
0040A7E0 DD 1F 9B 8B C3 83 C4 18 5F 5E 5B C3 00 00 00 00 ........_^[.....
0040A7F0 53 81 C4 00 FF FF FF 8B DA 6A 00 68 00 01 00 00 S........j.h....
0040A800 8D 54 24 08 52 6A 00 50 6A 00 68 00 32 00 00 E8 .T$.Rj.Pj.h.2...
0040A810 3C BC FF FF EB 01 48 85 C0 7E 0E 8A 54 04 FF 80 <.....H..~..T...
0040A820 EA 21 72 F2 80 EA 0D 74 ED 8B D4 8B CB 91 E8 FD .!r....t........
0040A830 9A FF FF 81 C4 00 01 00 00 5B C3 90 55 8B EC 81 .........[..U...
0040A840 C4 00 FF FF FF 53 56 8B F1 8B 5D 08 68 00 01 00 .....SV...].h...
0040A850 00 8D 8D 00 FF FF FF 51 52 50 E8 51 BC FF FF 85 .......QRP.Q....
0040A860 C0 7E 12 8B C8 49 8D 95 00 FF FF FF 8B C3 E8 BD .~...I..........
0040A870 9A FF FF EB 09 8B C3 8B D6 E8 16 9A FF FF 5E 5B ..............^[
0040A880 8B E5 5D C2 04 00 8B C0 53 56 57 51 8B D9 8B F2 ..].....SVWQ....
0040A890 8B F8 6A 02 8D 44 24 04 50 56 57 E8 10 BC FF FF ..j..D$.PVW.....
0040A8A0 85 C0 7E 05 8A 04 24 EB 02 8B C3 5A 5F 5E 5B C3 ..~...$....Z_^[.
0040A8B0 55 8B EC 51 53 56 57 89 4D FC 8B FA 8B F0 8B 5D U..QSVW.M......]
0040A8C0 08 53 8B 45 10 8B 40 FC 33 C9 8B D6 E8 6B FF FF .S.E..@.3....k..
0040A8D0 FF 83 3B 00 75 0D 8B 45 FC 8B 04 B8 8B D3 E8 6D ..;.u..E.......m
0040A8E0 B7 FF FF 5F 5E 5B 59 5D C2 08 00 90 55 8B EC 33 ..._^[Y]....U..3
0040A8F0 C9 51 51 51 51 51 51 53 56 57 33 C0 55 68 FF A9 .QQQQQQSVW3.Uh..
0040A900 40 00 64 FF 30 64 89 20 E8 E3 BB FF FF 89 45 FC @.d.0d. ......E.
0040A910 BB 01 00 00 00 BE AC B6 42 00 BF DC B6 42 00 55 ........B....B.U
0040A920 6A 0B 8D 45 F4 50 B9 84 81 42 00 8B D3 4A 8D 43 j..E.P...B...J.C
0040A930 44 48 E8 79 FF FF FF 59 8B 55 F4 8B C6 E8 52 99 DH.y...Y.U....R.
0040A940 FF FF 55 6A 0B 8D 45 F0 50 B9 B4 81 42 00 8B D3 ..Uj..E.P...B...
0040A950 4A 8D 43 38 48 E8 56 FF FF FF 59 8B 55 F0 8B C7 J.C8H.V...Y.U...
0040A960 E8 2F 99 FF FF 43 83 C7 04 83 C6 04 83 FB 0D 75 ./...C.........u
0040A970 AE BB 01 00 00 00 BE 0C B7 42 00 BF 28 B7 42 00 .........B..(.B.
0040A980 8D 43 05 B9 07 00 00 00 99 F7 F9 89 55 F8 55 6A .C..........U.Uj
0040A990 06 8D 45 EC 50 B9 E4 81 42 00 8B D3 4A 8B 45 F8 ..E.P...B...J.E.
0040A9A0 83 C0 31 E8 08 FF FF FF 59 8B 55 EC 8B C6 E8 E1 ..1.....Y.U.....
0040A9B0 98 FF FF 55 6A 06 8D 45 E8 50 B9 00 82 42 00 8B ...Uj..E.P...B..
0040A9C0 D3 4A 8B 45 F8 83 C0 2A E8 E3 FE FF FF 59 8B 55 .J.E...*.....Y.U
0040A9D0 E8 8B C7 E8 BC 98 FF FF 43 83 C7 04 83 C6 04 83 ........C.......
0040A9E0 FB 08 75 9C 33 C0 5A 59 59 64 89 10 68 06 AA 40 ..u.3.ZYYd..h..@
0040A9F0 00 8D 45 E8 BA 04 00 00 00 E8 66 98 FF FF C3 E9 ..E.......f.....
0040AA00 20 92 FF FF EB EB 5F 5E 5B 8B E5 5D C3 8D 40 00  ....._^[..]..@.
0040AA10 55 8B EC 53 56 33 F6 BB 01 00 00 00 EB 06 83 FB U..SV3..........
0040AA20 07 74 1F 43 83 3C 9D 50 B7 42 00 00 75 F0 8D 04 .t.C.<.P.B..u...
0040AA30 9D 50 B7 42 00 8B 55 08 E8 FB 99 FF FF BE 01 00 .P.B..U.........
0040AA40 00 00 8B C6 5E 5B 5D C2 04 00 8B C0 55 8B EC 6A ....^[].....U..j
0040AA50 00 53 56 33 C0 55 68 B1 AA 40 00 64 FF 30 64 89 .SV3.Uh..@.d.0d.
0040AA60 20 33 F6 BB 01 00 00 00 EB 06 83 FB 07 74 2C 43  3...........t,C
0040AA70 83 3C 9D 6C B7 42 00 FF 75 F0 8D 45 FC 8B 55 08 .<.l.B..u..E..U.
0040AA80 E8 B3 99 FF FF 8B 45 FC 33 D2 E8 AD D0 FF FF 89 ......E.3.......
0040AA90 04 9D 6C B7 42 00 BE 01 00 00 00 33 C0 5A 59 59 ..l.B......3.ZYY
0040AAA0 64 89 10 68 B8 AA 40 00 8D 45 FC E8 90 97 FF FF d..h..@..E......
0040AAB0 C3 E9 6E 91 FF FF EB F0 8B C6 5E 5B 59 5D C2 04 ..n.......^[Y]..
0040AAC0 00 8D 40 00 55 8B EC 6A 00 56 33 C0 55 68 5B AB ..@.U..j.V3.Uh[.
0040AAD0 40 00 64 FF 30 64 89 20 8D 45 FC 50 E8 0F BA FF @.d.0d. .E.P....
0040AAE0 FF B9 70 AB 40 00 BA 0B 10 00 00 E8 4C FD FF FF ..p.@.......L...
0040AAF0 8B 45 FC BA 01 00 00 00 E8 3F D0 FF FF 8B F0 8B .E.......?......
0040AB00 C6 83 C0 FD 83 E8 03 73 3C 6A 04 56 E8 DF B9 FF .......s<j.V....
0040AB10 FF 50 68 10 AA 40 00 E8 04 B9 FF FF BA 07 00 00 .Ph..@..........
0040AB20 00 B8 70 B7 42 00 C7 00 FF FF FF FF 83 C0 04 4A ..p.B..........J
0040AB30 75 F4 6A 03 56 E8 B6 B9 FF FF 50 68 4C AA 40 00 u.j.V.....PhL.@.
0040AB40 E8 DB B8 FF FF 33 C0 5A 59 59 64 89 10 68 62 AB .....3.ZYYd..hb.
0040AB50 40 00 8D 45 FC E8 E6 96 FF FF C3 E9 C4 90 FF FF @..E............
0040AB60 EB F0 5E 59 5D C3 00 00 FF FF FF FF 01 00 00 00 ..^Y]...........
0040AB70 31 00 00 00 55 8B EC 33 C9 51 51 51 51 51 53 56 1...U..3.QQQQQSV
0040AB80 57 8B FA 8B F0 33 C0 55 68 3E AD 40 00 64 FF 30 W....3.Uh>.@.d.0
0040AB90 64 89 20 BB 01 00 00 00 8B C7 E8 A1 96 FF FF 8D d. .............
0040ABA0 45 F8 50 E8 48 B9 FF FF B9 54 AD 40 00 BA 09 10 E.P.H....T.@....
0040ABB0 00 00 E8 85 FC FF FF 8B 45 F8 BA 01 00 00 00 E8 ........E.......
0040ABC0 78 CF FF FF 83 C0 FD 83 E8 03 0F 82 44 01 00 00 x...........D...
0040ABD0 A1 48 B7 42 00 83 E8 04 74 0C 83 C0 F3 83 E8 02 .H.B....t.......
0040ABE0 72 04 33 C0 EB 02 B0 01 84 C0 74 35 EB 23 8A 44 r.3.......t5.#.D
0040ABF0 1E FF 2C 47 74 1A 2C 20 74 16 8D 45 F4 8A 54 1E ..,Gt., t..E..T.
0040AC00 FF E8 22 98 FF FF 8B 55 F4 8B C7 E8 F8 98 FF FF .."....U........
0040AC10 43 8B C6 E8 E8 98 FF FF 3B D8 7E D2 E9 02 01 00 C.......;.~.....
0040AC20 00 8B C7 8B D6 E8 6A 96 FF FF E9 F4 00 00 00 8A ......j.........
0040AC30 44 1E FF 25 FF 00 00 00 0F A3 05 0C 81 42 00 73 D..%.........B.s
0040AC40 2E 8B D3 8B C6 E8 1E 0F 00 00 89 45 FC 8D 45 F0 ...........E..E.
0040AC50 50 8B 4D FC 8B D3 8B C6 E8 03 9B FF FF 8B 55 F0 P.M...........U.
0040AC60 8B C7 E8 A1 98 FF FF 03 5D FC E9 A5 00 00 00 BA ........].......
0040AC70 58 AD 40 00 8D 44 1E FF B9 02 00 00 00 E8 36 D5 X.@..D........6.
0040AC80 FF FF 85 C0 75 0F 8B C7 BA 64 AD 40 00 E8 76 98 ....u....d.@..v.
0040AC90 FF FF 43 EB 7E BA 68 AD 40 00 8D 44 1E FF B9 04 ..C.~.h.@..D....
0040ACA0 00 00 00 E8 10 D5 FF FF 85 C0 75 11 8B C7 BA 78 ..........u....x
0040ACB0 AD 40 00 E8 50 98 FF FF 83 C3 03 EB 56 BA 80 AD .@..P.......V...
0040ACC0 40 00 8D 44 1E FF B9 02 00 00 00 E8 E8 D4 FF FF @..D............
0040ACD0 85 C0 75 0F 8B C7 BA 8C AD 40 00 E8 28 98 FF FF ..u......@..(...
0040ACE0 43 EB 30 8A 44 1E FF 2C 59 74 04 2C 20 75 0E 8B C.0.D..,Yt., u..
0040ACF0 C7 BA 98 AD 40 00 E8 0D 98 FF FF EB 16 8D 45 EC ....@.........E.
0040AD00 8A 54 1E FF E8 1F 97 FF FF 8B 55 EC 8B C7 E8 F5 .T........U.....
0040AD10 97 FF FF 43 8B C6 E8 E5 97 FF FF 3B D8 0F 8E 0C ...C.......;....
0040AD20 FF FF FF 33 C0 5A 59 59 64 89 10 68 45 AD 40 00 ...3.ZYYd..hE.@.
0040AD30 8D 45 EC BA 04 00 00 00 E8 27 95 FF FF C3 E9 E1 .E.......'......
0040AD40 8E FF FF EB EB 5F 5E 5B 8B E5 5D C3 FF FF FF FF ....._^[..].....
0040AD50 01 00 00 00 31 00 00 00 67 67 00 00 FF FF FF FF ....1...gg......
0040AD60 03 00 00 00 67 67 67 00 79 79 79 79 00 00 00 00 ....ggg.yyyy....
0040AD70 FF FF FF FF 04 00 00 00 65 65 65 65 00 00 00 00 ........eeee....
0040AD80 79 79 00 00 FF FF FF FF 02 00 00 00 65 65 00 00 yy..........ee..
0040AD90 FF FF FF FF 01 00 00 00 65 00 00 00 85 C0 74 05 ........e.....t.
0040ADA0 2D 00 10 00 00 C3 8B C0 55 8B EC 81 C4 A4 FB FF -.......U.......
0040ADB0 FF 53 56 57 8B F9 8B F2 8B D8 6A 1C 8D 85 CC FC .SVW......j.....
0040ADC0 FF FF 50 56 E8 CF B7 FF FF 81 BD DC FC FF FF 00 ..PV............
0040ADD0 10 00 00 75 1C 68 05 01 00 00 8D 85 EA FD FF FF ...u.h..........
0040ADE0 50 8B 85 D0 FC FF FF 50 E8 CB B6 FF FF 85 C0 75 P......P.......u
0040ADF0 23 68 05 01 00 00 8D 85 EA FD FF FF 50 A1 68 B6 #h..........P.h.
0040AE00 42 00 50 E8 B0 B6 FF FF 8B C6 E8 8D FF FF FF 89 B.P.............
0040AE10 45 F4 EB 09 2B B5 D0 FC FF FF 89 75 F4 8D 85 EA E...+......u....
0040AE20 FD FF FF B2 5C E8 F6 0E 00 00 8B D0 42 8D 85 EF ....\.......B...
0040AE30 FE FF FF B9 04 01 00 00 E8 1B D3 FF FF B8 38 AF ..............8.
0040AE40 40 00 89 45 FC B8 38 AF 40 00 89 45 F8 8B C3 8B @..E..8.@..E....
0040AE50 15 74 6B 40 00 E8 5E 8A FF FF 84 C0 74 29 8B 43 .tk@..^.....t).C
0040AE60 04 E8 9A 98 FF FF 89 45 FC 8B 45 FC E8 BF D2 FF .......E..E.....
0040AE70 FF 85 C0 74 12 8B 55 FC 80 7C 02 FF 2E 74 08 B8 ...t..U..|...t..
0040AE80 3C AF 40 00 89 45 F8 68 00 01 00 00 8D 85 EA FC <.@..E.h........
0040AE90 FF FF 50 A1 C0 A9 42 00 8B 40 04 50 A1 68 B6 42 ..P...B..@.P.h.B
0040AEA0 00 E8 AA A6 FF FF 50 E8 BC B8 FF FF 8D 95 A4 FB ......P.........
0040AEB0 FF FF 8B 03 E8 DF 87 FF FF 8D 85 A4 FB FF FF 89 ................
0040AEC0 85 A4 FC FF FF C6 85 A8 FC FF FF 04 8D 85 EF FE ................
0040AED0 FF FF 89 85 AC FC FF FF C6 85 B0 FC FF FF 06 8B ................
0040AEE0 45 F4 89 85 B4 FC FF FF C6 85 B8 FC FF FF 05 8B E...............
0040AEF0 45 FC 89 85 BC FC FF FF C6 85 C0 FC FF FF 06 8B E...............
0040AF00 45 F8 89 85 C4 FC FF FF C6 85 C8 FC FF FF 06 8D E...............
0040AF10 85 A4 FC FF FF 50 6A 04 8D 8D EA FC FF FF 8B 55 .....Pj........U
0040AF20 08 8B C7 E8 90 D7 FF FF 8B C7 E8 01 D2 FF FF 5F ..............._
0040AF30 5E 5B 8B E5 5D C2 04 00 00 00 00 00 2E 00 00 00 ^[..]...........
0040AF40 81 C4 BC FB FF FF 68 00 04 00 00 8D 4C 24 48 E8 ......h.....L$H.
0040AF50 54 FE FF FF A1 C0 A8 42 00 80 38 00 74 5E A1 10 T......B..8.t^..
0040AF60 A7 42 00 E8 2C 80 FF FF E8 1B 7C FF FF 8D 44 24 .B..,.....|...D$
0040AF70 44 50 8D 44 24 48 50 E8 AC B7 FF FF 6A 00 8D 44 DP.D$HP.....j..D
0040AF80 24 04 50 8D 44 24 4C E8 A4 D1 FF FF 50 8D 44 24 $.P.D$L.....P.D$
0040AF90 50 50 6A F4 E8 37 B5 FF FF 50 E8 11 B6 FF FF 6A PPj..7...P.....j
0040AFA0 00 8D 44 24 04 50 6A 02 68 04 B0 40 00 6A F4 E8 ..D$.Pj.h..@.j..
0040AFB0 1C B5 FF FF 50 E8 F6 B5 FF FF EB 36 6A 40 8D 44 ....P......6j@.D
0040AFC0 24 08 50 A1 CC A6 42 00 8B 40 04 50 A1 68 B6 42 $.P...B..@.P.h.B
0040AFD0 00 E8 7A A5 FF FF 50 E8 8C B7 FF FF 68 10 20 00 ..z...P.....h. .
0040AFE0 00 8D 44 24 08 50 8D 44 24 4C 50 6A 00 E8 7E B7 ..D$.P.D$LPj..~.
0040AFF0 FF FF 81 C4 44 04 00 00 C3 00 00 00 FF FF FF FF ....D...........
0040B000 02 00 00 00 0D 0A 00 00                         ........       

;; fn0040B008: 0040B008
;;   Called from:
;;     004195CA (in fn004195A0)
;;     00419666 (in fn004195F4)
fn0040B008 proc
	push	ebx
	push	esi
	push	edi
	test	dl,dl
	jz	0040B017

l0040B00F:
	add	esp,F0
	call	00403990

l0040B017:
	mov	esi,ecx
	mov	ebx,edx
	mov	edi,eax
	lea	eax,[edi+04]
	mov	edx,esi
	call	00404294
	mov	eax,edi
	test	bl,bl
	jz	0040B03C

l0040B02D:
	call	004039E8
	pop	dword ptr fs:[00000000]
	add	esp,0C

l0040B03C:
	mov	eax,edi
	pop	edi
	pop	esi
	pop	ebx
	ret
0040B042       8B C0                                       ..           

;; fn0040B044: 0040B044
;;   Called from:
;;     004142E4 (in fn004142BC)
fn0040B044 proc
	push	ebp
	mov	ebp,esp
	push	00
	push	ebx
	push	esi
	push	edi
	test	dl,dl
	jz	0040B058

l0040B050:
	add	esp,F0
	call	00403990

l0040B058:
	mov	esi,ecx
	mov	ebx,edx
	mov	edi,eax
	xor	eax,eax
	push	ebp
	push	0040B09E
	push	dword ptr fs:[eax]
	mov	fs:[eax],esp
	lea	eax,[ebp-04]
	push	eax
	mov	edx,[ebp+0C]
	mov	ecx,[ebp+08]
	mov	eax,esi
	call	00408704
	mov	edx,[ebp-04]
	lea	eax,[edi+04]
	call	00404294
	xor	eax,eax
	pop	edx
	pop	ecx
	pop	ecx
	mov	fs:[eax],edx
	push	0040B0A5
	lea	eax,[ebp-04]
	call	00404240
	ret
0040B09E                                           E9 81               ..
0040B0A0 8B FF FF EB F0 8B C7 84 DB 74 0F E8 38 89 FF FF .........t..8...
0040B0B0 64 8F 05 00 00 00 00 83 C4 0C 8B C7 5F 5E 5B 59 d..........._^[Y
0040B0C0 5D C2 08 00                                     ]...           

;; fn0040B0C4: 0040B0C4
;;   Called from:
;;     004193C8 (in fn00419390)
;;     00419570 (in fn00419564)
;;     00419588 (in fn0041957C)
;;     00424815 (in fn004247EC)
;;     00424862 (in fn004247EC)
fn0040B0C4 proc
	push	ebx
	push	esi
	push	edi
	test	dl,dl
	jz	0040B0D3

l0040B0CB:
	add	esp,F0
	call	00403990

l0040B0D3:
	mov	esi,ecx
	mov	ebx,edx
	mov	edi,eax
	lea	edx,[edi+04]
	mov	eax,esi
	call	00406050
	mov	eax,edi
	test	bl,bl
	jz	0040B0F8

l0040B0E9:
	call	004039E8
	pop	dword ptr fs:[00000000]
	add	esp,0C

l0040B0F8:
	mov	eax,edi
	pop	edi
	pop	esi
	pop	ebx
	ret
0040B0FE                                           8B C0               ..

;; fn0040B100: 0040B100
;;   Called from:
;;     00407740 (in fn0040772C)
fn0040B100 proc
	push	ebp
	mov	ebp,esp
	push	00
	push	00
	push	ebx
	push	esi
	push	edi
	test	dl,dl
	jz	0040B116

l0040B10E:
	add	esp,F0
	call	00403990

l0040B116:
	mov	esi,ecx
	mov	ebx,edx
	mov	edi,eax
	xor	eax,eax
	push	ebp
	push	0040B16C
	push	dword ptr fs:[eax]
	mov	fs:[eax],esp
	lea	eax,[ebp-04]
	push	eax
	lea	edx,[ebp-08]
	mov	eax,esi
	call	00406050
	mov	eax,[ebp-08]
	mov	edx,[ebp+0C]
	mov	ecx,[ebp+08]
	call	00408704
	mov	edx,[ebp-04]
	lea	eax,[edi+04]
	call	00404294
	xor	eax,eax
	pop	edx
	pop	ecx
	pop	ecx
	mov	fs:[eax],edx
	push	0040B173
	lea	eax,[ebp-08]
	mov	edx,00000002
	call	00404264
	ret
0040B16C                                     E9 B3 8A FF             ....
0040B170 FF EB EB 8B C7 84 DB 74 0F E8 6A 88 FF FF 64 8F .......t..j...d.
0040B180 05 00 00 00 00 83 C4 0C 8B C7 5F 5E 5B 59 59 5D .........._^[YY]
0040B190 C2 08 00 90 55 8B EC 53 56 57 84 D2 74 08 83 C4 ....U..SVW..t...
0040B1A0 F0 E8 EA 87 FF FF 8B F1 8B DA 8B F8 8D 47 04 8B .............G..
0040B1B0 D6 E8 DE 90 FF FF 8B 45 08 89 47 08 8B C7 84 DB .......E..G.....
0040B1C0 74 0F E8 21 88 FF FF 64 8F 05 00 00 00 00 83 C4 t..!...d........
0040B1D0 0C 8B C7 5F 5E 5B 5D C2 04 00 8B C0 80 78 0C 00 ..._^[]......x..
0040B1E0 74 05 E8 ED 84 FF FF C3 EC B1 40 00 0E 09 54 45 t.........@...TE
0040B1F0 72 72 6F 72 52 65 63 08 00 00 00 01 00 00 00 44 rrorRec........D
0040B200 10 40 00 04 00 00 00 90 53 56 83 C4 F8 33 DB E8 .@......SV...3..
0040B210 E8 79 FF FF 8B F0 EB 01 43 83 FB 06 7F 09 3B 34 .y......C.....;4
0040B220 DD 1C 82 42 00 75 F1 83 FB 06 7F 15 8B 0C DD 20 ...B.u......... 
0040B230 82 42 00 B2 01 A1 94 6C 40 00 E8 C9 FD FF FF EB .B.....l@.......
0040B240 1D 89 34 24 C6 44 24 04 00 54 6A 00 8B 0D C8 A6 ..4$.D$..Tj.....
0040B250 42 00 B2 01 A1 94 6C 40 00 E8 A2 FE FF FF 89 70 B.....l@.......p
0040B260 0C 59 5A 5E 5B C3 8B C0 6C B2 40 00 0E 0A 54 45 .YZ^[...l.@...TE
0040B270 78 63 65 70 74 52 65 63 08 00 00 00 01 00 00 00 xceptRec........
0040B280 44 10 40 00 04 00 00 00 53 8B DA 8B D0 FE CA 74 D.@.....S......t
0040B290 0C FE CA 74 10 4A 80 EA 16 72 12 EB 2C 8B 15 98 ...t.J...r..,...
0040B2A0 B7 42 00 EB 2B 8B 15 9C B7 42 00 EB 23 25 FF 00 .B..+....B..#%..
0040B2B0 00 00 8D 04 C5 3C 82 42 00 8B 48 04 8B 00 B2 01 .....<.B..H.....
0040B2C0 E8 43 FD FF FF 8B D0 EB 07 E8 3A FF FF FF 8B D0 .C........:.....
0040B2D0 53 8B C2 E9 84 89 FF FF 5B C3 8B C0 55 8B EC 83 S.......[...U...
0040B2E0 C4 E0 53 56 57 33 DB 89 5D E0 89 5D FC 8B F9 8B ..SVW3..]..]....
0040B2F0 F2 8B D8 33 C0 55 68 78 B3 40 00 64 FF 30 64 89 ...3.Uhx.@.d.0d.
0040B300 20 85 DB 74 0C 8D 45 FC 8B D3 E8 C9 8F FF FF EB  ..t..E.........
0040B310 0D 8D 55 FC A1 98 A8 42 00 E8 32 AD FF FF 8B 45 ..U....B..2....E
0040B320 FC 89 45 E4 C6 45 E8 0B 89 75 EC C6 45 F0 0B 89 ..E..E...u..E...
0040B330 7D F4 C6 45 F8 00 8D 45 E4 50 6A 02 8D 55 E0 A1 }..E...E.Pj..U..
0040B340 1C A9 42 00 E8 07 AD FF FF 8B 4D E0 B2 01 A1 9C ..B.......M.....
0040B350 73 40 00 E8 EC FC FF FF 8B D8 33 C0 5A 59 59 64 s@........3.ZYYd
0040B360 89 10 68 7F B3 40 00 8D 45 E0 E8 D1 8E FF FF 8D ..h..@..E.......
0040B370 45 FC E8 C9 8E FF FF C3 E9 A7 88 FF FF EB E8 8B E...............
0040B380 C3 5F 5E 5B 8B E5 5D C3 89 CC 89 14 24 8B 6D 00 ._^[..].....$.m.
0040B390 E9 C7 88 FF FF C3 8B C0 55 8B EC E8 3C FF FF FF ........U...<...
0040B3A0 8D 4D 08 83 C1 04 8B 55 08 E8 DA FF FF FF 5D C2 .M.....U......].
0040B3B0 04 00 8B C0 8B 0D F0 A6 42 00 B2 01 A1 FC 73 40 ........B.....s@
0040B3C0 00 E8 FE FC FF FF E8 91 88 FF FF C3 8B 00 3D 92 ..............=.
0040B3D0 00 00 C0 7F 2C 74 59 3D 8E 00 00 C0 7F 15 74 53 ....,tY=......tS
0040B3E0 2D 05 00 00 C0 74 55 2D 87 00 00 00 74 3C 48 74 -....tU-....t<Ht
0040B3F0 48 EB 55 05 71 FF FF 3F 83 E8 02 72 33 74 37 EB H.U.q..?...r3t7.
0040B400 47 3D 96 00 00 C0 7F 11 74 35 2D 93 00 00 C0 74 G=......t5-....t
0040B410 28 48 74 13 48 74 16 EB 2F 2D FD 00 00 C0 74 25 (Ht.Ht../-....t%
0040B420 83 E8 3D 74 1D EB 21 B0 03 C3 B0 04 C3 B0 05 C3 ..=t..!.........
0040B430 B0 06 C3 B0 07 C3 B0 08 C3 B0 09 C3 B0 0B C3 B0 ................
0040B440 0C C3 B0 0D C3 B0 0E C3 B0 16 C3 90 53 8B D8 8B ............S...
0040B450 C3 E8 76 FF FF FF 25 FF 00 00 00 8B 04 C5 3C 82 ..v...%.......<.
0040B460 42 00 5B C3 55 8B EC 81 C4 8C FE FF FF 53 33 C0 B.[.U........S3.
0040B470 89 85 8C FE FF FF 89 85 B0 FE FF FF 89 85 A8 FE ................
0040B480 FF FF 89 85 AC FE FF FF 89 45 FC 33 C0 55 68 27 .........E.3.Uh'
0040B490 B6 40 00 64 FF 30 64 89 20 8B 45 08 8B 58 FC 83 .@.d.0d. .E..X..
0040B4A0 7B 14 00 75 0F 8D 55 FC A1 E8 A9 42 00 E8 9E AB {..u..U....B....
0040B4B0 FF FF EB 0D 8D 55 FC A1 64 A8 42 00 E8 8F AB FF .....U..d.B.....
0040B4C0 FF 8B 43 18 89 45 F8 6A 1C 8D 45 DC 50 8B 43 0C ..C..E.j..E.P.C.
0040B4D0 50 E8 C2 B0 FF FF 81 7D EC 00 10 00 00 0F 85 B6 P......}........
0040B4E0 00 00 00 68 05 01 00 00 8D 85 D7 FE FF FF 50 8B ...h..........P.
0040B4F0 45 E0 50 E8 C0 AF FF FF 85 C0 0F 84 99 00 00 00 E.P.............
0040B500 8B 43 0C 89 85 B4 FE FF FF C6 85 B8 FE FF FF 05 .C..............
0040B510 8D 85 AC FE FF FF 8D 95 D7 FE FF FF B9 05 01 00 ................
0040B520 00 E8 8A 8F FF FF 8B 85 AC FE FF FF 8D 95 B0 FE ................
0040B530 FF FF E8 05 CB FF FF 8B 85 B0 FE FF FF 89 85 BC ................
0040B540 FE FF FF C6 85 C0 FE FF FF 0B 8B 45 FC 89 85 C4 ...........E....
0040B550 FE FF FF C6 85 C8 FE FF FF 0B 8B 45 F8 89 85 CC ...........E....
0040B560 FE FF FF C6 85 D0 FE FF FF 05 8D 85 B4 FE FF FF ................
0040B570 50 6A 03 8D 95 A8 FE FF FF A1 E4 A8 42 00 E8 CD Pj..........B...
0040B580 AA FF FF 8B 8D A8 FE FF FF B2 01 A1 D4 71 40 00 .............q@.
0040B590 E8 AF FA FF FF 8B D8 EB 5D 8B 43 0C 89 85 90 FE ........].C.....
0040B5A0 FF FF C6 85 94 FE FF FF 05 8B 45 FC 89 85 98 FE ..........E.....
0040B5B0 FF FF C6 85 9C FE FF FF 0B 8B 45 F8 89 85 A0 FE ..........E.....
0040B5C0 FF FF C6 85 A4 FE FF FF 05 8D 85 90 FE FF FF 50 ...............P
0040B5D0 6A 02 8D 95 8C FE FF FF A1 70 A8 42 00 E8 6E AA j........p.B..n.
0040B5E0 FF FF 8B 8D 8C FE FF FF B2 01 A1 D4 71 40 00 E8 ............q@..
0040B5F0 50 FA FF FF 8B D8 33 C0 5A 59 59 64 89 10 68 2E P.....3.ZYYd..h.
0040B600 B6 40 00 8D 85 8C FE FF FF E8 32 8C FF FF 8D 85 .@........2.....
0040B610 A8 FE FF FF BA 03 00 00 00 E8 46 8C FF FF 8D 45 ..........F....E
0040B620 FC E8 1A 8C FF FF C3 E9 F8 85 FF FF EB D5 8B C3 ................
0040B630 5B 8B E5 5D C3 8D 40 00 55 8B EC 83 C4 F0 53 33 [..]..@.U.....S3
0040B640 D2 89 55 F0 89 45 FC 33 C0 55 68 F3 B6 40 00 64 ..U..E.3.Uh..@.d
0040B650 FF 30 64 89 20 8B 45 FC E8 6F FD FF FF 25 FF 00 .0d. .E..o...%..
0040B660 00 00 8B D0 83 C2 FD 83 EA 08 72 08 74 1D 4A 83 ..........r.t.J.
0040B670 EA 0A 73 22 8D 04 C5 3C 82 42 00 8B 48 04 8B 00 ..s"...<.B..H...
0040B680 B2 01 E8 81 F9 FF FF 8B D8 EB 3B 55 E8 D3 FD FF ..........;U....
0040B690 FF 59 8B D8 EB 30 8B 45 FC 8B 00 89 45 F4 C6 45 .Y...0.E....E..E
0040B6A0 F8 00 8D 45 F4 50 6A 00 8D 55 F0 A1 28 A6 42 00 ...E.Pj..U..(.B.
0040B6B0 E8 9B A9 FF FF 8B 4D F0 B2 01 A1 44 6D 40 00 E8 ......M....Dm@..
0040B6C0 80 F9 FF FF 8B D8 8B C3 8B 15 EC 6C 40 00 E8 E5 ...........l@...
0040B6D0 81 FF FF 84 C0 74 06 8B 45 FC 89 43 0C 33 C0 5A .....t..E..C.3.Z
0040B6E0 59 59 64 89 10 68 FA B6 40 00 8D 45 F0 E8 4E 8B YYd..h..@..E..N.
0040B6F0 FF FF C3 E9 2C 85 FF FF EB F0 8B C3 5B 8B E5 5D ....,.......[..]
0040B700 C3 8D 40 00 E8 37 F8 FF FF B8 01 00 00 00 E8 15 ..@..7..........
0040B710 8B FF FF C3 8B 0D D4 A6 42 00 B2 01 A1 38 6C 40 ........B....8l@
0040B720 00 E8 9E F9 FF FF A3 98 B7 42 00 8B 0D 34 A8 42 .........B...4.B
0040B730 00 B2 01 A1 C0 70 40 00 E8 87 F9 FF FF A3 9C B7 .....p@.........
0040B740 42 00 A1 38 A6 42 00 C7 00 88 B2 40 00 A1 48 A7 B..8.B.....@..H.
0040B750 42 00 C7 00 04 B7 40 00 A1 B4 A6 42 00 8B 15 74 B.....@....B...t
0040B760 6B 40 00 89 10 A1 38 A7 42 00 C7 00 4C B4 40 00 k@....8.B...L.@.
0040B770 A1 4C A7 42 00 C7 00 38 B6 40 00 B8 98 B3 40 00 .L.B...8.@....@.
0040B780 8B 15 4C A8 42 00 89 02 B8 B4 B3 40 00 8B 15 24 ..L.B......@...$
0040B790 A6 42 00 89 02 C3 8B C0 83 3D 98 B7 42 00 00 74 .B.......=..B..t
0040B7A0 1A A1 98 B7 42 00 C6 40 0C 01 A1 98 B7 42 00 8B ....B..@.....B..
0040B7B0 10 FF 52 F8 33 C0 A3 98 B7 42 00 83 3D 9C B7 42 ..R.3....B..=..B
0040B7C0 00 00 74 1A A1 9C B7 42 00 C6 40 0C 01 A1 9C B7 ..t....B..@.....
0040B7D0 42 00 E8 49 7F FF FF 33 C0 A3 9C B7 42 00 A1 38 B..I...3....B..8
0040B7E0 A6 42 00 33 D2 89 10 A1 48 A7 42 00 33 D2 89 10 .B.3....H.B.3...
0040B7F0 A1 B4 A6 42 00 33 D2 89 10 A1 38 A7 42 00 33 D2 ...B.3....8.B.3.
0040B800 89 10 A1 4C A7 42 00 33 D2 89 10 A1 4C A8 42 00 ...L.B.3....L.B.
0040B810 33 D2 89 10 C3 8D 40 00 81 C4 6C FF FF FF C7 04 3.....@...l.....
0040B820 24 94 00 00 00 54 E8 CD AC FF FF 85 C0 74 50 8B $....T.......tP.
0040B830 44 24 10 A3 C4 80 42 00 8B 44 24 04 A3 C8 80 42 D$....B..D$....B
0040B840 00 8B 44 24 08 A3 CC 80 42 00 83 3D C4 80 42 00 ..D$....B..=..B.
0040B850 01 75 10 8B 44 24 0C 25 FF FF 00 00 A3 D0 80 42 .u..D$.%.......B
0040B860 00 EB 09 8B 44 24 0C A3 D0 80 42 00 B8 D4 80 42 ....D$....B....B
0040B870 00 8D 54 24 14 B9 80 00 00 00 E8 31 8C FF FF 81 ..T$.......1....
0040B880 C4 94 00 00 00 C3 8B C0 3B 05 C8 80 42 00 7C 13 ........;...B.|.
0040B890 3B 05 C8 80 42 00 75 08 3B 15 CC 80 42 00 7E 03 ;...B.u.;...B.~.
0040B8A0 33 C0 C3 B0 01 C3 8B C0                         3.......       

;; fn0040B8A8: 0040B8A8
;;   Called from:
;;     0040B93B (in fn0040B920)
;;     0040B94F (in fn0040B944)
fn0040B8A8 proc
	push	esi
	push	edi
	mov	edi,edx
	xor	edx,edx
	test	eax,eax
	jz	0040B918

l0040B8B2:
	cmp	byte ptr [eax+edi],00
	jz	0040B918

l0040B8B8:
	test	edi,edi
	jnz	0040B8D0

l0040B8BC:
	mov	al,[eax]
	and	eax,000000FF
	bt	[0042810C],eax
	jnc	0040B918

l0040B8CC:
	mov	dl,01
	jmp	0040B918

l0040B8D0:
	mov	esi,edi
	dec	esi
	jmp	0040B8D6

l0040B8D5:
	dec	esi

l0040B8D6:
	test	esi,esi
	jl	0040B8EC

l0040B8DA:
	mov	cl,[eax+esi]
	and	ecx,000000FF
	bt	[0042810C],ecx
	jc	0040B8D5

l0040B8EC:
	mov	ecx,edi
	sub	ecx,esi
	and	ecx,80000001
	jns	0040B8FD

l0040B8F8:
	dec	ecx
	or	ecx,FE
	inc	ecx

l0040B8FD:
	test	ecx,ecx
	jnz	0040B905

l0040B901:
	mov	dl,02
	jmp	0040B918

l0040B905:
	mov	al,[eax+edi]
	and	eax,000000FF
	bt	[0042810C],eax
	jnc	0040B918

l0040B916:
	mov	dl,01

l0040B918:
	mov	eax,edx
	pop	edi
	pop	esi
	ret
0040B91D                                        8D 40 00              .@.

;; fn0040B920: 0040B920
;;   Called from:
;;     00407FD1 (in fn00407F98)
;;     0040BBFF (in fn0040BBE0)
fn0040B920 proc
	push	ebx
	push	esi
	mov	esi,edx
	mov	ebx,eax
	xor	eax,eax
	cmp	byte ptr [0042B750],00
	jz	0040B940

l0040B931:
	mov	eax,ebx
	call	00404700
	mov	edx,esi
	dec	edx
	call	0040B8A8

l0040B940:
	pop	esi
	pop	ebx
	ret
0040B943          90                                        .           

;; fn0040B944: 0040B944
;;   Called from:
;;     004082D3 (in fn004082B8)
fn0040B944 proc
	xor	ecx,ecx
	cmp	byte ptr [0042B750],00
	jz	0040B956

l0040B94F:
	call	0040B8A8
	mov	ecx,eax

l0040B956:
	mov	eax,ecx
	ret
0040B959                            8D 40 00 53 56 8B F2          .@.SV..
0040B960 8B D8 8B C3 E8 97 8B FF FF 3B F0 7E 09 8B C3 E8 .........;.~....
0040B970 8C 8B FF FF 8B F0 8B D6 8B C3 E8 05 00 00 00 5E ...............^
0040B980 5B C3 8B C0 53 56 57 55 8B FA 8B F0 33 ED 85 FF [...SVWU....3...
0040B990 7E 46 8B C6 E8 67 8B FF FF 3B F8 7F 3B 8B EF 80 ~F...g...;..;...
0040B9A0 3D 50 B7 42 00 00 74 30 BB 01 00 00 00 33 ED 3B =P.B..t0.....3.;
0040B9B0 FB 7C 25 8A 44 1E FF 25 FF 00 00 00 0F A3 05 0C .|%.D..%........
0040B9C0 81 42 00 73 0D 8B D3 8B C6 E8 D6 01 00 00 8B D8 .B.s............
0040B9D0 EB 01 43 45 3B FB 7D DB 8B C5 5D 5F 5E 5B C3 90 ..CE;.}...]_^[..
0040B9E0 55 8B EC 83 C4 F4 53 56 57 89 4D F8 89 55 FC 8B U.....SVW.M..U..
0040B9F0 F8 8B C7 E8 08 8B FF FF 89 45 F4 BE 01 00 00 00 .........E......
0040BA00 BB 01 00 00 00 EB 21 46 8A 44 1F FF 25 FF 00 00 ......!F.D..%...
0040BA10 00 0F A3 05 0C 81 42 00 73 0D 8B D3 8B C7 E8 81 ......B.s.......
0040BA20 01 00 00 8B D8 EB 01 43 3B 5D F4 7D 05 3B 75 FC .......C;].}.;u.
0040BA30 7C D5 3B 75 FC 75 23 3B 5D F4 7D 1E 8A 44 1F FF |.;u.u#;].}..D..
0040BA40 25 FF 00 00 00 0F A3 05 0C 81 42 00 73 0C 8B D3 %.........B.s...
0040BA50 8B C7 E8 4D 01 00 00 48 8B D8 8B 45 F8 89 30 8B ...M...H...E..0.
0040BA60 45 08 89 18 5F 5E 5B 8B E5 5D C2 04 00 8D 40 00 E..._^[..]....@.
0040BA70 53 56 83 C4 F8 8B DA 8B F0 33 C0 89 04 24 85 DB SV.......3...$..
0040BA80 7E 4A 8B C6 E8 77 8A FF FF 3B D8 7F 3F 83 FB 01 ~J...w...;..?...
0040BA90 7E 37 80 3D 50 B7 42 00 00 74 2E 54 8D 4C 24 08 ~7.=P.B..t.T.L$.
0040BAA0 8B D3 4A 8B C6 E8 36 FF FF FF 4B 3B 5C 24 04 7F ..J...6...K;\$..
0040BAB0 0C 8B C6 E8 48 8A FF FF 3B 04 24 7F 07 33 C0 89 ....H...;.$..3..
0040BAC0 04 24 EB 08 FF 04 24 EB 03 89 1C 24 8B 04 24 59 .$....$....$..$Y
0040BAD0 5A 5E 5B C3 53 56 83 C4 F8 8B DA 8B F0 33 C0 89 Z^[.SV.......3..
0040BAE0 04 24 85 DB 7E 46 8B C6 E8 13 8A FF FF 3B D8 7E .$..~F.......;.~
0040BAF0 09 8B C6 E8 08 8A FF FF 8B D8 80 3D 50 B7 42 00 ...........=P.B.
0040BB00 00 74 26 54 8D 4C 24 08 8B D3 8B C6 E8 CF FE FF .t&T.L$.........
0040BB10 FF 8B C6 E8 E8 89 FF FF 3B 04 24 7D 0F 8B C6 E8 ........;.$}....
0040BB20 DC 89 FF FF 89 04 24 EB 03 89 1C 24 8B 04 24 59 ......$....$..$Y
0040BB30 5A 5E 5B C3 53 8B D8 80 3D 50 B7 42 00 00 74 0A Z^[.S...=P.B..t.
0040BB40 53 E8 DA AB FF FF 2B C3 5B C3 B8 01 00 00 00 5B S.....+.[......[
0040BB50 C3 8D 40 00 53 51 8B D8 53 E8 C2 AB FF FF 89 04 ..@.SQ..S.......
0040BB60 24 8B 04 24 5A 5B C3 90 53 56 8B F2 8B D8 B8 01 $..$Z[..SV......
0040BB70 00 00 00 80 3D 50 B7 42 00 00 74 22 8A 54 33 FF ....=P.B..t".T3.
0040BB80 81 E2 FF 00 00 00 0F A3 15 0C 81 42 00 73 0F 8B ...........B.s..
0040BB90 C3 E8 6A 8B FF FF 03 C6 48 E8 96 FF FF FF 5E 5B ..j.....H.....^[
0040BBA0 C3 8D 40 00 53 56 8B DA 8B F0 8D 43 01 80 3D 50 ..@.SV.....C..=P
0040BBB0 B7 42 00 00 74 24 8A 54 1E FF 81 E2 FF 00 00 00 .B..t$.T........
0040BBC0 0F A3 15 0C 81 42 00 73 11 8B C6 E8 30 8B FF FF .....B.s....0...
0040BBD0 03 C3 48 E8 5C FF FF FF 03 C3 5E 5B C3 8D 40 00 ..H.\.....^[..@.

;; fn0040BBE0: 0040BBE0
;;   Called from:
;;     00408013 (in fn00407FE8)
fn0040BBE0 proc
	push	ebx
	push	esi
	push	edi
	push	ebp
	mov	edi,ecx
	mov	esi,edx
	mov	ebp,eax
	xor	ebx,ebx
	test	edi,edi
	jle	0040BC1D

l0040BBF0:
	mov	eax,esi
	call	00404500
	cmp	edi,eax
	jg	0040BC1D

l0040BBFB:
	mov	edx,edi
	mov	eax,esi
	call	0040B920
	test	al,al
	jnz	0040BC1D

l0040BC08:
	mov	eax,ebp
	call	00404700
	mov	dl,[esi+edi-01]
	call	004081FC
	test	eax,eax
	setnz	bl

l0040BC1D:
	mov	eax,ebx
	pop	ebp
	pop	edi
	pop	esi
	pop	ebx
	ret
0040BC24             53 56 57 55 51 8B DA 8B E8 33 F6 8B     SVWUQ....3..
0040BC30 C5 E8 CA 8A FF FF 50 8B C3 E8 C2 8A FF FF 8B F8 ......P.........
0040BC40 8B C7 5A E8 18 00 00 00 89 04 24 83 3C 24 00 74 ..Z.......$.<$.t
0040BC50 06 8B 34 24 2B F7 46 8B C6 5A 5D 5F 5E 5B C3 90 ..4$+.F..Z]_^[..
0040BC60 53 56 57 55 83 C4 F8 8B FA 8B E8 33 C0 89 04 24 SVWU.......3...$
0040BC70 85 ED 0F 84 9B 00 00 00 80 7D 00 00 0F 84 91 00 .........}......
0040BC80 00 00 85 FF 0F 84 89 00 00 00 80 3F 00 0F 84 80 ...........?....
0040BC90 00 00 00 8B C5 E8 96 C4 FF FF 89 44 24 04 8B C7 ...........D$...
0040BCA0 E8 8B C4 FF FF 8B F0 8B D7 8B C5 E8 6C C5 FF FF ............l...
0040BCB0 89 04 24 EB 44 8B 14 24 2B D5 8B C5 E8 83 FC FF ..$.D..$+.......
0040BCC0 FF 8B D8 80 FB 02 74 19 56 57 56 8B 44 24 0C 50 ......t.VWV.D$.P
0040BCD0 6A 00 68 00 04 00 00 E8 04 A7 FF FF 83 F8 02 74 j.h............t
0040BCE0 32 80 FB 01 75 03 FF 04 24 FF 04 24 8B D7 8B 04 2...u...$..$....
0040BCF0 24 E8 26 C5 FF FF 89 04 24 83 3C 24 00 74 0F 8B $.&.....$.<$.t..
0040BD00 04 24 2B C5 8B 54 24 04 2B D0 3B F2 76 A7 33 C0 .$+..T$.+.;.v.3.
0040BD10 89 04 24 8B 04 24 59 5A 5D 5F 5E 5B C3 8D 40 00 ..$..$YZ]_^[..@.
0040BD20 53 56 83 C4 F8 8B DA 89 04 24 8B F4 8B D3 8B 06 SV.......$......
0040BD30 E8 33 00 00 00 89 06 8B 06 89 44 24 04 84 DB 74 .3........D$...t
0040BD40 1D 83 3E 00 74 18 8B 06 89 44 24 04 FF 06 8B D3 ..>.t....D$.....
0040BD50 8B 06 E8 11 00 00 00 89 06 83 3E 00 75 E8 8B 44 ..........>.u..D
0040BD60 24 04 59 5A 5E 5B C3 90 53 56 57 51 8B DA 8B F0 $.YZ^[..SVWQ....
0040BD70 8B FC 8B D3 8B C6 E8 81 C4 FF FF 89 07 83 3F 00 ..............?.
0040BD80 74 27 8B 17 2B D6 8B C6 E8 B7 FB FF FF 2C 01 72 t'..+........,.r
0040BD90 18 74 02 EB 02 FF 07 FF 07 8B D3 8B 07 E8 5A C4 .t............Z.
0040BDA0 FF FF 89 07 83 3F 00 75 D9 8B 07 5A 5F 5E 5B C3 .....?.u...Z_^[.
0040BDB0 55 8B EC 83 C4 F4 53 33 D2 89 55 F4 33 D2 55 68 U.....S3..U.3.Uh
0040BDC0 14 BE 40 00 64 FF 32 64 89 22 6A 07 8D 55 F9 52 ..@.d.2d."j..U.R
0040BDD0 68 04 10 00 00 50 E8 D5 A6 FF FF 8D 45 F4 8D 55 h....P......E..U
0040BDE0 F9 B9 07 00 00 00 E8 C5 86 FF FF 8B 45 F4 50 E8 ............E.P.
0040BDF0 74 A6 FF FF 8B D0 58 E8 40 BD FF FF 8B D8 33 C0 t.....X.@.....3.
0040BE00 5A 59 59 64 89 10 68 1B BE 40 00 8D 45 F4 E8 2D ZYYd..h..@..E..-
0040BE10 84 FF FF C3 E9 0B 7E FF FF EB F0 8B C3 5B 8B E5 ......~......[..
0040BE20 5D C3 8B C0 55 8B EC 51 53 56 57 8B 7D 08 83 C7 ]...U..QSVW.}...
0040BE30 EC 57 A1 44 B7 42 00 E8 74 FF FF FF 50 E8 2E A6 .W.D.B..t...P...
0040BE40 FF FF 33 F6 EB 29 8A 44 37 06 8A 5C 37 07 2A D8 ..3..).D7..\7.*.
0040BE50 72 1A 43 88 45 FF 8A 45 FF 25 FF 00 00 00 0F AB r.C.E..E.%......
0040BE60 05 0C 81 42 00 FE 45 FF FE CB 75 EA 83 C6 02 83 ...B..E...u.....
0040BE70 FE 0C 7D 0A 8A 44 37 06 0A 44 37 07 75 C8 5F 5E ..}..D7..D7.u._^
0040BE80 5B 59 5D C3 A1 48 B7 42 00 83 F8 1F 77 07 0F A3 [Y]..H.B....w...
0040BE90 05 04 83 42 00 0F 92 C0 C3 8D 40 00 55 8B EC 81 ...B......@.U...
0040BEA0 C4 64 FE FF FF 53 56 57 C7 05 44 B7 42 00 09 04 .d...SVW..D.B...
0040BEB0 00 00 C7 05 48 B7 42 00 09 00 00 00 C7 05 4C B7 ....H.B.......L.
0040BEC0 42 00 01 00 00 00 E8 25 A6 FF FF 85 C0 74 05 A3 B......%.....t..
0040BED0 44 B7 42 00 66 85 C0 74 1B 8B D0 66 81 E2 FF 03 D.B.f..t...f....
0040BEE0 0F B7 D2 89 15 48 B7 42 00 0F B7 C0 C1 E8 0A A3 .....H.B........
0040BEF0 4C B7 42 00 BE F4 BF 40 00 BF 0C 81 42 00 B9 08 L.B....@....B...
0040BF00 00 00 00 F3 A5 83 3D C4 80 42 00 02 0F 85 AD 00 ......=..B......
0040BF10 00 00 E8 6D FF FF FF 84 C0 74 13 C6 05 51 B7 42 ...m.....t...Q.B
0040BF20 00 00 C6 05 50 B7 42 00 00 E9 BF 00 00 00 55 E8 ....P.B.......U.
0040BF30 F0 FE FF FF 59 B8 0C 81 42 00 BA F4 BF 40 00 B1 ....Y...B....@..
0040BF40 20 E8 36 73 FF FF 0F 95 C3 88 1D 50 B7 42 00 84  .6s.......P.B..
0040BF50 DB 74 0C C6 05 51 B7 42 00 00 E9 8E 00 00 00 B8 .t...Q.B........
0040BF60 80 00 00 00 8D 95 68 FF FF FF 88 02 40 42 3D 00 ......h.....@B=.
0040BF70 01 00 00 75 F5 8D 85 68 FF FF FF 89 45 E8 8D 85 ...u...h....E...
0040BF80 66 FE FF FF 50 68 80 00 00 00 8B 45 E8 50 6A 02 f...Ph.....E.Pj.
0040BF90 A1 44 B7 42 00 50 E8 3D A5 FF FF B8 80 00 00 00 .D.B.P.=........
0040BFA0 8D 95 66 FE FF FF 66 83 3A 02 0F 94 C1 88 0D 51 ..f...f.:......Q
0040BFB0 B7 42 00 84 C9 75 36 83 C2 02 48 75 E9 EB 2E 6A .B...u6...Hu...j
0040BFC0 4A E8 92 A7 FF FF 85 C0 0F 95 C0 A2 51 B7 42 00 J...........Q.B.
0040BFD0 6A 2A E8 81 A7 FF FF 85 C0 0F 95 C3 88 1D 50 B7 j*............P.
0040BFE0 42 00 84 DB 74 07 55 E8 38 FE FF FF 59 5F 5E 5B B...t.U.8...Y_^[
0040BFF0 8B E5 5D C3 00 00 00 00 00 00 00 00 00 00 00 00 ..].............
0040C000 00 00 00 00 00 00 00 00 00 00 00 00 00 00 00 00 ................
0040C010 00 00 00 00 55 8B EC B9 08 00 00 00 6A 00 6A 00 ....U.......j.j.
0040C020 49 75 F9 53 33 C0 55 68 DF C2 40 00 64 FF 30 64 Iu.S3.Uh..@.d.0d
0040C030 89 20 E8 65 FE FF FF E8 B0 E8 FF FF 80 3D 50 B7 . .e.........=P.
0040C040 42 00 00 74 05 E8 7A EA FF FF E8 A1 A4 FF FF 8B B..t..z.........
0040C050 D8 8D 45 F0 50 33 C9 BA 14 00 00 00 8B C3 E8 D9 ..E.P3..........
0040C060 E7 FF FF 8B 55 F0 B8 84 B6 42 00 E8 24 82 FF FF ....U....B..$...
0040C070 8D 45 EC 50 B9 F4 C2 40 00 BA 1B 00 00 00 8B C3 .E.P...@........
0040C080 E8 B7 E7 FF FF 8B 45 EC 33 D2 E8 AD BA FF FF A2 ......E.3.......
0040C090 88 B6 42 00 8D 45 E8 50 B9 F4 C2 40 00 BA 1C 00 ..B..E.P...@....
0040C0A0 00 00 8B C3 E8 93 E7 FF FF 8B 45 E8 33 D2 E8 89 ..........E.3...
0040C0B0 BA FF FF A2 89 B6 42 00 B1 2C BA 0F 00 00 00 8B ......B..,......
0040C0C0 C3 E8 C2 E7 FF FF A2 8A B6 42 00 B1 2E BA 0E 00 .........B......
0040C0D0 00 00 8B C3 E8 AF E7 FF FF A2 8B B6 42 00 8D 45 ............B..E
0040C0E0 E4 50 B9 F4 C2 40 00 BA 19 00 00 00 8B C3 E8 49 .P...@.........I
0040C0F0 E7 FF FF 8B 45 E4 33 D2 E8 3F BA FF FF A2 8C B6 ....E.3..?......
0040C100 42 00 B1 2F BA 1D 00 00 00 8B C3 E8 78 E7 FF FF B../........x...
0040C110 A2 8D B6 42 00 8D 45 DC 50 B9 00 C3 40 00 BA 1F ...B..E.P...@...
0040C120 00 00 00 8B C3 E8 12 E7 FF FF 8B 45 DC 8D 55 E0 ...........E..U.
0040C130 E8 3F EA FF FF 8B 55 E0 B8 90 B6 42 00 E8 52 81 .?....U....B..R.
0040C140 FF FF 8D 45 D4 50 B9 10 C3 40 00 BA 20 00 00 00 ...E.P...@.. ...
0040C150 8B C3 E8 E5 E6 FF FF 8B 45 D4 8D 55 D8 E8 12 EA ........E..U....
0040C160 FF FF 8B 55 D8 B8 94 B6 42 00 E8 25 81 FF FF B1 ...U....B..%....
0040C170 3A BA 1E 00 00 00 8B C3 E8 0B E7 FF FF A2 98 B6 :...............
0040C180 42 00 8D 45 D0 50 B9 28 C3 40 00 BA 28 00 00 00 B..E.P.(.@..(...
0040C190 8B C3 E8 A5 E6 FF FF 8B 55 D0 B8 9C B6 42 00 E8 ........U....B..
0040C1A0 F0 80 FF FF 8D 45 CC 50 B9 34 C3 40 00 BA 29 00 .....E.P.4.@..).
0040C1B0 00 00 8B C3 E8 83 E6 FF FF 8B 55 CC B8 A0 B6 42 ..........U....B
0040C1C0 00 E8 CE 80 FF FF 8D 45 F8 E8 72 80 FF FF 8D 45 .......E..r....E
0040C1D0 F4 E8 6A 80 FF FF 8D 45 C8 50 B9 F4 C2 40 00 BA ..j....E.P...@..
0040C1E0 25 00 00 00 8B C3 E8 51 E6 FF FF 8B 45 C8 33 D2 %......Q....E.3.
0040C1F0 E8 47 B9 FF FF 85 C0 75 0F 8D 45 FC BA 40 C3 40 .G.....u..E..@.@
0040C200 00 E8 D2 80 FF FF EB 0D 8D 45 FC BA 4C C3 40 00 .........E..L.@.
0040C210 E8 C3 80 FF FF 8D 45 C4 50 B9 F4 C2 40 00 BA 23 ......E.P...@..#
0040C220 00 00 00 8B C3 E8 12 E6 FF FF 8B 45 C4 33 D2 E8 ...........E.3..
0040C230 08 B9 FF FF 85 C0 75 3F 8D 45 C0 50 B9 F4 C2 40 ......u?.E.P...@
0040C240 00 BA 05 10 00 00 8B C3 E8 EF E5 FF FF 8B 45 C0 ..............E.
0040C250 33 D2 E8 E5 B8 FF FF 85 C0 75 0F 8D 45 F4 BA 58 3........u..E..X
0040C260 C3 40 00 E8 70 80 FF FF EB 0D 8D 45 F8 BA 68 C3 .@..p......E..h.
0040C270 40 00 E8 61 80 FF FF FF 75 F8 FF 75 FC 68 78 C3 @..a....u..u.hx.
0040C280 40 00 FF 75 F4 B8 A4 B6 42 00 BA 04 00 00 00 E8 @..u....B.......
0040C290 2C 83 FF FF FF 75 F8 FF 75 FC 68 84 C3 40 00 FF ,....u..u.h..@..
0040C2A0 75 F4 B8 A8 B6 42 00 BA 04 00 00 00 E8 0F 83 FF u....B..........
0040C2B0 FF B1 2C BA 0C 00 00 00 8B C3 E8 C9 E5 FF FF A2 ..,.............
0040C2C0 52 B7 42 00 33 C0 5A 59 59 64 89 10 68 E6 C2 40 R.B.3.ZYYd..h..@
0040C2D0 00 8D 45 C0 BA 10 00 00 00 E8 86 7F FF FF C3 E9 ..E.............
0040C2E0 40 79 FF FF EB EB 5B 8B E5 5D C3 00 FF FF FF FF @y....[..]......
0040C2F0 01 00 00 00 30 00 00 00 FF FF FF FF 06 00 00 00 ....0...........
0040C300 6D 2F 64 2F 79 79 00 00 FF FF FF FF 0C 00 00 00 m/d/yy..........
0040C310 6D 6D 6D 6D 20 64 2C 20 79 79 79 79 00 00 00 00 mmmm d, yyyy....
0040C320 FF FF FF FF 02 00 00 00 61 6D 00 00 FF FF FF FF ........am......
0040C330 02 00 00 00 70 6D 00 00 FF FF FF FF 01 00 00 00 ....pm..........
0040C340 68 00 00 00 FF FF FF FF 02 00 00 00 68 68 00 00 h...........hh..
0040C350 FF FF FF FF 05 00 00 00 20 41 4D 50 4D 00 00 00 ........ AMPM...
0040C360 FF FF FF FF 05 00 00 00 41 4D 50 4D 20 00 00 00 ........AMPM ...
0040C370 FF FF FF FF 03 00 00 00 3A 6D 6D 00 FF FF FF FF ........:mm.....
0040C380 06 00 00 00 3A 6D 6D 3A 73 73 00 00 FF 25 F4 E3 ....:mm:ss...%..
0040C390 42 00 8B C0 55 8B EC 83 C4 EC 53 33 C0 89 45 EC B...U.....S3..E.
0040C3A0 33 C0 55 68 24 C4 40 00 64 FF 30 64 89 20 E8 ED 3.Uh$.@.d.0d. ..
0040C3B0 A0 FF FF 8B D8 85 DB 74 37 89 5D F0 C6 45 F4 00 .......t7.]..E..
0040C3C0 8D 55 EC 8B C3 E8 26 E4 FF FF 8B 45 EC 89 45 F8 .U....&....E..E.
0040C3D0 C6 45 FC 0B 8D 45 F0 50 6A 01 8B 0D 88 A8 42 00 .E...E.Pj.....B.
0040C3E0 B2 01 A1 B4 74 40 00 E8 14 ED FF FF 8B D0 EB 14 ....t@..........
0040C3F0 8B 0D 84 A9 42 00 B2 01 A1 B4 74 40 00 E8 C2 EC ....B.....t@....
0040C400 FF FF 8B D0 89 5A 0C 8B C2 E8 4E 78 FF FF 33 C0 .....Z....Nx..3.
0040C410 5A 59 59 64 89 10 68 2B C4 40 00 8D 45 EC E8 1D ZYYd..h+.@..E...
0040C420 7E FF FF C3 E9 FB 77 FF FF EB F0 5B 8B E5 5D C3 ~.....w....[..].
0040C430 53 8B D8 85 DB 75 05 E8 58 FF FF FF 8B C3 5B C3 S....u..X.....[.
0040C440 53 56 51 BB 08 83 42 00 8B F4 EB 16 8B 03 89 06 SVQ...B.........
0040C450 8B 06 8B 00 89 03 BA 08 00 00 00 8B 06 E8 F6 65 ...............e
0040C460 FF FF 83 3B 00 75 E5 5A 5E 5B C3 90 53 68 A4 C4 ...;.u.Z^[..Sh..
0040C470 40 00 E8 49 A0 FF FF 8B D8 85 DB 74 10 68 B4 C4 @..I.......t.h..
0040C480 40 00 53 E8 40 A0 FF FF A3 30 81 42 00 83 3D 30 @.S.@....0.B..=0
0040C490 81 42 00 00 75 0A B8 B0 80 40 00 A3 30 81 42 00 .B..u....@..0.B.
0040C4A0 5B C3 00 00 6B 65 72 6E 65 6C 33 32 2E 64 6C 6C [...kernel32.dll
0040C4B0 00 00 00 00 47 65 74 44 69 73 6B 46 72 65 65 53 ....GetDiskFreeS
0040C4C0 70 61 63 65 45 78 41 00 BA 01 00 00 00 92 F0 0F paceExA.........
0040C4D0 C1 02 40 C3 BA FF FF FF FF 92 F0 0F C1 02 48 C3 ..@...........H.
0040C4E0 87 10 89 D0 C3 8D 40 00 92 F0 0F C1 02 C3 8B C0 ......@.........
0040C4F0 53 56 57 55 83 C4 F4 E8 FC 74 FF FF 88 14 24 8B SVWU.....t....$.
0040C500 F8 8D 74 24 04 8D 6C 24 08 33 DB 8B 44 9F 04 89 ..t$..l$.3..D...
0040C510 06 33 C0 89 44 9F 04 83 3E 00 74 18 8B 06 89 45 .3..D...>.t....E
0040C520 00 8B 06 8B 00 89 06 8B 45 00 E8 29 65 FF FF 83 ........E..)e...
0040C530 3E 00 75 E8 43 83 FB 10 75 D1 8A 14 24 80 E2 FC >.u.C...u...$...
0040C540 8B C7 E8 C9 71 FF FF 80 3C 24 00 7E 07 8B C7 E8 ....q...<$.~....
0040C550 8C 74 FF FF 83 C4 0C 5D 5F 5E 5B C3 55 8B EC 51 .t.....]_^[.U..Q
0040C560 E8 1B 9F FF FF 66 89 45 FE 8A 45 FE 32 45 FF 24 .....f.E..E.2E.$
0040C570 0F 59 5D C3 53 56 57 55 83 C4 F8 89 14 24 8B F0 .Y].SVWU.....$..
0040C580 8D 7C 24 04 8B C6 E8 D1 FF FF FF 8B D8 E8 EE 9E .|$.............
0040C590 FF FF 8B E8 33 C0 8A C3 8B 44 86 04 89 07 EB 06 ....3....D......
0040C5A0 8B 07 8B 00 89 07 83 3F 00 74 07 8B 07 3B 68 04 .......?.t...;h.
0040C5B0 75 EE 83 3F 00 75 41 8B C6 E8 5A 00 00 00 89 07 u..?.uA...Z.....
0040C5C0 83 3F 00 75 33 B8 10 00 00 00 E8 81 B1 FF FF 89 .?.u3...........
0040C5D0 07 8B 07 89 68 04 8B 07 C7 40 08 FF FF FF 7F 8B ....h....@......
0040C5E0 07 8B 17 89 10 33 C0 8A C3 8D 44 86 04 8B 17 E8 .....3....D.....
0040C5F0 EC FE FF FF 8B 17 89 02 8B 04 24 8B 17 89 10 59 ..........$....Y
0040C600 5A 5D 5F 5E 5B C3 8B C0 8B 02 33 C9 89 48 04 8B Z]_^[.....3..H..
0040C610 02 33 D2 89 50 08 C3 90 53 56 51 8B D8 8B F4 8B .3..P...SVQ.....
0040C620 C3 E8 36 FF FF FF 25 FF 00 00 00 8B 44 83 04 89 ..6...%.....D...
0040C630 06 83 3E 00 74 30 8B 06 83 C0 08 BA FF FF FF 7F ..>.t0..........
0040C640 E8 9B FE FF FF 8B D8 81 FB FF FF FF 7F 74 0C E8 .............t..
0040C650 2C 9E FF FF 8B 16 89 42 04 EB 0B 8B 06 8B 00 89 ,......B........
0040C660 06 83 3E 00 75 D0 8B 06 5A 5E 5B C3 53 56 84 D2 ..>.u...Z^[.SV..
0040C670 74 08 83 C4 F0 E8 16 73 FF FF 8B DA 8B F0 33 D2 t......s......3.
0040C680 8B C6 E8 69 70 FF FF C7 46 0C FF FF 00 00 6A 00 ...ip...F.....j.
0040C690 6A FF 6A FF 6A 00 E8 5D 9D FF FF 89 46 10 6A 00 j.j.j..]....F.j.
0040C6A0 6A 00 6A 00 6A 00 E8 4D 9D FF FF 89 46 14 C7 46 j.j.j..M....F..F
0040C6B0 18 FF FF FF FF B2 01 A1 C0 75 40 00 E8 2F 70 FF .........u@../p.
0040C6C0 FF 89 46 20 8B C6 84 DB 74 0F E8 19 73 FF FF 64 ..F ....t...s..d
0040C6D0 8F 05 00 00 00 00 83 C4 0C 8B C6 5E 5B C3 8B C0 ...........^[...
0040C6E0 53 56 E8 11 73 FF FF 8B DA 8B F0 8B C6 E8 7A 00 SV..s.........z.
0040C6F0 00 00 8B D3 80 E2 FC 8B C6 E8 12 70 FF FF 8B 46 ...........p...F
0040C700 10 50 E8 D1 9C FF FF 8B 46 14 50 E8 C8 9C FF FF .P......F.P.....
0040C710 8B 46 20 E8 08 70 FF FF 84 DB 7E 07 8B C6 E8 BD .F ..p....~.....
0040C720 72 FF FF 5E 5B C3 8B C0 8B 40 10 50 E8 3F 9E FF r..^[....@.P.?..
0040C730 FF C3 8B C0 8B 40 10 50 E8 43 9E FF FF C3 8B C0 .....@.P.C......
0040C740 8B 40 14 50 E8 37 9E FF FF C3 8B C0 8B 50 18 52 .@.P.7.......P.R
0040C750 8B 40 10 50 E8 47 9E FF FF C3 8B C0 8B 50 18 52 .@.P.G.......P.R
0040C760 8B 40 14 50 E8 37 9E FF FF C3 8B C0 53 56 57 55 .@.P.7......SVWU
0040C770 83 C4 F8 8B E8 B3 01 E8 04 9D FF FF 8B F8 3B 7D ..............;}
0040C780 24 0F 84 84 00 00 00 8B C5 E8 9A FF FF FF 8B 45 $..............E
0040C790 28 89 44 24 04 8B D4 8B 45 20 E8 D5 FD FF FF 8B (.D$....E ......
0040C7A0 04 24 83 78 0C 00 0F 97 C3 84 DB 74 24 8D 45 0C .$.x.......t$.E.
0040C7B0 E8 13 FD FF FF EB 1A 8D 45 0C BA FF FF 00 00 E8 ........E.......
0040C7C0 24 FD FF FF 8B F0 85 F6 74 07 8B C5 E8 8B FF FF $.......t.......
0040C7D0 FF 8D 45 0C BA 01 00 FF FF E8 0A FD FF FF 3D FF ..E...........=.
0040C7E0 FF 00 00 75 D2 8B C5 E8 3C FF FF FF 84 DB 74 08 ...u....<.....t.
0040C7F0 8D 45 0C E8 DC FC FF FF 89 7D 24 8D 45 28 E8 C5 .E.......}$.E(..
0040C800 FC FF FF 48 3B 44 24 04 0F 94 C3 FF 45 1C 8B C3 ...H;D$.....E...
0040C810 59 5A 5D 5F 5E 5B C3 90 53 51 8B D8 8B D4 8B 43 YZ]_^[..SQ.....C
0040C820 20 E8 4E FD FF FF FF 4B 1C 83 7B 1C 00 75 20 33  .N....K..{..u 3
0040C830 C0 89 43 24 8D 43 0C BA FF FF 00 00 E8 A7 FC FF ..C$.C..........
0040C840 FF 8B C3 E8 F8 FE FF FF 8B C3 E8 E5 FE FF FF 8B ................
0040C850 04 24 83 78 0C 00 75 0A 8B D4 8B 43 20 E8 A6 FD .$.x..u....C ...
0040C860 FF FF 5A 5B C3 8D 40 00 53 56 57 51 8B F8 8B D4 ..Z[..@.SVWQ....
0040C870 8B 47 20 E8 FC FC FF FF 8B 04 24 FF 40 0C 8B 04 .G .......$.@...
0040C880 24 83 78 0C 01 0F 97 C3 E8 F3 9B FF FF 3B 47 24 $.x..........;G$
0040C890 74 40 84 DB 75 3C 8B C7 E8 AF FE FF FF EB 27 8D t@..u<........'.
0040C8A0 47 0C E8 21 FC FF FF 8B F0 81 FE FF FF 00 00 75 G..!...........u
0040C8B0 07 8B C7 E8 88 FE FF FF 6A 00 E8 CD FA FF FF 8B ........j.......
0040C8C0 C7 E8 86 FE FF FF 8D 47 0C E8 06 FC FF FF 85 C0 .......G........
0040C8D0 7E CD 5A 5F 5E 5B C3 90 53 51 8B D8 8B D4 8B 43 ~.Z_^[..SQ.....C
0040C8E0 20 E8 8E FC FF FF 8B 04 24 FF 48 0C 8B 04 24 83  .......$.H...$.
0040C8F0 78 0C 00 75 48 8B D4 8B 43 20 E8 09 FD FF FF E8 x..uH...C ......
0040C900 7C 9B FF FF 3B 43 24 74 34 8D 43 0C E8 B7 FB FF |...;C$t4.C.....
0040C910 FF 8B C8 81 F9 FF FF 00 00 75 09 8B C3 E8 1E FE .........u......
0040C920 FF FF EB 19 85 C9 7F 15 8B C1 B9 FF FF 00 00 99 ................
0040C930 F7 F9 85 D2 75 07 8B C3 E8 03 FE FF FF 5A 5B C3 ....u........Z[.

;; fn0040C940: 0040C940
;;   Called from:
;;     0041B292 (in fn0041B278)
fn0040C940 proc
	mov	edx,[eax]
	xor	ecx,ecx
	mov	[eax],ecx
	mov	eax,edx
	call	00403720
	ret
0040C94E                                           8B C0               ..
0040C950 1D 00 00 00 00 83 42 00 50 A8 42 00 F8 82 42 00 ......B.P.B...B.
0040C960 A0 A7 42 00 F0 82 42 00 28 A6 42 00 E8 82 42 00 ..B...B.(.B...B.
0040C970 98 A8 42 00 E0 82 42 00 D0 A8 42 00 D8 82 42 00 ..B...B...B...B.
0040C980 F4 A6 42 00 D0 82 42 00 8C A7 42 00 C8 82 42 00 ..B...B...B...B.
0040C990 E4 A5 42 00 C0 82 42 00 C8 A7 42 00 B8 82 42 00 ..B...B...B...B.
0040C9A0 F8 A7 42 00 B0 82 42 00 5C A7 42 00 A8 82 42 00 ..B...B.\.B...B.
0040C9B0 6C A7 42 00 A0 82 42 00 4C A9 42 00 98 82 42 00 l.B...B.L.B...B.
0040C9C0 64 A7 42 00 90 82 42 00 C4 A9 42 00 88 82 42 00 d.B...B...B...B.
0040C9D0 3C A8 42 00 80 82 42 00 18 A8 42 00 78 82 42 00 <.B...B...B.x.B.
0040C9E0 D0 A9 42 00 70 82 42 00 88 A9 42 00 68 82 42 00 ..B.p.B...B.h.B.
0040C9F0 78 A7 42 00 60 82 42 00 50 A9 42 00 58 82 42 00 x.B.`.B.P.B.X.B.
0040CA00 5C A9 42 00 50 82 42 00 DC A6 42 00 48 82 42 00 \.B.P.B...B.H.B.
0040CA10 8C A6 42 00 40 82 42 00 10 A8 42 00 38 82 42 00 ..B.@.B...B.8.B.
0040CA20 8C A8 42 00 30 82 42 00 F4 A5 42 00 28 82 42 00 ..B.0.B...B.(.B.
0040CA30 48 A9 42 00 20 82 42 00 74 A7 42 00 28 00 00 00 H.B. .B.t.B.(...
0040CA40 18 82 42 00 24 A9 42 00 00 00 00 00 14 82 42 00 ..B.$.B.......B.
0040CA50 30 A6 42 00 00 00 00 00 10 82 42 00 80 A8 42 00 0.B.......B...B.
0040CA60 00 00 00 00 0C 82 42 00 04 A6 42 00 00 00 00 00 ......B...B.....
0040CA70 08 82 42 00 A8 A6 42 00 00 00 00 00 04 82 42 00 ..B...B.......B.
0040CA80 98 A6 42 00 00 00 00 00 00 82 42 00 48 A6 42 00 ..B.......B.H.B.
0040CA90 00 00 00 00 FC 81 42 00 70 A7 42 00 00 00 00 00 ......B.p.B.....
0040CAA0 F8 81 42 00 38 A8 42 00 00 00 00 00 F4 81 42 00 ..B.8.B.......B.
0040CAB0 A0 A6 42 00 00 00 00 00 F0 81 42 00 04 A8 42 00 ..B.......B...B.
0040CAC0 00 00 00 00 EC 81 42 00 BC A8 42 00 00 00 00 00 ......B...B.....
0040CAD0 E8 81 42 00 B4 A8 42 00 00 00 00 00 E4 81 42 00 ..B...B.......B.
0040CAE0 48 A8 42 00 00 00 00 00 E0 81 42 00 58 A7 42 00 H.B.......B.X.B.
0040CAF0 00 00 00 00 DC 81 42 00 20 A7 42 00 00 00 00 00 ......B. .B.....
0040CB00 D8 81 42 00 00 A6 42 00 00 00 00 00 D4 81 42 00 ..B...B.......B.
0040CB10 B0 A8 42 00 00 00 00 00 D0 81 42 00 E4 A7 42 00 ..B.......B...B.
0040CB20 00 00 00 00 CC 81 42 00 0C A7 42 00 00 00 00 00 ......B...B.....
0040CB30 C8 81 42 00 C4 A7 42 00 00 00 00 00 C4 81 42 00 ..B...B.......B.
0040CB40 28 A8 42 00 00 00 00 00 C0 81 42 00 D8 A7 42 00 (.B.......B...B.
0040CB50 00 00 00 00 BC 81 42 00 44 A7 42 00 00 00 00 00 ......B.D.B.....
0040CB60 B8 81 42 00 FC A5 42 00 00 00 00 00 B4 81 42 00 ..B...B.......B.
0040CB70 94 A7 42 00 00 00 00 00 B0 81 42 00 64 A9 42 00 ..B.......B.d.B.
0040CB80 00 00 00 00 AC 81 42 00 20 A9 42 00 00 00 00 00 ......B. .B.....
0040CB90 A8 81 42 00 00 A8 42 00 00 00 00 00 A4 81 42 00 ..B...B.......B.
0040CBA0 D8 A6 42 00 00 00 00 00 A0 81 42 00 0C A6 42 00 ..B.......B...B.
0040CBB0 00 00 00 00 9C 81 42 00 0C A9 42 00 00 00 00 00 ......B...B.....
0040CBC0 98 81 42 00 EC A9 42 00 00 00 00 00 94 81 42 00 ..B...B.......B.
0040CBD0 5C A6 42 00 00 00 00 00 90 81 42 00 E0 A5 42 00 \.B.......B...B.
0040CBE0 00 00 00 00 8C 81 42 00 30 A9 42 00 00 00 00 00 ......B.0.B.....
0040CBF0 88 81 42 00 FC A7 42 00 00 00 00 00 84 81 42 00 ..B...B.......B.
0040CC00 A8 A9 42 00 00 00 00 00 60 81 42 00 80 A7 42 00 ..B.....`.B...B.
0040CC10 00 00 00 00 5C 81 42 00 E8 A6 42 00 00 00 00 00 ....\.B...B.....
0040CC20 55 8B EC 33 C0 55 68 95 CD 40 00 64 FF 30 64 89 U..3.Uh..@.d.0d.
0040CC30 20 FF 05 94 B7 42 00 0F 85 4A 01 00 00 B8 A0 B7  ....B...J......
0040CC40 42 00 E8 F9 FC FF FF E8 F4 F7 FF FF E8 47 EB FF B............G..
0040CC50 FF B8 54 82 42 00 B9 16 00 00 00 8B 15 68 B2 40 ..T.B........h.@
0040CC60 00 E8 46 80 FF FF B8 1C 82 42 00 B9 07 00 00 00 ..F......B......
0040CC70 8B 15 E8 B1 40 00 E8 31 80 FF FF B8 34 81 42 00 ....@..1....4.B.
0040CC80 B9 02 00 00 00 8B 15 44 10 40 00 E8 1C 80 FF FF .......D.@......
0040CC90 B8 2C 81 42 00 E8 A6 75 FF FF B8 90 B7 42 00 8B .,.B...u.....B..
0040CCA0 15 90 75 40 00 E8 D2 87 FF FF B8 8C B7 42 00 8B ..u@.........B..
0040CCB0 15 6C 75 40 00 E8 C2 87 FF FF B8 54 B7 42 00 B9 .lu@.......T.B..
0040CCC0 07 00 00 00 8B 15 44 10 40 00 E8 DD 7F FF FF B8 ......D.@.......
0040CCD0 28 B7 42 00 B9 07 00 00 00 8B 15 44 10 40 00 E8 (.B........D.@..
0040CCE0 C8 7F FF FF B8 0C B7 42 00 B9 07 00 00 00 8B 15 .......B........
0040CCF0 44 10 40 00 E8 B3 7F FF FF B8 DC B6 42 00 B9 0C D.@.........B...
0040CD00 00 00 00 8B 15 44 10 40 00 E8 9E 7F FF FF B8 AC .....D.@........
0040CD10 B6 42 00 B9 0C 00 00 00 8B 15 44 10 40 00 E8 89 .B........D.@...
0040CD20 7F FF FF B8 A8 B6 42 00 E8 13 75 FF FF B8 A4 B6 ......B...u.....
0040CD30 42 00 E8 09 75 FF FF B8 A0 B6 42 00 E8 FF 74 FF B...u.....B...t.
0040CD40 FF B8 9C B6 42 00 E8 F5 74 FF FF B8 94 B6 42 00 ....B...t.....B.
0040CD50 E8 EB 74 FF FF B8 90 B6 42 00 E8 E1 74 FF FF B8 ..t.....B...t...
0040CD60 84 B6 42 00 E8 D7 74 FF FF B8 D4 80 42 00 E8 CD ..B...t.....B...
0040CD70 74 FF FF B8 C0 80 42 00 E8 83 7B FF FF B8 BC 80 t.....B...{.....
0040CD80 42 00 E8 B9 74 FF FF 33 C0 5A 59 59 64 89 10 68 B...t..3.ZYYd..h
0040CD90 9C CD 40 00 C3 E9 8A 6E FF FF EB F8 5D C3 8B C0 ..@....n....]...
0040CDA0 55 8B EC 33 C0 55 68 08 CE 40 00 64 FF 30 64 89 U..3.Uh..@.d.0d.
0040CDB0 20 83 2D 94 B7 42 00 01 73 40 B8 50 C9 40 00 E8  .-..B..s@.P.@..
0040CDC0 04 72 FF FF B8 3C CA 40 00 E8 22 72 FF FF 80 3D .r...<.@.."r...=
0040CDD0 65 B6 42 00 00 74 0F B8 2C 81 42 00 BA 1C CE 40 e.B..t..,.B....@
0040CDE0 00 E8 AE 74 FF FF E8 29 E9 FF FF E8 28 EA FF FF ...t...)....(...
0040CDF0 E8 77 F6 FF FF E8 1A F2 FF FF 33 C0 5A 59 59 64 .w........3.ZYYd
0040CE00 89 10 68 0F CE 40 00 C3 E9 17 6E FF FF EB F8 5D ..h..@....n....]
0040CE10 C3 00 00 00 FF FF FF FF 02 00 00 00 30 78 00 00 ............0x..
0040CE20 FF 25 18 E4 42 00 8B C0 FF 25 14 E4 42 00 8B C0 .%..B....%..B...
0040CE30 FF 25 10 E4 42 00 8B C0 FF 25 0C E4 42 00 8B C0 .%..B....%..B...
0040CE40 55 8B EC 81 7D 10 00 04 00 00 74 07 B8 01 40 00 U...}.....t...@.
0040CE50 80 EB 17 66 8B 45 18 50 66 8B 45 14 50 8B 45 0C ...f.E.Pf.E.P.E.
0040CE60 50 8B 45 08 50 E8 CE FF FF FF 5D C2 14 00 8B C0 P.E.P.....].....
0040CE70 55 8B EC B8 01 40 00 80 5D C2 08 00 55 8B EC B8 U....@..]...U...
0040CE80 01 40 00 80 5D C2 0C 00 55 8B EC B8 01 40 00 80 .@..]...U....@..
0040CE90 5D C2 10 00 55 8B EC 6A 00 53 33 C0 55 68 EE CE ]...U..j.S3.Uh..
0040CEA0 40 00 64 FF 30 64 89 20 81 7D 0C 00 04 00 00 74 @.d.0d. .}.....t
0040CEB0 07 BB 01 40 00 80 EB 20 8D 45 FC 8B 55 08 E8 05 ...@... .E..U...
0040CEC0 76 FF FF 8B 45 FC 8B 55 14 E8 86 AC FF FF 83 E0 v...E..U........
0040CED0 7F 8B 1C 85 0C 83 42 00 33 C0 5A 59 59 64 89 10 ......B.3.ZYYd..
0040CEE0 68 F5 CE 40 00 8D 45 FC E8 53 73 FF FF C3 E9 31 h..@..E..Ss....1
0040CEF0 6D FF FF EB F0 8B C3 5B 59 5D C2 10 00 8D 40 00 m......[Y]....@.
0040CF00 55 8B EC 6A 00 53 33 C0 55 68 5A CF 40 00 64 FF U..j.S3.UhZ.@.d.
0040CF10 30 64 89 20 81 7D 0C 00 04 00 00 74 07 BB 01 40 0d. .}.....t...@
0040CF20 00 80 EB 20 8D 45 FC 8B 55 08 E8 99 75 FF FF 8B ... .E..U...u...
0040CF30 45 FC 8B 55 14 E8 A6 BF FF FF 83 E0 7F 8B 1C 85 E..U............
0040CF40 0C 83 42 00 33 C0 5A 59 59 64 89 10 68 61 CF 40 ..B.3.ZYYd..ha.@
0040CF50 00 8D 45 FC E8 E7 72 FF FF C3 E9 C5 6C FF FF EB ..E...r.....l...
0040CF60 F0 8B C3 5B 59 5D C2 10 00 8D 40 00 55 8B EC 6A ...[Y]....@.U..j
0040CF70 00 53 33 C0 55 68 C6 CF 40 00 64 FF 30 64 89 20 .S3.Uh..@.d.0d. 
0040CF80 81 7D 0C 00 04 00 00 74 07 BB 01 40 00 80 EB 20 .}.....t...@... 
0040CF90 8D 45 FC 8B 55 08 E8 2D 75 FF FF 8B 45 FC 8B 55 .E..U..-u...E..U
0040CFA0 14 E8 0E BF FF FF 83 E0 7F 8B 1C 85 0C 83 42 00 ..............B.
0040CFB0 33 C0 5A 59 59 64 89 10 68 CD CF 40 00 8D 45 FC 3.ZYYd..h..@..E.
0040CFC0 E8 7B 72 FF FF C3 E9 59 6C FF FF EB F0 8B C3 5B .{r....Yl......[
0040CFD0 59 5D C2 10 00 8D 40 00 55 8B EC 6A 00 53 33 C0 Y]....@.U..j.S3.
0040CFE0 55 68 32 D0 40 00 64 FF 30 64 89 20 81 7D 0C 00 Uh2.@.d.0d. .}..
0040CFF0 04 00 00 74 07 BB 01 40 00 80 EB 20 8D 45 FC 8B ...t...@... .E..
0040D000 55 08 E8 C1 74 FF FF 8B 45 FC 8B 55 14 E8 52 D7 U...t...E..U..R.
0040D010 FF FF 83 E0 7F 8B 1C 85 0C 83 42 00 33 C0 5A 59 ..........B.3.ZY
0040D020 59 64 89 10 68 39 D0 40 00 8D 45 FC E8 0F 72 FF Yd..h9.@..E...r.
0040D030 FF C3 E9 ED 6B FF FF EB F0 8B C3 5B 59 5D C2 10 ....k......[Y]..
0040D040 00 8D 40 00 55 8B EC 6A 00 53 33 C0 55 68 9E D0 ..@.U..j.S3.Uh..
0040D050 40 00 64 FF 30 64 89 20 81 7D 0C 00 04 00 00 74 @.d.0d. .}.....t
0040D060 07 BB 01 40 00 80 EB 20 8D 45 FC 8B 55 08 E8 55 ...@... .E..U..U
0040D070 74 FF FF 8B 45 FC 8B 55 14 E8 8E BE FF FF 83 E0 t...E..U........
0040D080 7F 8B 1C 85 0C 83 42 00 33 C0 5A 59 59 64 89 10 ......B.3.ZYYd..
0040D090 68 A5 D0 40 00 8D 45 FC E8 A3 71 FF FF C3 E9 81 h..@..E...q.....
0040D0A0 6B FF FF EB F0 8B C3 5B 59 5D C2 10 00 8D 40 00 k......[Y]....@.
0040D0B0 55 8B EC 83 C4 F8 53 33 C0 89 45 F8 33 C0 55 68 U.....S3..E.3.Uh
0040D0C0 1D D1 40 00 64 FF 30 64 89 20 81 7D 0C 00 04 00 ..@.d.0d. .}....
0040D0D0 00 74 07 BB 01 40 00 80 EB 2D 8D 45 F8 8B 55 08 .t...@...-.E..U.
0040D0E0 E8 E3 73 FF FF 8B 45 F8 8D 55 FF E8 70 AB FF FF ..s...E..U..p...
0040D0F0 83 E0 7F 8B 1C 85 0C 83 42 00 80 7D FF 01 F5 1B ........B..}....
0040D100 C0 8B 55 14 66 89 02 33 C0 5A 59 59 64 89 10 68 ..U.f..3.ZYYd..h
0040D110 24 D1 40 00 8D 45 F8 E8 24 71 FF FF C3 E9 02 6B $.@..E..$q.....k
0040D120 FF FF EB F0 8B C3 5B 59 59 5D C2 10 00 8D 40 00 ......[YY]....@.
0040D130 55 8B EC 6A 00 53 8B 45 18 85 C0 74 04 33 D2 89 U..j.S.E...t.3..
0040D140 10 33 C0 55 68 90 D1 40 00 64 FF 30 64 89 20 81 .3.Uh..@.d.0d. .
0040D150 7D 10 00 04 00 00 74 07 BB 01 40 00 80 EB 1B FF }.....t...@.....
0040D160 75 0C FF 75 08 8D 45 FC E8 FB BC FF FF 8B 55 FC u..u..E.......U.
0040D170 8B 45 18 E8 D4 78 FF FF 33 DB 33 C0 5A 59 59 64 .E...x..3.3.ZYYd
0040D180 89 10 68 97 D1 40 00 8D 45 FC E8 B1 70 FF FF C3 ..h..@..E...p...
0040D190 E9 8F 6A FF FF EB F0 8B C3 5B 59 5D C2 14 00 90 ..j......[Y]....
0040D1A0 55 8B EC 6A 00 53 8B 45 18 85 C0 74 04 33 D2 89 U..j.S.E...t.3..
0040D1B0 10 33 C0 55 68 00 D2 40 00 64 FF 30 64 89 20 81 .3.Uh..@.d.0d. .
0040D1C0 7D 10 00 04 00 00 74 07 BB 01 40 00 80 EB 1B FF }.....t...@.....
0040D1D0 75 0C FF 75 08 8D 45 FC E8 13 CD FF FF 8B 55 FC u..u..E.......U.
0040D1E0 8B 45 18 E8 64 78 FF FF 33 DB 33 C0 5A 59 59 64 .E..dx..3.3.ZYYd
0040D1F0 89 10 68 07 D2 40 00 8D 45 FC E8 41 70 FF FF C3 ..h..@..E..Ap...
0040D200 E9 1F 6A FF FF EB F0 8B C3 5B 59 5D C2 14 00 90 ..j......[Y]....
0040D210 55 8B EC 6A 00 53 8B 45 14 85 C0 74 04 33 D2 89 U..j.S.E...t.3..
0040D220 10 33 C0 55 68 74 D2 40 00 64 FF 30 64 89 20 81 .3.Uht.@.d.0d. .
0040D230 7D 0C 00 04 00 00 74 07 BB 01 40 00 80 EB 1F 66 }.....t...@....f
0040D240 83 7D 08 01 1B C0 40 8D 4D FC 33 D2 E8 AB AA FF .}....@.M.3.....
0040D250 FF 8B 55 FC 8B 45 14 E8 F0 77 FF FF 33 DB 33 C0 ..U..E...w..3.3.
0040D260 5A 59 59 64 89 10 68 7B D2 40 00 8D 45 FC E8 CD ZYYd..h{.@..E...
0040D270 6F FF FF C3 E9 AB 69 FF FF EB F0 8B C3 5B 59 5D o.....i......[Y]
0040D280 C2 10 00 90 FF 25 08 E4 42 00 8B C0 FF 25 04 E4 .....%..B....%..
0040D290 42 00 8B C0 FF 25 00 E4 42 00 8B C0 FF 25 FC E3 B....%..B....%..
0040D2A0 42 00 8B C0 55 8B EC 53 8B DA 8B D3 8B 4D 08 83 B...U..S.....M..
0040D2B0 79 FC 00 74 15 50 8B 45 08 8B 40 FC 50 E8 06 92 y..t.P.E..@.P...
0040D2C0 FF FF 8B D0 85 D2 75 02 8B D3 8B C2 5B 5D C3 90 ......u.....[]..
0040D2D0 55 8B EC 51 68 C8 D4 40 00 E8 E2 91 FF FF 89 45 U..Qh..@.......E
0040D2E0 FC 55 BA 40 CE 40 00 B8 D8 D4 40 00 E8 B3 FF FF .U.@.@....@.....
0040D2F0 FF 59 A3 A4 B7 42 00 55 BA 70 CE 40 00 B8 EC D4 .Y...B.U.p.@....
0040D300 40 00 E8 9D FF FF FF 59 A3 A8 B7 42 00 55 BA 70 @......Y...B.U.p
0040D310 CE 40 00 B8 F4 D4 40 00 E8 87 FF FF FF 59 A3 AC .@....@......Y..
0040D320 B7 42 00 55 BA 7C CE 40 00 B8 FC D4 40 00 E8 71 .B.U.|.@....@..q
0040D330 FF FF FF 59 A3 B0 B7 42 00 55 BA 7C CE 40 00 B8 ...Y...B.U.|.@..
0040D340 04 D5 40 00 E8 5B FF FF FF 59 A3 B4 B7 42 00 55 ..@..[...Y...B.U
0040D350 BA 7C CE 40 00 B8 0C D5 40 00 E8 45 FF FF FF 59 .|.@....@..E...Y
0040D360 A3 B8 B7 42 00 55 BA 7C CE 40 00 B8 14 D5 40 00 ...B.U.|.@....@.
0040D370 E8 2F FF FF FF 59 A3 BC B7 42 00 55 BA 7C CE 40 ./...Y...B.U.|.@
0040D380 00 B8 1C D5 40 00 E8 19 FF FF FF 59 A3 C0 B7 42 ....@......Y...B
0040D390 00 55 BA 7C CE 40 00 B8 24 D5 40 00 E8 03 FF FF .U.|.@..$.@.....
0040D3A0 FF 59 A3 C4 B7 42 00 55 BA 7C CE 40 00 B8 2C D5 .Y...B.U.|.@..,.
0040D3B0 40 00 E8 ED FE FF FF 59 A3 C8 B7 42 00 55 BA 7C @......Y...B.U.|
0040D3C0 CE 40 00 B8 34 D5 40 00 E8 D7 FE FF FF 59 A3 CC .@..4.@......Y..
0040D3D0 B7 42 00 55 BA 7C CE 40 00 B8 3C D5 40 00 E8 C1 .B.U.|.@..<.@...
0040D3E0 FE FF FF 59 A3 D0 B7 42 00 55 BA 88 CE 40 00 B8 ...Y...B.U...@..
0040D3F0 44 D5 40 00 E8 AB FE FF FF 59 A3 D4 B7 42 00 55 D.@......Y...B.U
0040D400 BA 94 CE 40 00 B8 4C D5 40 00 E8 95 FE FF FF 59 ...@..L.@......Y
0040D410 A3 D8 B7 42 00 55 BA 00 CF 40 00 B8 5C D5 40 00 ...B.U...@..\.@.
0040D420 E8 7F FE FF FF 59 A3 DC B7 42 00 55 BA 6C CF 40 .....Y...B.U.l.@
0040D430 00 B8 6C D5 40 00 E8 69 FE FF FF 59 A3 E0 B7 42 ..l.@..i...Y...B
0040D440 00 55 BA D8 CF 40 00 B8 7C D5 40 00 E8 53 FE FF .U...@..|.@..S..
0040D450 FF 59 A3 E4 B7 42 00 55 BA 44 D0 40 00 B8 8C D5 .Y...B.U.D.@....
0040D460 40 00 E8 3D FE FF FF 59 A3 E8 B7 42 00 55 BA B0 @..=...Y...B.U..
0040D470 D0 40 00 B8 9C D5 40 00 E8 27 FE FF FF 59 A3 EC .@....@..'...Y..
0040D480 B7 42 00 55 BA 30 D1 40 00 B8 AC D5 40 00 E8 11 .B.U.0.@....@...
0040D490 FE FF FF 59 A3 F0 B7 42 00 55 BA A0 D1 40 00 B8 ...Y...B.U...@..
0040D4A0 BC D5 40 00 E8 FB FD FF FF 59 A3 F4 B7 42 00 55 ..@......Y...B.U
0040D4B0 BA 10 D2 40 00 B8 CC D5 40 00 E8 E5 FD FF FF 59 ...@....@......Y
0040D4C0 A3 F8 B7 42 00 59 5D C3 6F 6C 65 61 75 74 33 32 ...B.Y].oleaut32
0040D4D0 2E 64 6C 6C 00 00 00 00 56 61 72 69 61 6E 74 43 .dll....VariantC
0040D4E0 68 61 6E 67 65 54 79 70 65 45 78 00 56 61 72 4E hangeTypeEx.VarN
0040D4F0 65 67 00 00 56 61 72 4E 6F 74 00 00 56 61 72 41 eg..VarNot..VarA
0040D500 64 64 00 00 56 61 72 53 75 62 00 00 56 61 72 4D dd..VarSub..VarM
0040D510 75 6C 00 00 56 61 72 44 69 76 00 00 56 61 72 49 ul..VarDiv..VarI
0040D520 64 69 76 00 56 61 72 4D 6F 64 00 00 56 61 72 41 div.VarMod..VarA
0040D530 6E 64 00 00 56 61 72 4F 72 00 00 00 56 61 72 58 nd..VarOr...VarX
0040D540 6F 72 00 00 56 61 72 43 6D 70 00 00 56 61 72 49 or..VarCmp..VarI
0040D550 34 46 72 6F 6D 53 74 72 00 00 00 00 56 61 72 52 4FromStr....VarR
0040D560 34 46 72 6F 6D 53 74 72 00 00 00 00 56 61 72 52 4FromStr....VarR
0040D570 38 46 72 6F 6D 53 74 72 00 00 00 00 56 61 72 44 8FromStr....VarD
0040D580 61 74 65 46 72 6F 6D 53 74 72 00 00 56 61 72 43 ateFromStr..VarC
0040D590 79 46 72 6F 6D 53 74 72 00 00 00 00 56 61 72 42 yFromStr....VarB
0040D5A0 6F 6F 6C 46 72 6F 6D 53 74 72 00 00 56 61 72 42 oolFromStr..VarB
0040D5B0 73 74 72 46 72 6F 6D 43 79 00 00 00 56 61 72 42 strFromCy...VarB
0040D5C0 73 74 72 46 72 6F 6D 44 61 74 65 00 56 61 72 42 strFromDate.VarB
0040D5D0 73 74 72 46 72 6F 6D 42 6F 6F 6C 00 55 8B EC 33 strFromBool.U..3
0040D5E0 C0 55 68 01 D6 40 00 64 FF 30 64 89 20 FF 05 FC .Uh..@.d.0d. ...
0040D5F0 B7 42 00 33 C0 5A 59 59 64 89 10 68 08 D6 40 00 .B.3.ZYYd..h..@.
0040D600 C3 E9 1E 66 FF FF EB F8 5D C3 8B C0 83 2D FC B7 ...f....]....-..
0040D610 42 00 01 73 05 E8 B6 FC FF FF C3 90 CC 83 44 24 B..s..........D$
0040D620 04 F8 8B 44 24 04 8B 00 FF 20 83 44 24 04 F8 E9 ...D$.... .D$...
0040D630 78 57 00 00 83 44 24 04 F8 E9 7A 57 00 00 1D D6 xW...D$...zW....
0040D640 40 00 2A D6 40 00 34 D6 40 00 01 00 00 00 00 00 @.*.@.4.@.......
0040D650 00 00 00 00 00 00 C0 00 00 00 00 00 00 46 3E D6 .............F>.
0040D660 40 00 08 00 00 00 00 00 00 00 8B C0 B8 D6 40 00 @.............@.
0040D670 4A D6 40 00 00 00 00 00 00 00 00 00 00 00 00 00 J.@.............
0040D680 00 00 00 00 00 00 00 00 00 00 00 00 F4 D6 40 00 ..............@.
0040D690 0C 00 00 00 60 10 40 00 54 39 40 00 60 39 40 00 ....`.@.T9@.`9@.
0040D6A0 64 39 40 00 68 39 40 00 5C 39 40 00 B8 36 40 00 d9@.h9@.\9@..6@.
0040D6B0 D4 36 40 00 C0 2C 41 00 C4 2D 41 00 50 2D 41 00 .6@..,A..-A.P-A.
0040D6C0 84 2D 41 00 64 2D 41 00 A0 2D 41 00 4C 2D 41 00 .-A.d-A..-A.L-A.
0040D6D0 C0 2B 41 00 F8 2B 41 00 84 2C 41 00 74 2C 40 00 .+A..+A..,A.t,@.
0040D6E0 74 2C 40 00 B4 2B 41 00 98 2D 41 00 4C 2C 41 00 t,@..+A..-A.L,A.
0040D6F0 40 2C 41 00 12 54 43 75 73 74 6F 6D 56 61 72 69 @,A..TCustomVari
0040D700 61 6E 74 54 79 70 65 90 0C D7 40 00 07 12 54 43 antType...@...TC
0040D710 75 73 74 6F 6D 56 61 72 69 61 6E 74 54 79 70 65 ustomVariantType
0040D720 B8 D6 40 00 B4 10 40 00 00 00 08 56 61 72 69 61 ..@...@....Varia
0040D730 6E 74 73 00 00 8D 40 00 84 D7 40 00 00 00 00 00 nts...@...@.....
0040D740 00 00 00 00 00 00 00 00 00 00 00 00 00 00 00 00 ................
0040D750 00 00 00 00 00 00 00 00 84 D7 40 00 0C 00 00 00 ..........@.....
0040D760 40 73 40 00 54 39 40 00 60 39 40 00 64 39 40 00 @s@.T9@.`9@.d9@.
0040D770 68 39 40 00 5C 39 40 00 B8 36 40 00 D4 36 40 00 h9@.\9@..6@..6@.
0040D780 10 37 40 00 16 45 56 61 72 69 61 6E 74 49 6E 76 .7@..EVariantInv
0040D790 61 6C 69 64 4F 70 45 72 72 6F 72 90 E8 D7 40 00 alidOpError...@.
0040D7A0 00 00 00 00 00 00 00 00 00 00 00 00 00 00 00 00 ................
0040D7B0 00 00 00 00 00 00 00 00 00 00 00 00 E8 D7 40 00 ..............@.
0040D7C0 0C 00 00 00 40 73 40 00 54 39 40 00 60 39 40 00 ....@s@.T9@.`9@.
0040D7D0 64 39 40 00 68 39 40 00 5C 39 40 00 B8 36 40 00 d9@.h9@.\9@..6@.
0040D7E0 D4 36 40 00 10 37 40 00 15 45 56 61 72 69 61 6E .6@..7@..EVarian
0040D7F0 74 54 79 70 65 43 61 73 74 45 72 72 6F 72 8B C0 tTypeCastError..
0040D800 4C D8 40 00 00 00 00 00 00 00 00 00 00 00 00 00 L.@.............
0040D810 00 00 00 00 00 00 00 00 00 00 00 00 00 00 00 00 ................
0040D820 4C D8 40 00 0C 00 00 00 40 73 40 00 54 39 40 00 L.@.....@s@.T9@.
0040D830 60 39 40 00 64 39 40 00 68 39 40 00 5C 39 40 00 `9@.d9@.h9@.\9@.
0040D840 B8 36 40 00 D4 36 40 00 10 37 40 00 15 45 56 61 .6@..6@..7@..EVa
0040D850 72 69 61 6E 74 4F 76 65 72 66 6C 6F 77 45 72 72 riantOverflowErr
0040D860 6F 72 8B C0 B0 D8 40 00 00 00 00 00 00 00 00 00 or....@.........
0040D870 00 00 00 00 00 00 00 00 00 00 00 00 00 00 00 00 ................
0040D880 00 00 00 00 B0 D8 40 00 0C 00 00 00 40 73 40 00 ......@.....@s@.
0040D890 54 39 40 00 60 39 40 00 64 39 40 00 68 39 40 00 T9@.`9@.d9@.h9@.
0040D8A0 5C 39 40 00 B8 36 40 00 D4 36 40 00 10 37 40 00 \9@..6@..6@..7@.
0040D8B0 17 45 56 61 72 69 61 6E 74 49 6E 76 61 6C 69 64 .EVariantInvalid
0040D8C0 41 72 67 45 72 72 6F 72 14 D9 40 00 00 00 00 00 ArgError..@.....
0040D8D0 00 00 00 00 00 00 00 00 00 00 00 00 00 00 00 00 ................
0040D8E0 00 00 00 00 00 00 00 00 14 D9 40 00 0C 00 00 00 ..........@.....
0040D8F0 40 73 40 00 54 39 40 00 60 39 40 00 64 39 40 00 @s@.T9@.`9@.d9@.
0040D900 68 39 40 00 5C 39 40 00 B8 36 40 00 D4 36 40 00 h9@.\9@..6@..6@.
0040D910 10 37 40 00 17 45 56 61 72 69 61 6E 74 42 61 64 .7@..EVariantBad
0040D920 56 61 72 54 79 70 65 45 72 72 6F 72 78 D9 40 00 VarTypeErrorx.@.
0040D930 00 00 00 00 00 00 00 00 00 00 00 00 00 00 00 00 ................
0040D940 00 00 00 00 00 00 00 00 00 00 00 00 78 D9 40 00 ............x.@.
0040D950 0C 00 00 00 40 73 40 00 54 39 40 00 60 39 40 00 ....@s@.T9@.`9@.
0040D960 64 39 40 00 68 39 40 00 5C 39 40 00 B8 36 40 00 d9@.h9@.\9@..6@.
0040D970 D4 36 40 00 10 37 40 00 15 45 56 61 72 69 61 6E .6@..7@..EVarian
0040D980 74 42 61 64 49 6E 64 65 78 45 72 72 6F 72 8B C0 tBadIndexError..
0040D990 DC D9 40 00 00 00 00 00 00 00 00 00 00 00 00 00 ..@.............
0040D9A0 00 00 00 00 00 00 00 00 00 00 00 00 00 00 00 00 ................
0040D9B0 DC D9 40 00 0C 00 00 00 40 73 40 00 54 39 40 00 ..@.....@s@.T9@.
0040D9C0 60 39 40 00 64 39 40 00 68 39 40 00 5C 39 40 00 `9@.d9@.h9@.\9@.
0040D9D0 B8 36 40 00 D4 36 40 00 10 37 40 00 18 45 56 61 .6@..6@..7@..EVa
0040D9E0 72 69 61 6E 74 41 72 72 61 79 4C 6F 63 6B 65 64 riantArrayLocked
0040D9F0 45 72 72 6F 72 8D 40 00 44 DA 40 00 00 00 00 00 Error.@.D.@.....
0040DA00 00 00 00 00 00 00 00 00 00 00 00 00 00 00 00 00 ................
0040DA10 00 00 00 00 00 00 00 00 44 DA 40 00 0C 00 00 00 ........D.@.....
0040DA20 40 73 40 00 54 39 40 00 60 39 40 00 64 39 40 00 @s@.T9@.`9@.d9@.
0040DA30 68 39 40 00 5C 39 40 00 B8 36 40 00 D4 36 40 00 h9@.\9@..6@..6@.
0040DA40 10 37 40 00 18 45 56 61 72 69 61 6E 74 41 72 72 .7@..EVariantArr
0040DA50 61 79 43 72 65 61 74 65 45 72 72 6F 72 8D 40 00 ayCreateError.@.
0040DA60 AC DA 40 00 00 00 00 00 00 00 00 00 00 00 00 00 ..@.............
0040DA70 00 00 00 00 00 00 00 00 00 00 00 00 00 00 00 00 ................
0040DA80 AC DA 40 00 0C 00 00 00 40 73 40 00 54 39 40 00 ..@.....@s@.T9@.
0040DA90 60 39 40 00 64 39 40 00 68 39 40 00 5C 39 40 00 `9@.d9@.h9@.\9@.
0040DAA0 B8 36 40 00 D4 36 40 00 10 37 40 00 14 45 56 61 .6@..6@..7@..EVa
0040DAB0 72 69 61 6E 74 4E 6F 74 49 6D 70 6C 45 72 72 6F riantNotImplErro
0040DAC0 72 8D 40 00 10 DB 40 00 00 00 00 00 00 00 00 00 r.@...@.........
0040DAD0 00 00 00 00 00 00 00 00 00 00 00 00 00 00 00 00 ................
0040DAE0 00 00 00 00 10 DB 40 00 0C 00 00 00 40 73 40 00 ......@.....@s@.
0040DAF0 54 39 40 00 60 39 40 00 64 39 40 00 68 39 40 00 T9@.`9@.d9@.h9@.
0040DB00 5C 39 40 00 B8 36 40 00 D4 36 40 00 10 37 40 00 \9@..6@..6@..7@.
0040DB10 18 45 56 61 72 69 61 6E 74 4F 75 74 4F 66 4D 65 .EVariantOutOfMe
0040DB20 6D 6F 72 79 45 72 72 6F 72 8D 40 00 78 DB 40 00 moryError.@.x.@.
0040DB30 00 00 00 00 00 00 00 00 00 00 00 00 00 00 00 00 ................
0040DB40 00 00 00 00 00 00 00 00 00 00 00 00 78 DB 40 00 ............x.@.
0040DB50 0C 00 00 00 40 73 40 00 54 39 40 00 60 39 40 00 ....@s@.T9@.`9@.
0040DB60 64 39 40 00 68 39 40 00 5C 39 40 00 B8 36 40 00 d9@.h9@.\9@..6@.
0040DB70 D4 36 40 00 10 37 40 00 17 45 56 61 72 69 61 6E .6@..7@..EVarian
0040DB80 74 55 6E 65 78 70 65 63 74 65 64 45 72 72 6F 72 tUnexpectedError
0040DB90 DC DB 40 00 00 00 00 00 00 00 00 00 00 00 00 00 ..@.............
0040DBA0 00 00 00 00 00 00 00 00 00 00 00 00 00 00 00 00 ................
0040DBB0 DC DB 40 00 0C 00 00 00 40 73 40 00 54 39 40 00 ..@.....@s@.T9@.
0040DBC0 60 39 40 00 64 39 40 00 68 39 40 00 5C 39 40 00 `9@.d9@.h9@.\9@.
0040DBD0 B8 36 40 00 D4 36 40 00 10 37 40 00 15 45 56 61 .6@..6@..7@..EVa
0040DBE0 72 69 61 6E 74 44 69 73 70 61 74 63 68 45 72 72 riantDispatchErr
0040DBF0 6F 72 8B C0 55 8B EC 6A 00 33 C0 55 68 3E DC 40 or..U..j.3.Uh>.@
0040DC00 00 64 FF 30 64 89 20 8D 55 FC A1 F8 A7 42 00 E8 .d.0d. .U....B..
0040DC10 3C 84 FF FF 8B 4D FC B2 01 A1 9C D7 40 00 E8 E5 <....M......@...
0040DC20 D3 FF FF E8 34 60 FF FF 33 C0 5A 59 59 64 89 10 ....4`..3.ZYYd..
0040DC30 68 45 DC 40 00 8D 45 FC E8 03 66 FF FF C3 E9 E1 hE.@..E...f.....
0040DC40 5F FF FF EB F0 59 5D C3 55 8B EC 83 C4 E4 53 56 _....Y].U.....SV
0040DC50 33 C9 89 4D EC 89 4D E8 89 4D E4 8B F2 8B D8 33 3..M..M..M.....3
0040DC60 C0 55 68 D7 DC 40 00 64 FF 30 64 89 20 8D 55 EC .Uh..@.d.0d. .U.
0040DC70 8B C3 E8 19 4D 00 00 8B 45 EC 89 45 F0 C6 45 F4 ....M...E..E..E.
0040DC80 0B 8D 55 E8 8B C6 E8 05 4D 00 00 8B 45 E8 89 45 ..U.....M...E..E
0040DC90 F8 C6 45 FC 0B 8D 45 F0 50 6A 01 8D 55 E4 A1 F0 ..E...E.Pj..U...
0040DCA0 A5 42 00 E8 A8 83 FF FF 8B 4D E4 B2 01 A1 9C D7 .B.......M......
0040DCB0 40 00 E8 8D D3 FF FF E8 A0 5F FF FF 33 C0 5A 59 @........_..3.ZY
0040DCC0 59 64 89 10 68 DE DC 40 00 8D 45 E4 BA 03 00 00 Yd..h..@..E.....
0040DCD0 00 E8 8E 65 FF FF C3 E9 48 5F FF FF EB EB 5E 5B ...e....H_....^[
0040DCE0 8B E5 5D C3 55 8B EC 6A 00 33 C0 55 68 2E DD 40 ..].U..j.3.Uh..@
0040DCF0 00 64 FF 30 64 89 20 8D 55 FC A1 C8 A7 42 00 E8 .d.0d. .U....B..
0040DD00 4C 83 FF FF 8B 4D FC B2 01 A1 38 D7 40 00 E8 F5 L....M....8.@...
0040DD10 D2 FF FF E8 44 5F FF FF 33 C0 5A 59 59 64 89 10 ....D_..3.ZYYd..
0040DD20 68 35 DD 40 00 8D 45 FC E8 13 65 FF FF C3 E9 F1 h5.@..E...e.....
0040DD30 5E FF FF EB F0 59 5D C3 55 8B EC 83 C4 E4 53 56 ^....Y].U.....SV
0040DD40 33 C9 89 4D EC 89 4D E8 89 4D E4 8B F2 8B D8 33 3..M..M..M.....3
0040DD50 C0 55 68 C7 DD 40 00 64 FF 30 64 89 20 8D 55 EC .Uh..@.d.0d. .U.
0040DD60 8B C3 E8 29 4C 00 00 8B 45 EC 89 45 F0 C6 45 F4 ...)L...E..E..E.
0040DD70 0B 8D 55 E8 8B C6 E8 15 4C 00 00 8B 45 E8 89 45 ..U.....L...E..E
0040DD80 F8 C6 45 FC 0B 8D 45 F0 50 6A 01 8D 55 E4 A1 58 ..E...E.Pj..U..X
0040DD90 A8 42 00 E8 B8 82 FF FF 8B 4D E4 B2 01 A1 00 D8 .B.......M......
0040DDA0 40 00 E8 9D D2 FF FF E8 B0 5E FF FF 33 C0 5A 59 @........^..3.ZY
0040DDB0 59 64 89 10 68 CE DD 40 00 8D 45 E4 BA 03 00 00 Yd..h..@..E.....
0040DDC0 00 E8 9E 64 FF FF C3 E9 58 5E FF FF EB EB 5E 5B ...d....X^....^[
0040DDD0 8B E5 5D C3 55 8B EC 6A 00 33 C0 55 68 1E DE 40 ..].U..j.3.Uh..@
0040DDE0 00 64 FF 30 64 89 20 8D 55 FC A1 8C A7 42 00 E8 .d.0d. .U....B..
0040DDF0 5C 82 FF FF 8B 4D FC B2 01 A1 F8 D9 40 00 E8 05 \....M......@...
0040DE00 D2 FF FF E8 54 5E FF FF 33 C0 5A 59 59 64 89 10 ....T^..3.ZYYd..
0040DE10 68 25 DE 40 00 8D 45 FC E8 23 64 FF FF C3 E9 01 h%.@..E..#d.....
0040DE20 5E FF FF EB F0 59 5D C3 55 8B EC B9 08 00 00 00 ^....Y].U.......
0040DE30 6A 00 6A 00 49 75 F9 53 8B D8 33 C0 55 68 6D E0 j.j.Iu.S..3.Uhm.
0040DE40 40 00 64 FF 30 64 89 20 8B C3 3D 0A 00 02 80 7F @.d.0d. ..=.....
0040DE50 39 0F 84 9A 00 00 00 3D 05 00 02 80 7F 1D 74 57 9......=......tW
0040DE60 2D 01 40 00 80 0F 84 F8 00 00 00 2D FE BF 00 00 -.@........-....
0040DE70 0F 84 5C 01 00 00 E9 7A 01 00 00 2D 08 00 02 80 ..\....z...-....
0040DE80 74 3F 48 74 62 E9 6B 01 00 00 2D 0B 00 02 80 0F t?Htb.k...-.....
0040DE90 84 82 00 00 00 83 E8 02 0F 84 9F 00 00 00 2D 01 ..............-.
0040DEA0 00 05 00 0F 84 E0 00 00 00 83 E8 49 0F 84 FD 00 ...........I....
0040DEB0 00 00 E9 3E 01 00 00 E8 38 FD FF FF E9 84 01 00 ...>....8.......
0040DEC0 00 8D 55 FC A1 58 A9 42 00 E8 82 81 FF FF 8B 4D ..U..X.B.......M
0040DED0 FC B2 01 A1 C8 D8 40 00 E8 2B D1 FF FF E8 7A 5D ......@..+....z]
0040DEE0 FF FF E9 5E 01 00 00 E8 F8 FD FF FF E9 54 01 00 ...^.........T..
0040DEF0 00 8D 55 F8 A1 78 A6 42 00 E8 52 81 FF FF 8B 4D ..U..x.B..R....M
0040DF00 F8 B2 01 A1 00 D8 40 00 E8 FB D0 FF FF E8 4A 5D ......@.......J]
0040DF10 FF FF E9 2E 01 00 00 8D 55 F4 A1 D0 A8 42 00 E8 ........U....B..
0040DF20 2C 81 FF FF 8B 4D F4 B2 01 A1 2C D9 40 00 E8 D5 ,....M....,.@...
0040DF30 D0 FF FF E8 24 5D FF FF E9 08 01 00 00 8D 55 F0 ....$]........U.
0040DF40 A1 CC A9 42 00 E8 06 81 FF FF 8B 4D F0 B2 01 A1 ...B.......M....
0040DF50 90 D9 40 00 E8 AF D0 FF FF E8 FE 5C FF FF E9 E2 ..@........\....
0040DF60 00 00 00 8D 55 EC A1 24 A8 42 00 E8 E0 80 FF FF ....U..$.B......
0040DF70 8B 4D EC B2 01 A1 60 DA 40 00 E8 89 D0 FF FF E8 .M....`.@.......
0040DF80 D8 5C FF FF E9 BC 00 00 00 8D 55 E8 A1 D4 A6 42 .\........U....B
0040DF90 00 E8 BA 80 FF FF 8B 4D E8 B2 01 A1 C4 DA 40 00 .......M......@.
0040DFA0 E8 63 D0 FF FF E8 B2 5C FF FF E9 96 00 00 00 8D .c.....\........
0040DFB0 55 E4 A1 F4 A6 42 00 E8 94 80 FF FF 8B 4D E4 B2 U....B.......M..
0040DFC0 01 A1 64 D8 40 00 E8 3D D0 FF FF E8 8C 5C FF FF ..d.@..=.....\..
0040DFD0 EB 73 8D 55 E0 A1 74 A6 42 00 E8 71 80 FF FF 8B .s.U..t.B..q....
0040DFE0 4D E0 B2 01 A1 2C DB 40 00 E8 1A D0 FF FF E8 69 M....,.@.......i
0040DFF0 5C FF FF EB 50 A1 70 A9 42 00 8B 00 89 45 C8 C6 \...P.p.B....E..
0040E000 45 CC 0B 89 5D D0 C6 45 D4 00 8D 55 C4 8B C3 E8 E...]..E...U....
0040E010 DC C7 FF FF 8B 45 C4 89 45 D8 C6 45 DC 0B 8D 45 .....E..E..E...E
0040E020 C8 50 6A 02 8D 55 C0 A1 90 A7 42 00 E8 1F 80 FF .Pj..U....B.....
0040E030 FF 8B 4D C0 B2 01 A1 40 73 40 00 E8 04 D0 FF FF ..M....@s@......
0040E040 E8 17 5C FF FF 33 C0 5A 59 59 64 89 10 68 74 E0 ..\..3.ZYYd..ht.
0040E050 40 00 8D 45 C0 BA 02 00 00 00 E8 05 62 FF FF 8D @..E........b...
0040E060 45 E0 BA 08 00 00 00 E8 F8 61 FF FF C3 E9 B2 5B E........a.....[
0040E070 FF FF EB DE 5B 8B E5 5D C3 8D 40 00 85 C0 74 05 ....[..]..@...t.
0040E080 E8 A3 FD FF FF C3 8B C0 53 85 C0 74 2C 8B D8 81 ........S..t,...
0040E090 EB 05 00 02 80 74 07 83 EB 05 74 0D EB 16 8B C2 .....t....t.....
0040E0A0 8B D1 E8 A1 FB FF FF EB 10 8B C2 8B D1 E8 86 FC ................
0040E0B0 FF FF EB 05 E8 6F FD FF FF 5B C3 90 53 56 8B F2 .....o...[..SV..
0040E0C0 8B D8 E8 01 4A FF FF 8B 15 54 6E 40 00 E8 E6 57 ....J....Tn@...W
0040E0D0 FF FF 84 C0 74 11 8B CE 8B D3 B8 0A 00 02 80 E8 ....t...........
0040E0E0 A4 FF FF FF 5E 5B C3 E8 DC 49 FF FF 8B 15 10 70 ....^[...I.....p
0040E0F0 40 00 E8 C1 57 FF FF 84 C0 74 10 8B CE 8B D3 B8 @...W....t......
0040E100 0A 00 02 80 E8 7F FF FF FF EB 32 E8 B8 49 FF FF ..........2..I..
0040E110 8B 15 78 71 40 00 E8 9D 57 FF FF 84 C0 74 10 8B ..xq@...W....t..
0040E120 CE 8B D3 B8 05 00 02 80 E8 5B FF FF FF EB 0E E8 .........[......
0040E130 B4 49 FF FF 8B D0 8B C2 E8 1F 5B FF FF 5E 5B C3 .I........[..^[.
0040E140 55 8B EC 6A 00 33 C0 55 68 8A E1 40 00 64 FF 30 U..j.3.Uh..@.d.0
0040E150 64 89 20 8D 55 FC A1 E4 A5 42 00 E8 F0 7E FF FF d. .U....B...~..
0040E160 8B 4D FC B2 01 A1 90 DB 40 00 E8 99 CE FF FF E8 .M......@.......
0040E170 E8 5A FF FF 33 C0 5A 59 59 64 89 10 68 91 E1 40 .Z..3.ZYYd..h..@
0040E180 00 8D 45 FC E8 B7 60 FF FF C3 E9 95 5A FF FF EB ..E...`.....Z...
0040E190 F0 59 5D C3 53 8B D8 8B C3 E8 8E 02 00 00 66 C7 .Y].S.........f.
0040E1A0 03 01 00 5B C3 8D 40 00 55 8B EC 53 8B 4D 08 81 ...[..@.U..S.M..
0040E1B0 C1 00 FD FF FF 8B 54 C1 04 03 14 C1 8B 5D 08 3B ......T......].;
0040E1C0 94 83 00 FF FF FF 0F 9F C2 48 84 D2 74 04 85 C0 .........H..t...
0040E1D0 7D E3 8B C2 5B 5D C3 90 55 8B EC 53 56 B2 01 8B }...[]..U..SV...
0040E1E0 4D 08 FF 84 81 00 FF FF FF 8B 4D 08 8B 8C C1 04 M.........M.....
0040E1F0 FD FF FF 8B D9 8B 75 08 03 9C C6 00 FD FF FF 8B ......u.........
0040E200 75 08 3B 9C 86 00 FF FF FF 7F 22 85 C0 75 04 33 u.;......."..u.3
0040E210 D2 EB 1A 8B 55 08 8B 55 08 89 8C 82 00 FF FF FF ....U..U........
0040E220 8B 55 08 52 48 E8 AE FF FF FF 59 8B D0 8B C2 5E .U.RH.....Y....^
0040E230 5B 5D C3 90 55 8B EC 81 C4 E8 FC FF FF 53 56 57 []..U........SVW
0040E240 89 85 FC FC FF FF 8B 85 FC FC FF FF F6 40 01 20 .............@. 
0040E250 75 0A B8 57 00 07 80 E8 20 FE FF FF 8B 85 FC FC u..W.... .......
0040E260 FF FF 66 8B 00 8B D0 66 81 E2 FF 0F 66 83 FA 0C ..f....f....f...
0040E270 0F 85 22 01 00 00 8B 95 FC FC FF FF F6 C4 40 74 .."...........@t
0040E280 13 8B 85 FC FC FF FF 8B 40 08 8B 00 89 85 F8 FC ........@.......
0040E290 FF FF EB 0F 8B 85 FC FC FF FF 8B 40 08 89 85 F8 ...........@....
0040E2A0 FC FF FF 8B 85 F8 FC FF FF 0F B7 00 89 85 F0 FC ................
0040E2B0 FF FF 8B 9D F0 FC FF FF 4B 85 DB 7C 6B 43 33 FF ........K..|kC3.
0040E2C0 8D B5 00 FD FF FF 8B C6 89 85 E8 FC FF FF 8B 85 ................
0040E2D0 E8 FC FF FF 83 C0 04 50 8D 47 01 50 8B 85 F8 FC .......P.G.P....
0040E2E0 FF FF 50 E8 A4 EF FF FF E8 8F FD FF FF 8D 85 F4 ..P.............
0040E2F0 FC FF FF 50 8D 47 01 50 8B 85 F8 FC FF FF 50 E8 ...P.G.P......P.
0040E300 90 EF FF FF E8 73 FD FF FF 8B 85 E8 FC FF FF 8B .....s..........
0040E310 95 F4 FC FF FF 2B 50 04 42 8B 85 E8 FC FF FF 89 .....+P.B.......
0040E320 10 47 83 C6 08 4B 75 9E 8B 9D F0 FC FF FF 4B 85 .G...Ku.......K.
0040E330 DB 7C 1A 43 8D 85 04 FD FF FF 8D 95 00 FF FF FF .|.C............
0040E340 8B 08 89 0A 83 C2 04 83 C0 08 4B 75 F3 55 8B 9D ..........Ku.U..
0040E350 F0 FC FF FF 4B 8B C3 E8 4C FE FF FF 59 84 C0 74 ....K...L...Y..t
0040E360 2A 8D 85 EC FC FF FF 50 8D 85 00 FF FF FF 50 8B *......P......P.
0040E370 85 F8 FC FF FF 50 E8 21 EF FF FF E8 FC FC FF FF .....P.!........
0040E380 8B 85 EC FC FF FF E8 A1 00 00 00 55 8B C3 E8 45 ...........U...E
0040E390 FE FF FF 59 84 C0 75 B5 8B 85 FC FC FF FF 50 E8 ...Y..u.......P.
0040E3A0 84 EA FF FF E8 D3 FC FF FF 5F 5E 5B 8B E5 5D C3 ........._^[..].
0040E3B0 53 56 51 8B D8 66 8B 33 66 83 FE 14 73 0D 53 E8 SVQ..f.3f...s.S.
0040E3C0 64 EA FF FF E8 B3 FC FF FF EB 5B 66 81 FE 00 01 d.........[f....
0040E3D0 75 0F 66 C7 03 00 00 8D 43 08 E8 61 5E FF FF EB u.f.....C..a^...
0040E3E0 45 66 81 FE 01 01 75 0A 8B C3 FF 15 14 B8 42 00 Ef....u.......B.
0040E3F0 EB 34 66 F7 C6 00 20 74 09 8B C3 E8 34 FE FF FF .4f... t....4...
0040E400 EB 24 8B D4 8B C6 E8 E1 49 00 00 84 C0 74 0C 8B .$......I....t..
0040E410 D3 8B 04 24 8B 08 FF 51 24 EB 0B 53 E8 07 EA FF ...$...Q$..S....
0040E420 FF E8 56 FC FF FF 5A 5E 5B C3 8B C0 66 F7 00 E8 ..V...Z^[...f...
0040E430 BF 75 06 66 C7 00 00 00 C3 E8 72 FF FF FF C3 90 .u.f......r.....
0040E440 50 E8 E6 FF FF FF 58 C3 55 8B EC 53 8B 4D 08 81 P.....X.U..S.M..
0040E450 C1 00 FD FF FF 8B 54 C1 04 03 14 C1 8B 5D 08 3B ......T......].;
0040E460 94 83 00 FF FF FF 0F 9F C2 48 84 D2 74 04 85 C0 .........H..t...
0040E470 7D E3 8B C2 5B 5D C3 90 55 8B EC 53 56 B2 01 8B }...[]..U..SV...
0040E480 4D 08 FF 84 81 00 FF FF FF 8B 4D 08 8B 8C C1 04 M.........M.....
0040E490 FD FF FF 8B D9 8B 75 08 03 9C C6 00 FD FF FF 8B ......u.........
0040E4A0 75 08 3B 9C 86 00 FF FF FF 7F 22 85 C0 75 04 33 u.;......."..u.3
0040E4B0 D2 EB 1A 8B 55 08 8B 55 08 89 8C 82 00 FF FF FF ....U..U........
0040E4C0 8B 55 08 52 48 E8 AE FF FF FF 59 8B D0 8B C2 5E .U.RH.....Y....^
0040E4D0 5B 5D C3 90 55 8B EC 81 C4 DC FC FF FF 53 56 57 []..U........SVW
0040E4E0 89 8D F8 FC FF FF 8B DA 89 85 FC FC FF FF F6 43 ...............C
0040E4F0 01 20 75 0A B8 57 00 07 80 E8 7E FB FF FF 66 8B . u..W....~...f.
0040E500 03 8B D0 66 81 E2 FF 0F 66 83 FA 0C 0F 85 88 01 ...f....f.......
0040E510 00 00 F6 C4 40 74 0D 8B 43 08 8B 00 89 85 E8 FC ....@t..C.......
0040E520 FF FF EB 09 8B 43 08 89 85 E8 FC FF FF 8B 85 E8 .....C..........
0040E530 FC FF FF 0F B7 00 89 85 F0 FC FF FF 8B 9D F0 FC ................
0040E540 FF FF 4B 85 DB 7C 6B 43 33 FF 8D B5 00 FD FF FF ..K..|kC3.......
0040E550 8B C6 89 85 DC FC FF FF 8B 85 DC FC FF FF 83 C0 ................
0040E560 04 50 8D 47 01 50 8B 85 E8 FC FF FF 50 E8 1A ED .P.G.P......P...
0040E570 FF FF E8 05 FB FF FF 8D 85 F4 FC FF FF 50 8D 47 .............P.G
0040E580 01 50 8B 85 E8 FC FF FF 50 E8 06 ED FF FF E8 E9 .P......P.......
0040E590 FA FF FF 8B 85 DC FC FF FF 8B 95 F4 FC FF FF 2B ...............+
0040E5A0 50 04 42 8B 85 DC FC FF FF 89 10 47 83 C6 08 4B P.B........G...K
0040E5B0 75 9E 8D 85 00 FD FF FF 50 8B 85 F0 FC FF FF 50 u.......P......P
0040E5C0 6A 0C E8 BD EC FF FF 89 85 EC FC FF FF 83 BD EC j...............
0040E5D0 FC FF FF 00 75 05 E8 F9 F7 FF FF 8B 85 FC FC FF ....u...........
0040E5E0 FF E8 46 FE FF FF 8B 85 FC FC FF FF 66 C7 00 0C ..F.........f...
0040E5F0 20 8B 85 FC FC FF FF 8B 95 EC FC FF FF 89 50 08  .............P.
0040E600 8B 9D F0 FC FF FF 4B 85 DB 7C 1A 43 8D 85 04 FD ......K..|.C....
0040E610 FF FF 8D 95 00 FF FF FF 8B 08 89 0A 83 C2 04 83 ................
0040E620 C0 08 4B 75 F3 55 8B 9D F0 FC FF FF 4B 8B C3 E8 ..Ku.U......K...
0040E630 14 FE FF FF 59 84 C0 74 52 8D 85 E4 FC FF FF 50 ....Y..tR......P
0040E640 8D 85 00 FF FF FF 50 8B 85 E8 FC FF FF 50 E8 49 ......P......P.I
0040E650 EC FF FF E8 24 FA FF FF 8D 85 E0 FC FF FF 50 8D ....$.........P.
0040E660 85 00 FF FF FF 50 8B 85 EC FC FF FF 50 E8 2A EC .....P......P.*.
0040E670 FF FF E8 05 FA FF FF 8B 85 E4 FC FF FF 8B D0 8B ................
0040E680 85 E0 FC FF FF FF 95 F8 FC FF FF 55 8B C3 E8 E5 ...........U....
0040E690 FD FF FF 59 84 C0 75 8D EB 12 53 8B 85 FC FC FF ...Y..u...S.....
0040E6A0 FF 50 E8 89 E7 FF FF E8 D0 F9 FF FF 5F 5E 5B 8B .P.........._^[.
0040E6B0 E5 5D C3 90 E8 AF 00 00 00 C3 8B C0 53 56 57 51 .]..........SVWQ
0040E6C0 8B F2 8B D8 66 F7 03 E8 BF 74 07 8B C3 E8 DE FC ....f....t......
0040E6D0 FF FF 66 8B 3E 66 83 FF 14 73 0E 56 53 E8 4E E7 ..f.>f...s.VS.N.
0040E6E0 FF FF E8 95 F9 FF FF EB 79 66 81 FF 00 01 75 17 ........yf....u.
0040E6F0 66 C7 03 00 01 33 C0 89 43 08 8D 43 08 8B 56 08 f....3..C..C..V.
0040E700 E8 8F 5B FF FF EB 5B 66 81 FF 01 01 75 13 66 89 ..[...[f....u.f.
0040E710 3B 8B 46 08 89 43 08 8B C3 FF 15 1C B8 42 00 EB ;.F..C.......B..
0040E720 41 66 F7 C7 00 20 74 10 B9 B4 E6 40 00 8B D6 8B Af... t....@....
0040E730 C3 E8 9E FD FF FF EB 2A 8B D4 8B C7 E8 AB 46 00 .......*......F.
0040E740 00 84 C0 74 11 6A 00 8B CE 8B D3 8B 44 24 04 8B ...t.j......D$..
0040E750 18 FF 53 28 EB 0C 56 53 E8 D3 E6 FF FF E8 1A F9 ..S(..VS........
0040E760 FF FF 5A 5F 5E 5B C3 90 53 56 8B DA 8B F0 3B F3 ..Z_^[..SV....;.
0040E770 74 36 66 F7 03 E8 BF 75 26 66 F7 06 E8 BF 74 07 t6f....u&f....t.
0040E780 8B C6 E8 29 FC FF FF 8B 03 89 06 8B 43 04 89 46 ...)........C..F
0040E790 04 8B 43 08 89 46 08 8B 43 0C 89 46 0C EB 09 8B ..C..F..C..F....
0040E7A0 D3 8B C6 E8 14 FF FF FF 5E 5B C3 90 55 8B EC 83 ........^[..U...
0040E7B0 C4 F0 53 56 57 8B F9 8B F2 8B D8 8D 45 F0 50 E8 ..SVW.......E.P.
0040E7C0 5C E6 FF FF 33 C0 55 68 08 E8 40 00 64 FF 30 64 \...3.Uh..@.d.0d
0040E7D0 89 20 8B D6 8D 45 F0 E8 8C FF FF FF 8D 45 F0 FF . ...E.......E..
0040E7E0 15 18 B8 42 00 0F B7 CF 8D 55 F0 8B C3 E8 42 02 ...B.....U....B.
0040E7F0 00 00 33 C0 5A 59 59 64 89 10 68 0F E8 40 00 8D ..3.ZYYd..h..@..
0040E800 45 F0 E8 25 FC FF FF C3 E9 17 54 FF FF EB F0 5F E..%......T...._
0040E810 5E 5B 8B E5 5D C3 8B C0 55 8B EC 6A 00 53 8B D8 ^[..]...U..j.S..
0040E820 33 C0 55 68 56 E8 40 00 64 FF 30 64 89 20 8D 45 3.UhV.@.d.0d. .E
0040E830 FC E8 1A 36 00 00 8B C3 8B 55 FC E8 3C 3F 00 00 ...6.....U..<?..
0040E840 33 C0 5A 59 59 64 89 10 68 5D E8 40 00 8D 45 FC 3.ZYYd..h].@..E.
0040E850 E8 AB 60 FF FF C3 E9 C9 53 FF FF EB F0 5B 59 5D ..`.....S....[Y]
0040E860 C3 8D 40 00 55 8B EC 6A 00 53 8B D8 33 C0 55 68 ..@.U..j.S..3.Uh
0040E870 A2 E8 40 00 64 FF 30 64 89 20 8D 45 FC E8 AE 2E ..@.d.0d. .E....
0040E880 00 00 8B C3 8B 55 FC E8 C4 3E 00 00 33 C0 5A 59 .....U...>..3.ZY
0040E890 59 64 89 10 68 A9 E8 40 00 8D 45 FC E8 9F 59 FF Yd..h..@..E...Y.
0040E8A0 FF C3 E9 7D 53 FF FF EB F0 5B 59 5D C3 8D 40 00 ...}S....[Y]..@.
0040E8B0 55 8B EC 6A 00 53 8B D8 33 C0 55 68 EE E8 40 00 U..j.S..3.Uh..@.
0040E8C0 64 FF 30 64 89 20 8D 45 FC E8 1A 3C 00 00 8B C3 d.0d. .E...<....
0040E8D0 8B 55 FC E8 08 3F 00 00 33 C0 5A 59 59 64 89 10 .U...?..3.ZYYd..
0040E8E0 68 F5 E8 40 00 8D 45 FC E8 DB 72 FF FF C3 E9 31 h..@..E...r....1
0040E8F0 53 FF FF EB F0 5B 59 5D C3 8D 40 00 55 8B EC 6A S....[Y]..@.U..j
0040E900 00 53 8B D8 33 C0 55 68 3A E9 40 00 64 FF 30 64 .S..3.Uh:.@.d.0d
0040E910 89 20 8D 45 FC E8 02 3B 00 00 8B C3 8B 55 FC E8 . .E...;.....U..
0040E920 90 3E 00 00 33 C0 5A 59 59 64 89 10 68 41 E9 40 .>..3.ZYYd..hA.@
0040E930 00 8D 45 FC E8 8F 72 FF FF C3 E9 E5 52 FF FF EB ..E...r.....R...
0040E940 F0 5B 59 5D C3 8D 40 00 53 56 57 8B F1 8B DA 8B .[Y]..@.SVW.....
0040E950 F8 66 8B 03 8B D0 66 81 E2 FF 0F 66 83 FA 14 72 .f....f....f...r
0040E960 2D 8B D3 8B C7 B9 08 00 00 00 E8 C5 00 00 00 56 -..............V
0040E970 6A 00 68 00 04 00 00 57 57 A1 08 A9 42 00 8B 00 j.h....WW...B...
0040E980 FF D0 66 8B 13 8B CE E8 FC F6 FF FF EB 33 8B D6 ..f..........3..
0040E990 66 81 E2 FF 0F 66 83 FA 14 73 1F 56 6A 00 68 00 f....f...s.Vj.h.
0040E9A0 04 00 00 53 57 A1 08 A9 42 00 8B 00 FF D0 66 8B ...SW...B.....f.
0040E9B0 13 8B CE E8 D0 F6 FF FF EB 07 8B D6 E8 87 F2 FF ................
0040E9C0 FF 5F 5E 5B C3 8D 40 00 53 56 57 55 51 8B F1 8B ._^[..@.SVWUQ...
0040E9D0 DA 8B F8 66 8B 2B 66 81 FD 01 01 75 0D 8B D3 8B ...f.+f....u....
0040E9E0 C7 8B CE E8 C4 FD FF FF EB 43 8B D4 8B C5 E8 F9 .........C......
0040E9F0 43 00 00 84 C0 74 10 56 8B CB 8B D7 8B 44 24 04 C....t.V.....D$.
0040EA00 8B 18 FF 53 1C EB 26 8B D4 8B C6 E8 DC 43 00 00 ...S..&......C..
0040EA10 84 C0 74 0E 8B CB 8B D7 8B 04 24 8B 18 FF 53 18 ..t.......$...S.
0040EA20 EB 0B 8B D3 8B C7 8B CE E8 1B FF FF FF 5A 5D 5F .............Z]_
0040EA30 5E 5B C3 90 53 56 8B DA 8B F0 66 8B 03 0F B7 D0 ^[..SV....f.....
0040EA40 3B CA 75 0C 8B D3 8B C6 E8 1B FD FF FF 5E 5B C3 ;.u..........^[.
0040EA50 66 3D 0C 40 75 11 8B 43 08 8B D0 8B C6 E8 D2 FF f=.@u..C........
0040EA60 FF FF E9 F3 01 00 00 8B D1 83 FA 14 0F 87 BA 01 ................
0040EA70 00 00 FF 24 95 79 EA 40 00 CD EA 40 00 F8 EA 40 ...$.y.@...@...@
0040EA80 00 04 EB 40 00 19 EB 40 00 2E EB 40 00 48 EB 40 ...@...@...@.H.@
0040EA90 00 62 EB 40 00 7C EB 40 00 96 EB 40 00 16 EC 40 .b.@.|.@...@...@
0040EAA0 00 2C EC 40 00 A4 EB 40 00 2C EC 40 00 21 EC 40 .,.@...@.,.@.!.@
0040EAB0 00 2C EC 40 00 2C EC 40 00 B9 EB 40 00 CE EB 40 .,.@.,.@...@...@
0040EAC0 00 E0 EB 40 00 F2 EB 40 00 04 EC 40 00 66 83 3B ...@...@...@.f.;
0040EAD0 01 75 19 80 3D 14 83 42 00 00 74 10 33 D2 66 B8 .u..=..B..t.3.f.
0040EAE0 01 00 E8 61 F1 FF FF E9 6E 01 00 00 8B C6 E8 39 ...a....n......9
0040EAF0 F9 FF FF E9 62 01 00 00 8B C6 E8 95 F6 FF FF E9 ....b...........
0040EB00 56 01 00 00 8B C3 E8 95 08 00 00 8B D0 8B C6 E8 V...............
0040EB10 20 3B 00 00 E9 41 01 00 00 8B C3 E8 D8 02 00 00  ;...A..........
0040EB20 8B D0 8B C6 E8 6B 3A 00 00 E9 2C 01 00 00 8B C3 .....k:...,.....
0040EB30 E8 07 1C 00 00 83 C4 FC D9 1C 24 9B 8B C6 E8 3D ..........$....=
0040EB40 3B 00 00 E9 12 01 00 00 8B C3 E8 71 18 00 00 83 ;..........q....
0040EB50 C4 F8 DD 1C 24 9B 8B C6 E8 47 3B 00 00 E9 F8 00 ....$....G;.....
0040EB60 00 00 8B C3 E8 13 25 00 00 83 C4 F8 DF 3C 24 9B ......%......<$.
0040EB70 8B C6 E8 59 3B 00 00 E9 DE 00 00 00 8B C3 E8 91 ...Y;...........
0040EB80 1F 00 00 83 C4 F8 DD 1C 24 9B 8B C6 E8 6B 3B 00 ........$....k;.
0040EB90 00 E9 C4 00 00 00 8B D3 8B C6 E8 79 FC FF FF E9 ...........y....
0040EBA0 B6 00 00 00 8B C3 E8 0D 13 00 00 8B D0 8B C6 E8 ................
0040EBB0 74 3B 00 00 E9 A1 00 00 00 8B C3 E8 88 06 00 00 t;..............
0040EBC0 8B D0 8B C6 E8 4B 3A 00 00 E9 8C 00 00 00 8B C3 .....K:.........
0040EBD0 E8 23 07 00 00 8B D0 8B C6 E8 D6 39 00 00 EB 7A .#.........9...z
0040EBE0 8B C3 E8 B1 08 00 00 8B D0 8B C6 E8 E4 39 00 00 .............9..
0040EBF0 EB 68 8B C3 E8 77 09 00 00 8B D0 8B C6 E8 F2 39 .h...w.........9
0040EC00 00 00 EB 56 8B C3 E8 B1 0C 00 00 52 50 8B C6 E8 ...V.......RP...
0040EC10 40 3A 00 00 EB 44 8B D3 8B C6 E8 91 FC FF FF EB @:...D..........
0040EC20 39 8B D3 8B C6 E8 D2 FC FF FF EB 2E 8B D1 81 EA 9...............
0040EC30 00 01 00 00 74 05 4A 74 0D EB 16 8B D3 8B C6 E8 ....t.Jt........
0040EC40 20 FC FF FF EB 14 66 BA 01 01 E8 F9 EF FF FF EB  .....f.........
0040EC50 09 8B D3 8B C6 E8 6E FD FF FF 5E 5B C3 8D 40 00 ......n...^[..@.
0040EC60 55 8B EC 6A 00 6A 00 6A 00 53 8B D8 33 C0 55 68 U..j.j.j.S..3.Uh
0040EC70 03 ED 40 00 64 FF 30 64 89 20 8B D3 8D 45 F8 E8 ..@.d.0d. ...E..
0040EC80 CC 31 00 00 8D 45 FC 50 6A 00 68 00 04 00 00 8B .1...E.Pj.h.....
0040EC90 45 F8 50 A1 AC A9 42 00 8B 00 FF D0 8B D0 81 EA E.P...B.........
0040ECA0 05 00 02 80 74 0A 81 EA FB FF FD 7F 75 2B EB 35 ....t.......u+.5
0040ECB0 8D 45 F4 8B 55 F8 E8 0D 58 FF FF 8B 45 F4 8D 55 .E..U...X...E..U
0040ECC0 FC E8 8E 8E FF FF 84 C0 75 1B 8B C3 E8 E7 11 00 ........u.......
0040ECD0 00 83 E0 7F 89 45 FC EB 0C 66 8B 13 66 B9 03 00 .....E...f..f...
0040ECE0 E8 A3 F3 FF FF 33 C0 5A 59 59 64 89 10 68 0A ED .....3.ZYYd..h..
0040ECF0 40 00 8D 45 F4 E8 46 55 FF FF 8D 45 F8 E8 FE 5B @..E..FU...E...[
0040ED00 FF FF C3 E9 1C 4F FF FF EB E8 8B 45 FC 5B 8B E5 .....O.....E.[..
0040ED10 5D C3 8B C0 53 83 C4 F0 8B D8 54 E8 00 E1 FF FF ]...S.....T.....
0040ED20 6A 03 6A 00 68 00 04 00 00 53 8D 44 24 10 50 A1 j.j.h....S.D$.P.
0040ED30 08 A9 42 00 8B 00 FF D0 66 8B 13 66 B9 03 00 E8 ..B.....f..f....
0040ED40 44 F3 FF FF 8B 44 24 08 83 C4 10 5B C3 8D 40 00 D....D$....[..@.
0040ED50 55 8B EC 83 C4 EC 53 8B D8 8D 45 EC 50 E8 BE E0 U.....S...E.P...
0040ED60 FF FF 33 C0 55 68 A4 ED 40 00 64 FF 30 64 89 20 ..3.Uh..@.d.0d. 
0040ED70 8B D3 8D 45 EC E8 EE F9 FF FF 8D 45 EC FF 15 18 ...E.......E....
0040ED80 B8 42 00 8D 45 EC E8 6D 00 00 00 89 45 FC 33 C0 .B..E..m....E.3.
0040ED90 5A 59 59 64 89 10 68 AB ED 40 00 8D 45 EC E8 89 ZYYd..h..@..E...
0040EDA0 F6 FF FF C3 E9 7B 4E FF FF EB F0 8B 45 FC 5B 8B .....{N.....E.[.
0040EDB0 E5 5D C3 90 53 56 57 83 C4 EC 8B FA 8B F0 8B D4 .]..SVW.........
0040EDC0 66 8B 06 E8 24 40 00 00 8B D8 84 DB 74 21 8D 44 f...$@......t!.D
0040EDD0 24 04 50 E8 48 E0 FF FF 6A 03 8B CE 8D 54 24 08 $.P.H...j....T$.
0040EDE0 8B 44 24 04 8B 30 FF 56 1C 8B 44 24 0C 89 07 8B .D$..0.V..D$....
0040EDF0 C3 83 C4 14 5F 5E 5B C3 55 8B EC 83 C4 F8 53 56 ...._^[.U.....SV
0040EE00 57 89 45 FC 33 D2 55 68 19 F2 40 00 64 FF 32 64 W.E.3.Uh..@.d.2d
0040EE10 89 22 8B 45 FC 66 8B 00 0F B7 D0 83 FA 14 0F 87 .".E.f..........
0040EE20 D1 01 00 00 FF 24 95 2B EE 40 00 7F EE 40 00 89 .....$.+.@...@..
0040EE30 EE 40 00 A9 EE 40 00 B8 EE 40 00 C6 EE 40 00 E7 .@...@...@...@..
0040EE40 EE 40 00 08 EF 40 00 2F EF 40 00 50 EF 40 00 E5 .@...@./.@.P.@..
0040EE50 EF 40 00 F5 EF 40 00 60 EF 40 00 D2 EF 40 00 E5 .@...@.`.@...@..
0040EE60 EF 40 00 F5 EF 40 00 F5 EF 40 00 6F EF 40 00 7E .@...@...@.o.@.~
0040EE70 EF 40 00 8D EF 40 00 9C EF 40 00 B3 EF 40 00 33 .@...@...@...@.3
0040EE80 C0 89 45 F8 E9 86 03 00 00 80 3D 14 83 42 00 00 ..E.......=..B..
0040EE90 74 0D 66 BA 03 00 66 B8 01 00 E8 A9 ED FF FF 33 t.f...f........3
0040EEA0 C0 89 45 F8 E9 66 03 00 00 8B 45 FC 0F BF 40 08 ..E..f....E...@.
0040EEB0 89 45 F8 E9 57 03 00 00 8B 45 FC 8B 40 08 89 45 .E..W....E..@..E
0040EEC0 F8 E9 49 03 00 00 8B 45 FC D9 40 08 E8 97 3D FF ..I....E..@...=.
0040EED0 FF 50 C1 F8 1F 3B C2 58 74 05 E8 A5 47 FF FF 89 .P...;.Xt...G...
0040EEE0 45 F8 E9 28 03 00 00 8B 45 FC DD 40 08 E8 76 3D E..(....E..@..v=
0040EEF0 FF FF 50 C1 F8 1F 3B C2 58 74 05 E8 84 47 FF FF ..P...;.Xt...G..
0040EF00 89 45 F8 E9 07 03 00 00 8B 45 FC DF 68 08 D8 35 .E.......E..h..5
0040EF10 44 F2 40 00 E8 4F 3D FF FF 50 C1 F8 1F 3B C2 58 D.@..O=..P...;.X
0040EF20 74 05 E8 5D 47 FF FF 89 45 F8 E9 E0 02 00 00 8B t..]G...E.......
0040EF30 45 FC DD 40 08 E8 2E 3D FF FF 50 C1 F8 1F 3B C2 E..@...=..P...;.
0040EF40 58 74 05 E8 3C 47 FF FF 89 45 F8 E9 BF 02 00 00 Xt..<G...E......
0040EF50 8B 45 FC E8 08 FD FF FF 89 45 F8 E9 AF 02 00 00 .E.......E......
0040EF60 8B 45 FC 0F BF 40 08 89 45 F8 E9 A0 02 00 00 8B .E...@..E.......
0040EF70 45 FC 0F BE 40 08 89 45 F8 E9 91 02 00 00 8B 45 E...@..E.......E
0040EF80 FC 0F B6 40 08 89 45 F8 E9 82 02 00 00 8B 45 FC ...@..E.......E.
0040EF90 0F B7 40 08 89 45 F8 E9 73 02 00 00 8B 45 FC 8B ..@..E..s....E..
0040EFA0 40 08 85 C0 79 05 E8 D9 46 FF FF 89 45 F8 E9 5C @...y...F...E..\
0040EFB0 02 00 00 8B 45 FC 8B 50 0C 8B 40 08 50 C1 F8 1F ....E..P..@.P...
0040EFC0 3B C2 58 74 05 E8 BA 46 FF FF 89 45 F8 E9 3D 02 ;.Xt...F...E..=.
0040EFD0 00 00 8B 45 FC 8B 40 08 E8 1B FE FF FF 89 45 F8 ...E..@.......E.
0040EFE0 E9 2A 02 00 00 8B 45 FC E8 27 FD FF FF 89 45 F8 .*....E..'....E.
0040EFF0 E9 1A 02 00 00 8B 55 FC 8B D0 66 81 EA 00 01 74 ......U...f....t
0040F000 07 66 FF CA 74 12 EB 20 8B 45 FC E8 50 FC FF FF .f..t.. .E..P...
0040F010 89 45 F8 E9 F7 01 00 00 8B 45 FC E8 30 FD FF FF .E.......E..0...
0040F020 89 45 F8 E9 E7 01 00 00 8B 55 FC F6 C4 40 0F 84 .E.......U...@..
0040F030 C1 01 00 00 8B 55 FC 0F B7 C0 25 FF BF FF FF 83 .....U....%.....
0040F040 F8 14 0F 87 A0 01 00 00 FF 24 85 4F F0 40 00 E8 .........$.O.@..
0040F050 F1 40 00 E8 F1 40 00 A3 F0 40 00 B4 F0 40 00 C4 .@...@...@...@..
0040F060 F0 40 00 E7 F0 40 00 0A F1 40 00 33 F1 40 00 56 .@...@...@.3.@.V
0040F070 F1 40 00 E8 F1 40 00 E8 F1 40 00 66 F1 40 00 D8 .@...@...@.f.@..
0040F080 F1 40 00 E8 F1 40 00 E8 F1 40 00 E8 F1 40 00 77 .@...@...@...@.w
0040F090 F1 40 00 88 F1 40 00 96 F1 40 00 A4 F1 40 00 BA .@...@...@...@..
0040F0A0 F1 40 00 8B 45 FC 8B 40 08 0F BF 00 89 45 F8 E9 .@..E..@.....E..
0040F0B0 5B 01 00 00 8B 45 FC 8B 40 08 8B 00 89 45 F8 E9 [....E..@....E..
0040F0C0 4B 01 00 00 8B 45 FC 8B 40 08 D9 00 E8 97 3B FF K....E..@.....;.
0040F0D0 FF 50 C1 F8 1F 3B C2 58 74 05 E8 A5 45 FF FF 89 .P...;.Xt...E...
0040F0E0 45 F8 E9 28 01 00 00 8B 45 FC 8B 40 08 DD 00 E8 E..(....E..@....
0040F0F0 74 3B FF FF 50 C1 F8 1F 3B C2 58 74 05 E8 82 45 t;..P...;.Xt...E
0040F100 FF FF 89 45 F8 E9 05 01 00 00 8B 45 FC 8B 40 08 ...E.......E..@.
0040F110 DF 28 D8 35 44 F2 40 00 E8 4B 3B FF FF 50 C1 F8 .(.5D.@..K;..P..
0040F120 1F 3B C2 58 74 05 E8 59 45 FF FF 89 45 F8 E9 DC .;.Xt..YE...E...
0040F130 00 00 00 8B 45 FC 8B 40 08 DD 00 E8 28 3B FF FF ....E..@....(;..
0040F140 50 C1 F8 1F 3B C2 58 74 05 E8 36 45 FF FF 89 45 P...;.Xt..6E...E
0040F150 F8 E9 B9 00 00 00 8B 45 FC E8 02 FB FF FF 89 45 .......E.......E
0040F160 F8 E9 A9 00 00 00 8B 45 FC 8B 40 08 0F BF 00 89 .......E..@.....
0040F170 45 F8 E9 98 00 00 00 8B 45 FC 8B 40 08 0F BE 00 E.......E..@....
0040F180 89 45 F8 E9 87 00 00 00 8B 45 FC 8B 40 08 0F B6 .E.......E..@...
0040F190 00 89 45 F8 EB 79 8B 45 FC 8B 40 08 0F B7 00 89 ..E..y.E..@.....
0040F1A0 45 F8 EB 6B 8B 45 FC 8B 40 08 8B 00 85 C0 79 05 E..k.E..@.....y.
0040F1B0 E8 CF 44 FF FF 89 45 F8 EB 55 8B 45 FC 8B 40 08 ..D...E..U.E..@.
0040F1C0 8B 50 04 8B 00 50 C1 F8 1F 3B C2 58 74 05 E8 B1 .P...P...;.Xt...
0040F1D0 44 FF FF 89 45 F8 EB 37 8B 45 FC 8B 40 08 E8 15 D...E..7.E..@...
0040F1E0 FC FF FF 89 45 F8 EB 27 8B 45 FC E8 24 FB FF FF ....E..'.E..$...
0040F1F0 89 45 F8 EB 1A 8D 55 F8 8B 45 FC E8 B4 FB FF FF .E....U..E......
0040F200 84 C0 75 0B 8B 45 FC E8 08 FB FF FF 89 45 F8 33 ..u..E.......E.3
0040F210 C0 5A 59 59 64 89 10 EB 1E E9 DA 48 FF FF 8B 45 .ZYYd......H...E
0040F220 FC 66 8B 00 66 BA 03 00 E8 8F EE FF FF 33 C0 89 .f..f........3..
0040F230 45 F8 E8 A1 4A FF FF 8B 45 F8 5F 5E 5B 59 59 5D E...J...E._^[YY]
0040F240 C3 00 00 00 00 40 1C 46 55 8B EC 51 53 56 57 89 .....@.FU..QSVW.
0040F250 45 FC 8B 45 FC 66 8B 00 66 83 E8 01 72 10 74 12 E..E.f..f...r.t.
0040F260 66 83 E8 0A 74 26 66 83 E8 05 74 28 EB 2E 33 DB f...t&f...t(..3.
0040F270 EB 7D 80 3D 14 83 42 00 00 74 0D 66 BA 10 00 66 .}.=..B..t.f...f
0040F280 B8 01 00 E8 C0 E9 FF FF 33 DB EB 63 8B 5D FC 8A ........3..c.]..
0040F290 5B 08 EB 5B 8B 5D FC 8A 5B 08 EB 53 33 C0 55 68 [..[.]..[..S3.Uh
0040F2A0 D4 F2 40 00 64 FF 30 64 89 20 8B 45 FC E8 46 FB ..@.d.0d. .E..F.
0040F2B0 FF FF 8B D8 81 C3 80 00 00 00 81 FB FF 00 00 00 ................
0040F2C0 76 05 E8 BD 43 FF FF 83 C3 80 33 C0 5A 59 59 64 v...C.....3.ZYYd
0040F2D0 89 10 EB 1B E9 1F 48 FF FF 8B 45 FC 66 8B 00 66 ......H...E.f..f
0040F2E0 BA 10 00 E8 D4 ED FF FF 33 DB E8 E9 49 FF FF 8B ........3...I...
0040F2F0 C3 5F 5E 5B 59 5D C3 90 55 8B EC 51 53 56 57 89 ._^[Y]..U..QSVW.
0040F300 45 FC 8B 45 FC 66 8B 00 66 83 E8 01 72 10 74 12 E..E.f..f...r.t.
0040F310 66 83 E8 0A 74 26 66 83 E8 06 74 28 EB 2E 33 DB f...t&f...t(..3.
0040F320 EB 74 80 3D 14 83 42 00 00 74 0D 66 BA 11 00 66 .t.=..B..t.f...f
0040F330 B8 01 00 E8 10 E9 FF FF 33 DB EB 5A 8B 5D FC 8A ........3..Z.]..
0040F340 5B 08 EB 52 8B 5D FC 8A 5B 08 EB 4A 33 C0 55 68 [..R.]..[..J3.Uh
0040F350 7B F3 40 00 64 FF 30 64 89 20 8B 45 FC E8 96 FA {.@.d.0d. .E....
0040F360 FF FF 8B D8 81 FB FF 00 00 00 76 05 E8 13 43 FF ..........v...C.
0040F370 FF 33 C0 5A 59 59 64 89 10 EB 1B E9 78 47 FF FF .3.ZYYd.....xG..
0040F380 8B 45 FC 66 8B 00 66 BA 11 00 E8 2D ED FF FF 33 .E.f..f....-...3
0040F390 DB E8 42 49 FF FF 8B C3 5F 5E 5B 59 5D C3 8B C0 ..BI...._^[Y]...
0040F3A0 55 8B EC 51 53 56 57 89 45 FC 8B 45 FC 0F B7 00 U..QSVW.E..E....
0040F3B0 83 F8 11 0F 87 80 00 00 00 8A 80 C6 F3 40 00 FF .............@..
0040F3C0 24 85 D8 F3 40 00 01 02 03 00 00 00 00 00 00 00 $...@...........
0040F3D0 00 04 00 00 00 00 05 06 39 F4 40 00 F4 F3 40 00 ........9.@...@.
0040F3E0 FB F3 40 00 15 F4 40 00 1E F4 40 00 27 F4 40 00 ..@...@...@.'.@.
0040F3F0 30 F4 40 00 33 DB E9 94 00 00 00 80 3D 14 83 42 0.@.3.......=..B
0040F400 00 00 74 0D 66 BA 02 00 66 B8 01 00 E8 37 E8 FF ..t.f...f....7..
0040F410 FF 33 DB EB 7A 8B 5D FC 66 8B 5B 08 EB 71 8B 5D .3..z.].f.[..q.]
0040F420 FC 66 8B 5B 08 EB 68 8B 5D FC 0F BE 5B 08 EB 5F .f.[..h.]...[.._
0040F430 8B 5D FC 0F B6 5B 08 EB 56 33 C0 55 68 74 F4 40 .]...[..V3.Uht.@
0040F440 00 64 FF 30 64 89 20 8B 45 FC E8 A9 F9 FF FF 8B .d.0d. .E.......
0040F450 D8 81 C3 00 80 00 00 81 FB FF FF 00 00 76 05 E8 .............v..
0040F460 20 42 FF FF 81 C3 00 80 FF FF 33 C0 5A 59 59 64  B........3.ZYYd
0040F470 89 10 EB 1B E9 7F 46 FF FF 8B 45 FC 66 8B 00 66 ......F...E.f..f
0040F480 BA 02 00 E8 34 EC FF FF 33 DB E8 49 48 FF FF 8B ....4...3..IH...
0040F490 C3 5F 5E 5B 59 5D C3 90 55 8B EC 51 53 56 57 89 ._^[Y]..U..QSVW.
0040F4A0 45 FC 8B 45 FC 0F B7 00 83 F8 12 77 71 8A 80 BA E..E.......wq...
0040F4B0 F4 40 00 FF 24 85 CD F4 40 00 01 02 00 00 00 00 .@..$...@.......
0040F4C0 00 00 00 00 00 03 00 00 00 00 00 04 05 1E F5 40 ...............@
0040F4D0 00 E5 F4 40 00 E9 F4 40 00 03 F5 40 00 0C F5 40 ...@...@...@...@
0040F4E0 00 15 F5 40 00 33 DB EB 7F 80 3D 14 83 42 00 00 ...@.3....=..B..
0040F4F0 74 0D 66 BA 12 00 66 B8 01 00 E8 49 E7 FF FF 33 t.f...f....I...3
0040F500 DB EB 65 8B 5D FC 66 8B 5B 08 EB 5C 8B 5D FC 0F ..e.].f.[..\.]..
0040F510 B6 5B 08 EB 53 8B 5D FC 66 8B 5B 08 EB 4A 33 C0 .[..S.].f.[..J3.
0040F520 55 68 4D F5 40 00 64 FF 30 64 89 20 8B 45 FC E8 UhM.@.d.0d. .E..
0040F530 C4 F8 FF FF 8B D8 81 FB FF FF 00 00 76 05 E8 41 ............v..A
0040F540 41 FF FF 33 C0 5A 59 59 64 89 10 EB 1B E9 A6 45 A..3.ZYYd......E
0040F550 FF FF 8B 45 FC 66 8B 00 66 BA 12 00 E8 5B EB FF ...E.f..f....[..
0040F560 FF 33 DB E8 70 47 FF FF 8B C3 5F 5E 5B 59 5D C3 .3..pG...._^[Y].
0040F570 55 8B EC 51 53 56 57 89 45 FC 8B 45 FC 0F B7 00 U..QSVW.E..E....
0040F580 83 F8 13 0F 87 81 00 00 00 8A 80 96 F5 40 00 FF .............@..
0040F590 24 85 AA F5 40 00 01 02 00 00 00 00 00 00 00 00 $...@...........
0040F5A0 00 03 00 00 00 00 00 04 05 06 0A F6 40 00 C6 F5 ............@...
0040F5B0 40 00 CD F5 40 00 E7 F5 40 00 F0 F5 40 00 F9 F5 @...@...@...@...
0040F5C0 40 00 02 F6 40 00 33 DB E9 83 00 00 00 80 3D 14 @...@.3.......=.
0040F5D0 83 42 00 00 74 0D 66 BA 13 00 66 B8 01 00 E8 65 .B..t.f...f....e
0040F5E0 E6 FF FF 33 DB EB 69 8B 5D FC 0F BF 5B 08 EB 60 ...3..i.]...[..`
0040F5F0 8B 5D FC 0F B6 5B 08 EB 57 8B 5D FC 0F B7 5B 08 .]...[..W.]...[.
0040F600 EB 4E 8B 5D FC 8B 5B 08 EB 46 33 C0 55 68 35 F6 .N.]..[..F3.Uh5.
0040F610 40 00 64 FF 30 64 89 20 8B 45 FC E8 9C 02 00 00 @.d.0d. .E......
0040F620 85 D2 74 05 E8 5B 40 FF FF 8B D8 33 C0 5A 59 59 ..t..[@....3.ZYY
0040F630 64 89 10 EB 1B E9 BE 44 FF FF 8B 45 FC 66 8B 00 d......D...E.f..
0040F640 66 BA 13 00 E8 73 EA FF FF 33 DB E8 88 46 FF FF f....s...3...F..
0040F650 8B C3 5F 5E 5B 59 5D C3 53 83 C4 E8 8B D8 8D 44 .._^[Y].S......D
0040F660 24 08 50 E8 B8 D7 FF FF 6A 03 6A 00 68 00 04 00 $.P.....j.j.h...
0040F670 00 53 8D 44 24 18 50 A1 08 A9 42 00 8B 00 FF D0 .S.D$.P...B.....
0040F680 85 C0 75 0E 8B 44 24 10 99 89 04 24 89 54 24 04 ..u..D$....$.T$.
0040F690 EB 65 6A 05 6A 00 68 00 04 00 00 53 8D 44 24 18 .ej.j.h....S.D$.
0040F6A0 50 A1 08 A9 42 00 8B 00 FF D0 85 C0 75 12 DD 44 P...B.......u..D
0040F6B0 24 10 E8 B1 35 FF FF 89 04 24 89 54 24 04 EB 37 $...5....$.T$..7
0040F6C0 3D 05 00 02 80 75 15 8B C3 E8 EA 07 00 00 83 E0 =....u..........
0040F6D0 7F 33 D2 89 04 24 89 54 24 04 EB 1B 66 8B 13 66 .3...$.T$...f..f
0040F6E0 B9 14 00 E8 A0 E9 FF FF C7 04 24 00 00 00 00 C7 ..........$.....
0040F6F0 44 24 04 00 00 00 00 8B 04 24 8B 54 24 04 83 C4 D$.......$.T$...
0040F700 18 5B C3 90 55 8B EC 83 C4 E4 53 33 D2 89 55 E4 .[..U.....S3..U.
0040F710 89 55 F4 8B D8 33 C0 55 68 F2 F7 40 00 64 FF 30 .U...3.Uh..@.d.0
0040F720 64 89 20 8B D3 8D 45 F4 E8 23 27 00 00 8D 45 E4 d. ...E..#'...E.
0040F730 8B 55 F4 E8 90 4D FF FF 8B 45 E4 8D 55 F8 E8 31 .U...M...E..U..1
0040F740 84 FF FF 84 C0 0F 85 89 00 00 00 8D 45 F0 50 6A ............E.Pj
0040F750 00 68 00 04 00 00 8B 45 F4 50 A1 AC A9 42 00 8B .h.....E.P...B..
0040F760 00 FF D0 85 C0 75 0C 8B 45 F0 99 89 45 F8 89 55 .....u..E...E..U
0040F770 FC EB 61 8D 45 E8 50 6A 00 68 00 04 00 00 8B 45 ..a.E.Pj.h.....E
0040F780 F4 50 A1 20 A8 42 00 8B 00 FF D0 85 C0 75 10 DD .P. .B.......u..
0040F790 45 E8 E8 D1 34 FF FF 89 45 F8 89 55 FC EB 35 3D E...4...E..U..5=
0040F7A0 05 00 02 80 75 14 8B C3 E8 0B 07 00 00 83 E0 7F ....u...........
0040F7B0 33 D2 89 45 F8 89 55 FC EB 1A 66 8B 13 66 B9 14 3..E..U...f..f..
0040F7C0 00 E8 C2 E8 FF FF C7 45 F8 00 00 00 00 C7 45 FC .......E......E.
0040F7D0 00 00 00 00 33 C0 5A 59 59 64 89 10 68 F9 F7 40 ....3.ZYYd..h..@
0040F7E0 00 8D 45 E4 E8 57 4A FF FF 8D 45 F4 E8 0F 51 FF ..E..WJ...E...Q.
0040F7F0 FF C3 E9 2D 44 FF FF EB E8 8B 45 F8 8B 55 FC 5B ...-D.....E..U.[
0040F800 8B E5 5D C3 55 8B EC 83 C4 E8 53 8B D8 8D 45 E8 ..].U.....S...E.
0040F810 50 E8 0A D6 FF FF 33 C0 55 68 5B F8 40 00 64 FF P.....3.Uh[.@.d.
0040F820 30 64 89 20 8B D3 8D 45 E8 E8 3A EF FF FF 8D 45 0d. ...E..:....E
0040F830 E8 FF 15 18 B8 42 00 8D 45 E8 E8 7D 00 00 00 89 .....B..E..}....
0040F840 45 F8 89 55 FC 33 C0 5A 59 59 64 89 10 68 62 F8 E..U.3.ZYYd..hb.
0040F850 40 00 8D 45 E8 E8 D2 EB FF FF C3 E9 C4 43 FF FF @..E.........C..
0040F860 EB F0 8B 45 F8 8B 55 FC 5B 8B E5 5D C3 8D 40 00 ...E..U.[..]..@.
0040F870 53 56 57 83 C4 EC 8B FA 8B F0 8B D4 66 8B 06 E8 SVW.........f...
0040F880 68 35 00 00 8B D8 84 DB 74 28 8D 44 24 04 50 E8 h5......t(.D$.P.
0040F890 8C D5 FF FF 6A 14 8B CE 8D 54 24 08 8B 44 24 04 ....j....T$..D$.
0040F8A0 8B 30 FF 56 1C 8B 44 24 0C 89 07 8B 44 24 10 89 .0.V..D$....D$..
0040F8B0 47 04 8B C3 83 C4 14 5F 5E 5B C3 90 55 8B EC 83 G......_^[..U...
0040F8C0 C4 F0 53 56 57 89 45 FC 33 D2 55 68 C8 FC 40 00 ..SVW.E.3.Uh..@.
0040F8D0 64 FF 32 64 89 22 8B 45 FC 66 8B 00 0F B7 D0 83 d.2d.".E.f......
0040F8E0 FA 14 0F 87 CB 01 00 00 FF 24 95 EF F8 40 00 43 .........$...@.C
0040F8F0 F9 40 00 56 F9 40 00 7F F9 40 00 92 F9 40 00 A4 .@.V.@...@...@..
0040F900 F9 40 00 BA F9 40 00 D0 F9 40 00 EC F9 40 00 02 .@...@...@...@..
0040F910 FA 40 00 A0 FA 40 00 B3 FA 40 00 15 FA 40 00 8A .@...@...@...@..
0040F920 FA 40 00 A0 FA 40 00 B3 FA 40 00 B3 FA 40 00 28 .@...@...@...@.(
0040F930 FA 40 00 3B FA 40 00 4F FA 40 00 63 FA 40 00 76 .@.;.@.O.@.c.@.v
0040F940 FA 40 00 C7 45 F0 00 00 00 00 C7 45 F4 00 00 00 .@..E......E....
0040F950 00 E9 68 03 00 00 80 3D 14 83 42 00 00 74 0D 66 ..h....=..B..t.f
0040F960 BA 14 00 66 B8 01 00 E8 DC E2 FF FF C7 45 F0 00 ...f.........E..
0040F970 00 00 00 C7 45 F4 00 00 00 00 E9 3F 03 00 00 8B ....E......?....
0040F980 45 FC 0F BF 40 08 99 89 45 F0 89 55 F4 E9 2C 03 E...@...E..U..,.
0040F990 00 00 8B 45 FC 8B 40 08 99 89 45 F0 89 55 F4 E9 ...E..@...E..U..
0040F9A0 1A 03 00 00 8B 45 FC D9 40 08 E8 B9 32 FF FF 89 .....E..@...2...
0040F9B0 45 F0 89 55 F4 E9 04 03 00 00 8B 45 FC DD 40 08 E..U.......E..@.
0040F9C0 E8 A3 32 FF FF 89 45 F0 89 55 F4 E9 EE 02 00 00 ..2...E..U......
0040F9D0 8B 45 FC DF 68 08 D8 35 FC FC 40 00 E8 87 32 FF .E..h..5..@...2.
0040F9E0 FF 89 45 F0 89 55 F4 E9 D2 02 00 00 8B 45 FC DD ..E..U.......E..
0040F9F0 40 08 E8 71 32 FF FF 89 45 F0 89 55 F4 E9 BC 02 @..q2...E..U....
0040FA00 00 00 8B 45 FC E8 FA FC FF FF 89 45 F0 89 55 F4 ...E.......E..U.
0040FA10 E9 A9 02 00 00 8B 45 FC 0F BF 40 08 99 89 45 F0 ......E...@...E.
0040FA20 89 55 F4 E9 96 02 00 00 8B 45 FC 0F BE 40 08 99 .U.......E...@..
0040FA30 89 45 F0 89 55 F4 E9 83 02 00 00 8B 45 FC 0F B6 .E..U.......E...
0040FA40 40 08 33 D2 89 45 F0 89 55 F4 E9 6F 02 00 00 8B @.3..E..U..o....
0040FA50 45 FC 0F B7 40 08 33 D2 89 45 F0 89 55 F4 E9 5B E...@.3..E..U..[
0040FA60 02 00 00 8B 45 FC 8B 40 08 33 D2 89 45 F0 89 55 ....E..@.3..E..U
0040FA70 F4 E9 48 02 00 00 8B 45 FC 8B 50 08 89 55 F0 8B ..H....E..P..U..
0040FA80 50 0C 89 55 F4 E9 34 02 00 00 8B 45 FC 8B 40 08 P..U..4....E..@.
0040FA90 E8 27 FE FF FF 89 45 F0 89 55 F4 E9 1E 02 00 00 .'....E..U......
0040FAA0 8B 45 FC E8 B0 FB FF FF 89 45 F0 89 55 F4 E9 0B .E.......E..U...
0040FAB0 02 00 00 8B 55 FC 8B D0 66 81 EA 00 01 74 07 66 ....U...f....t.f
0040FAC0 FF CA 74 15 EB 26 8B 45 FC E8 36 FC FF FF 89 45 ..t..&.E..6....E
0040FAD0 F0 89 55 F4 E9 E5 01 00 00 8B 45 FC E8 23 FD FF ..U.......E..#..
0040FAE0 FF 89 45 F0 89 55 F4 E9 D2 01 00 00 8B 55 FC F6 ..E..U.......U..
0040FAF0 C4 40 0F 84 A9 01 00 00 8B 55 FC 0F B7 C0 25 FF .@.......U....%.
0040FB00 BF FF FF 83 F8 14 0F 87 85 01 00 00 FF 24 85 13 .............$..
0040FB10 FB 40 00 91 FC 40 00 91 FC 40 00 67 FB 40 00 7C .@...@...@.g.@.|
0040FB20 FB 40 00 90 FB 40 00 A8 FB 40 00 C0 FB 40 00 DE .@...@...@...@..
0040FB30 FB 40 00 F6 FB 40 00 91 FC 40 00 91 FC 40 00 09 .@...@...@...@..
0040FB40 FC 40 00 7E FC 40 00 91 FC 40 00 91 FC 40 00 91 .@.~.@...@...@..
0040FB50 FC 40 00 1E FC 40 00 33 FC 40 00 46 FC 40 00 59 .@...@.3.@.F.@.Y
0040FB60 FC 40 00 6B FC 40 00 8B 45 FC 8B 40 08 0F BF 00 .@.k.@..E..@....
0040FB70 99 89 45 F0 89 55 F4 E9 42 01 00 00 8B 45 FC 8B ..E..U..B....E..
0040FB80 40 08 8B 00 99 89 45 F0 89 55 F4 E9 2E 01 00 00 @.....E..U......
0040FB90 8B 45 FC 8B 40 08 D9 00 E8 CB 30 FF FF 89 45 F0 .E..@.....0...E.
0040FBA0 89 55 F4 E9 16 01 00 00 8B 45 FC 8B 40 08 DD 00 .U.......E..@...
0040FBB0 E8 B3 30 FF FF 89 45 F0 89 55 F4 E9 FE 00 00 00 ..0...E..U......
0040FBC0 8B 45 FC 8B 40 08 DF 28 D8 35 FC FC 40 00 E8 95 .E..@..(.5..@...
0040FBD0 30 FF FF 89 45 F0 89 55 F4 E9 E0 00 00 00 8B 45 0...E..U.......E
0040FBE0 FC 8B 40 08 DD 00 E8 7D 30 FF FF 89 45 F0 89 55 ..@....}0...E..U
0040FBF0 F4 E9 C8 00 00 00 8B 45 FC E8 06 FB FF FF 89 45 .......E.......E
0040FC00 F0 89 55 F4 E9 B5 00 00 00 8B 45 FC 8B 40 08 0F ..U.......E..@..
0040FC10 BF 00 99 89 45 F0 89 55 F4 E9 A0 00 00 00 8B 45 ....E..U.......E
0040FC20 FC 8B 40 08 0F BE 00 99 89 45 F0 89 55 F4 E9 8B ..@......E..U...
0040FC30 00 00 00 8B 45 FC 8B 40 08 0F B6 00 33 D2 89 45 ....E..@....3..E
0040FC40 F0 89 55 F4 EB 78 8B 45 FC 8B 40 08 0F B7 00 33 ..U..x.E..@....3
0040FC50 D2 89 45 F0 89 55 F4 EB 65 8B 45 FC 8B 40 08 8B ..E..U..e.E..@..
0040FC60 00 33 D2 89 45 F0 89 55 F4 EB 53 8B 45 FC 8B 40 .3..E..U..S.E..@
0040FC70 08 8B 10 89 55 F0 8B 50 04 89 55 F4 EB 40 8B 45 ....U..P..U..@.E
0040FC80 FC 8B 40 08 E8 33 FC FF FF 89 45 F0 89 55 F4 EB ..@..3....E..U..
0040FC90 2D 8B 45 FC E8 BF F9 FF FF 89 45 F0 89 55 F4 EB -.E.......E..U..
0040FCA0 1D 8D 55 F0 8B 45 FC E8 C4 FB FF FF 84 C0 75 0E ..U..E........u.
0040FCB0 8B 45 FC E8 A0 F9 FF FF 89 45 F0 89 55 F4 33 C0 .E.......E..U.3.
0040FCC0 5A 59 59 64 89 10 EB 27 E9 2B 3E FF FF 8B 45 FC ZYYd...'.+>...E.
0040FCD0 66 8B 00 66 BA 14 00 E8 E0 E3 FF FF C7 45 F0 00 f..f.........E..
0040FCE0 00 00 00 C7 45 F4 00 00 00 00 E8 E9 3F FF FF 8B ....E.......?...
0040FCF0 45 F0 8B 55 F4 5F 5E 5B 8B E5 5D C3 00 40 1C 46 E..U._^[..]..@.F
0040FD00 55 8B EC 83 C4 F0 53 33 D2 89 55 F0 89 55 F8 8B U.....S3..U..U..
0040FD10 D8 33 C0 55 68 B7 FD 40 00 64 FF 30 64 89 20 8B .3.Uh..@.d.0d. .
0040FD20 D3 8D 45 F8 E8 27 21 00 00 8D 45 F6 50 6A 00 68 ..E..'!...E.Pj.h
0040FD30 00 04 00 00 8B 45 F8 50 A1 E0 A7 42 00 8B 00 FF .....E.P...B....
0040FD40 D0 8B D0 81 EA 05 00 02 80 74 15 81 EA FB FF FD .........t......
0040FD50 7F 75 3A 66 83 7D F6 01 1B C0 40 88 45 FF EB 39 .u:f.}....@.E..9
0040FD60 8D 45 F0 8B 55 F8 E8 5D 47 FF FF 8B 45 F0 8D 55 .E..U..]G...E..U
0040FD70 FF E8 EA 7E FF FF 84 C0 75 1F 66 8B 13 66 B9 0B ...~....u.f..f..
0040FD80 00 B8 05 00 02 80 E8 FD E2 FF FF EB 0C 66 8B 13 .............f..
0040FD90 66 B9 0B 00 E8 EF E2 FF FF 33 C0 5A 59 59 64 89 f........3.ZYYd.
0040FDA0 10 68 BE FD 40 00 8D 45 F0 E8 92 44 FF FF 8D 45 .h..@..E...D...E
0040FDB0 F8 E8 4A 4B FF FF C3 E9 68 3E FF FF EB E8 8A 45 ..JK....h>.....E
0040FDC0 FF 5B 8B E5 5D C3 8B C0 53 83 C4 F0 8B D8 54 E8 .[..]...S.....T.
0040FDD0 4C D0 FF FF 6A 0B 6A 00 68 00 04 00 00 53 8D 44 L...j.j.h....S.D
0040FDE0 24 10 50 A1 08 A9 42 00 8B 00 FF D0 66 8B 13 66 $.P...B.....f..f
0040FDF0 B9 0B 00 E8 90 E2 FF FF 66 83 7C 24 08 01 1B C0 ........f.|$....
0040FE00 40 83 C4 10 5B C3 8B C0 55 8B EC 83 C4 EC 53 8B @...[...U.....S.
0040FE10 D8 8D 45 EF 50 E8 06 D0 FF FF 33 C0 55 68 5C FE ..E.P.....3.Uh\.
0040FE20 40 00 64 FF 30 64 89 20 8B D3 8D 45 EF E8 36 E9 @.d.0d. ...E..6.
0040FE30 FF FF 8D 45 EF FF 15 18 B8 42 00 8D 45 EF E8 75 ...E.....B..E..u
0040FE40 00 00 00 88 45 FF 33 C0 5A 59 59 64 89 10 68 63 ....E.3.ZYYd..hc
0040FE50 FE 40 00 8D 45 EF E8 D1 E5 FF FF C3 E9 C3 3D FF .@..E.........=.
0040FE60 FF EB F0 8A 45 FF 5B 8B E5 5D C3 90 53 56 57 83 ....E.[..]..SVW.
0040FE70 C4 EC 8B FA 8B F0 8B D4 66 8B 06 E8 6C 2F 00 00 ........f...l/..
0040FE80 8B D8 84 DB 74 26 8D 44 24 04 50 E8 90 CF FF FF ....t&.D$.P.....
0040FE90 6A 0B 8B CE 8D 54 24 08 8B 44 24 04 8B 30 FF 56 j....T$..D$..0.V
0040FEA0 1C 66 83 7C 24 0C 01 1B C0 40 88 07 8B C3 83 C4 .f.|$....@......
0040FEB0 14 5F 5E 5B C3 8D 40 00 53 51 8B D8 66 8B 03 0F ._^[..@.SQ..f...
0040FEC0 B7 D0 83 FA 14 0F 87 7A 01 00 00 FF 24 95 D2 FE .......z....$...
0040FED0 40 00 26 FF 40 00 2F FF 40 00 4E FF 40 00 5C FF @.&.@./.@.N.@.\.
0040FEE0 40 00 69 FF 40 00 7E FF 40 00 93 FF 40 00 A8 FF @.i.@.~.@...@...
0040FEF0 40 00 BD FF 40 00 36 00 41 00 45 00 41 00 CC FF @...@.6.A.E.A...
0040FF00 40 00 26 00 41 00 36 00 41 00 45 00 41 00 45 00 @.&.A.6.A.E.A.E.
0040FF10 41 00 DC FF 40 00 E9 FF 40 00 F6 FF 40 00 04 00 A...@...@...@...
0040FF20 41 00 11 00 41 00 C6 04 24 00 E9 C7 02 00 00 80 A...A...$.......
0040FF30 3D 14 83 42 00 00 74 0D 66 BA 0B 00 66 B8 01 00 =..B..t.f...f...
0040FF40 E8 03 DD FF FF C6 04 24 00 E9 A8 02 00 00 66 83 .......$......f.
0040FF50 7B 08 00 0F 95 04 24 E9 9A 02 00 00 83 7B 08 00 {.....$......{..
0040FF60 0F 95 04 24 E9 8D 02 00 00 D9 43 08 D8 1D FC 01 ...$......C.....
0040FF70 41 00 DF E0 9E 0F 95 04 24 E9 78 02 00 00 DD 43 A.......$.x....C
0040FF80 08 D8 1D FC 01 41 00 DF E0 9E 0F 95 04 24 E9 63 .....A.......$.c
0040FF90 02 00 00 DF 6B 08 D8 1D FC 01 41 00 DF E0 9E 0F ....k.....A.....
0040FFA0 95 04 24 E9 4E 02 00 00 DD 43 08 D8 1D FC 01 41 ..$.N....C.....A
0040FFB0 00 DF E0 9E 0F 95 04 24 E9 39 02 00 00 8B C3 E8 .......$.9......
0040FFC0 3C FD FF FF 88 04 24 E9 2A 02 00 00 66 83 7B 08 <.....$.*...f.{.
0040FFD0 01 1B C0 40 88 04 24 E9 1A 02 00 00 80 7B 08 00 ...@..$......{..
0040FFE0 0F 95 04 24 E9 0D 02 00 00 80 7B 08 00 0F 95 04 ...$......{.....
0040FFF0 24 E9 00 02 00 00 66 83 7B 08 00 0F 95 04 24 E9 $.....f.{.....$.
00410000 F2 01 00 00 83 7B 08 00 0F 95 04 24 E9 E5 01 00 .....{.....$....
00410010 00 83 7B 0C 00 75 04 83 7B 08 00 0F 95 C0 88 04 ..{..u..{.......
00410020 24 E9 D0 01 00 00 8B 43 08 E8 8A FE FF FF 88 04 $......C........
00410030 24 E9 C0 01 00 00 8B C3 E8 8B FD FF FF 88 04 24 $..............$
00410040 E9 B1 01 00 00 8B D0 66 81 EA 00 01 74 07 66 FF .......f....t.f.
00410050 CA 74 11 EB 1E 8B C3 E8 A4 FC FF FF 88 04 24 E9 .t............$.
00410060 92 01 00 00 8B C3 E8 9D FD FF FF 88 04 24 E9 83 .............$..
00410070 01 00 00 F6 C4 40 0F 84 63 01 00 00 0F B7 C0 25 .....@..c......%
00410080 FF BF FF FF 83 F8 14 0F 87 46 01 00 00 FF 24 85 .........F....$.
00410090 94 00 41 00 D3 01 41 00 D3 01 41 00 E8 00 41 00 ..A...A...A...A.
004100A0 F8 00 41 00 07 01 41 00 1E 01 41 00 35 01 41 00 ..A...A...A.5.A.
004100B0 4C 01 41 00 63 01 41 00 D3 01 41 00 D3 01 41 00 L.A.c.A...A...A.
004100C0 72 01 41 00 C6 01 41 00 D3 01 41 00 D3 01 41 00 r.A...A...A...A.
004100D0 D3 01 41 00 81 01 41 00 8D 01 41 00 99 01 41 00 ..A...A...A...A.
004100E0 A6 01 41 00 B2 01 41 00 8B 43 08 66 83 38 00 0F ..A...A..C.f.8..
004100F0 95 04 24 E9 FE 00 00 00 8B 43 08 83 38 00 0F 95 ..$......C..8...
00410100 04 24 E9 EF 00 00 00 8B 43 08 D9 00 D8 1D FC 01 .$......C.......
00410110 41 00 DF E0 9E 0F 95 04 24 E9 D8 00 00 00 8B 43 A.......$......C
00410120 08 DD 00 D8 1D FC 01 41 00 DF E0 9E 0F 95 04 24 .......A.......$
00410130 E9 C1 00 00 00 8B 43 08 DF 28 D8 1D FC 01 41 00 ......C..(....A.
00410140 DF E0 9E 0F 95 04 24 E9 AA 00 00 00 8B 43 08 DD ......$......C..
00410150 00 D8 1D FC 01 41 00 DF E0 9E 0F 95 04 24 E9 93 .....A.......$..
00410160 00 00 00 8B C3 E8 96 FB FF FF 88 04 24 E9 84 00 ............$...
00410170 00 00 8B 43 08 66 83 38 01 1B C0 40 88 04 24 EB ...C.f.8...@..$.
00410180 75 8B 43 08 80 38 00 0F 95 04 24 EB 69 8B 43 08 u.C..8....$.i.C.
00410190 80 38 00 0F 95 04 24 EB 5D 8B 43 08 66 83 38 00 .8....$.].C.f.8.
004101A0 0F 95 04 24 EB 50 8B 43 08 83 38 00 0F 95 04 24 ...$.P.C..8....$
004101B0 EB 44 8B 43 08 83 78 04 00 75 03 83 38 00 0F 95 .D.C..x..u..8...
004101C0 C0 88 04 24 EB 30 8B 43 08 E8 EA FC FF FF 88 04 ...$.0.C........
004101D0 24 EB 23 8B C3 E8 EE FB FF FF 88 04 24 EB 17 8B $.#.........$...
004101E0 D4 8B C3 E8 84 FC FF FF 84 C0 75 0A 8B C3 E8 D5 ..........u.....
004101F0 FB FF FF 88 04 24 8A 04 24 5A 5B C3 00 00 00 00 .....$..$Z[.....
00410200 55 8B EC 83 C4 E4 53 33 D2 89 55 E4 89 55 F4 8B U.....S3..U..U..
00410210 D8 33 C0 55 68 B5 02 41 00 64 FF 30 64 89 20 8B .3.Uh..A.d.0d. .
00410220 D3 8D 45 F4 E8 27 1C 00 00 8D 45 F8 50 6A 00 68 ..E..'....E.Pj.h
00410230 00 04 00 00 8B 45 F4 50 A1 20 A8 42 00 8B 00 FF .....E.P. .B....
00410240 D0 8B D0 81 EA 05 00 02 80 74 0A 81 EA FB FF FD .........t......
00410250 7F 75 38 EB 42 8D 45 E4 8B 55 F4 E8 68 42 FF FF .u8.B.E..U..hB..
00410260 8B 45 E4 8D 55 E8 E8 2D 8C FF FF 84 C0 74 09 DB .E..U..-.....t..
00410270 6D E8 DD 5D F8 9B EB 1F 66 8B 13 66 B9 05 00 B8 m..]....f..f....
00410280 05 00 02 80 E8 FF DD FF FF EB 0C 66 8B 13 66 B9 ...........f..f.
00410290 05 00 E8 F1 DD FF FF 33 C0 5A 59 59 64 89 10 68 .......3.ZYYd..h
004102A0 BC 02 41 00 8D 45 E4 E8 94 3F FF FF 8D 45 F4 E8 ..A..E...?...E..
004102B0 4C 46 FF FF C3 E9 6A 39 FF FF EB E8 DD 45 F8 5B LF....j9.....E.[
004102C0 8B E5 5D C3 53 83 C4 E8 8B D8 8D 44 24 08 50 E8 ..].S......D$.P.
004102D0 4C CB FF FF 6A 05 6A 00 68 00 04 00 00 53 8D 44 L...j.j.h....S.D
004102E0 24 18 50 A1 08 A9 42 00 8B 00 FF D0 66 8B 13 66 $.P...B.....f..f
004102F0 B9 05 00 E8 90 DD FF FF 8B 44 24 10 89 04 24 8B .........D$...$.
00410300 44 24 14 89 44 24 04 DD 04 24 83 C4 18 5B C3 90 D$..D$...$...[..
00410310 55 8B EC 83 C4 E8 53 8B D8 8D 45 E8 50 E8 FE CA U.....S...E.P...
00410320 FF FF 33 C0 55 68 65 03 41 00 64 FF 30 64 89 20 ..3.Uhe.A.d.0d. 
00410330 8B D3 8D 45 E8 E8 2E E4 FF FF 8D 45 E8 FF 15 18 ...E.......E....
00410340 B8 42 00 8D 45 E8 E8 75 00 00 00 DD 5D F8 9B 33 .B..E..u....]..3
00410350 C0 5A 59 59 64 89 10 68 6C 03 41 00 8D 45 E8 E8 .ZYYd..hl.A..E..
00410360 C8 E0 FF FF C3 E9 BA 38 FF FF EB F0 DD 45 F8 5B .......8.....E.[
00410370 8B E5 5D C3 53 56 57 83 C4 EC 8B FA 8B F0 8B D4 ..].SVW.........
00410380 66 8B 06 E8 64 2A 00 00 8B D8 84 DB 74 28 8D 44 f...d*......t(.D
00410390 24 04 50 E8 88 CA FF FF 6A 05 8B CE 8D 54 24 08 $.P.....j....T$.
004103A0 8B 44 24 04 8B 30 FF 56 1C 8B 44 24 0C 89 07 8B .D$..0.V..D$....
004103B0 44 24 10 89 47 04 8B C3 83 C4 14 5F 5E 5B C3 90 D$..G......_^[..
004103C0 53 83 C4 EC 8B D8 66 8B 03 0F B7 D0 83 FA 14 0F S.....f.........
004103D0 87 93 01 00 00 FF 24 95 DC 03 41 00 30 04 41 00 ......$...A.0.A.
004103E0 3E 04 41 00 62 04 41 00 6E 04 41 00 7A 04 41 00 >.A.b.A.n.A.z.A.
004103F0 86 04 41 00 98 04 41 00 AA 04 41 00 BC 04 41 00 ..A...A...A...A.
00410400 58 05 41 00 68 05 41 00 CC 04 41 00 47 05 41 00 X.A.h.A...A.G.A.
00410410 58 05 41 00 68 05 41 00 68 05 41 00 E1 04 41 00 X.A.h.A.h.A...A.
00410420 F6 04 41 00 0C 05 41 00 21 05 41 00 3B 05 41 00 ..A...A.!.A.;.A.
00410430 33 C0 89 04 24 89 44 24 04 E9 EF 02 00 00 80 3D 3...$.D$.......=
00410440 14 83 42 00 00 74 0D 66 BA 05 00 66 B8 01 00 E8 ..B..t.f...f....
00410450 F4 D7 FF FF 33 C0 89 04 24 89 44 24 04 E9 CB 02 ....3...$.D$....
00410460 00 00 DF 43 08 DD 1C 24 9B E9 BF 02 00 00 DB 43 ...C...$.......C
00410470 08 DD 1C 24 9B E9 B3 02 00 00 D9 43 08 DD 1C 24 ...$.......C...$
00410480 9B E9 A7 02 00 00 8B 43 08 89 04 24 8B 43 0C 89 .......C...$.C..
00410490 44 24 04 E9 95 02 00 00 DF 6B 08 D8 35 38 07 41 D$.......k..58.A
004104A0 00 DD 1C 24 9B E9 83 02 00 00 8B 43 08 89 04 24 ...$.......C...$
004104B0 8B 43 0C 89 44 24 04 E9 71 02 00 00 8B C3 E8 3D .C..D$..q......=
004104C0 FD FF FF DD 1C 24 9B E9 61 02 00 00 0F BF 43 08 .....$..a.....C.
004104D0 89 44 24 08 DB 44 24 08 DD 1C 24 9B E9 4C 02 00 .D$..D$...$..L..
004104E0 00 0F BE 43 08 89 44 24 08 DB 44 24 08 DD 1C 24 ...C..D$..D$...$
004104F0 9B E9 37 02 00 00 33 C0 8A 43 08 89 44 24 08 DB ..7...3..C..D$..
00410500 44 24 08 DD 1C 24 9B E9 21 02 00 00 0F B7 43 08 D$...$..!.....C.
00410510 89 44 24 08 DB 44 24 08 DD 1C 24 9B E9 0C 02 00 .D$..D$...$.....
00410520 00 8B 43 08 89 44 24 0C 33 C0 89 44 24 10 DF 6C ..C..D$.3..D$..l
00410530 24 0C DD 1C 24 9B E9 F2 01 00 00 DF 6B 08 DD 1C $...$.......k...
00410540 24 9B E9 E6 01 00 00 8B 43 08 E8 71 FE FF FF DD $.......C..q....
00410550 1C 24 9B E9 D5 01 00 00 8B C3 E8 65 FD FF FF DD .$.........e....
00410560 1C 24 9B E9 C5 01 00 00 8B D0 66 81 EA 00 01 74 .$........f....t
00410570 07 66 FF CA 74 12 EB 20 8B C3 E8 81 FC FF FF DD .f..t.. ........
00410580 1C 24 9B E9 A5 01 00 00 8B C3 E8 81 FD FF FF DD .$..............
00410590 1C 24 9B E9 95 01 00 00 F6 C4 40 0F 84 74 01 00 .$........@..t..
004105A0 00 0F B7 C0 25 FF BF FF FF 83 F8 14 0F 87 56 01 ....%.........V.
004105B0 00 00 FF 24 85 B9 05 41 00 08 07 41 00 08 07 41 ...$...A...A...A
004105C0 00 0D 06 41 00 1B 06 41 00 29 06 41 00 37 06 41 ...A...A.).A.7.A
004105D0 00 4B 06 41 00 5F 06 41 00 73 06 41 00 08 07 41 .K.A._.A.s.A...A
004105E0 00 08 07 41 00 83 06 41 00 FA 06 41 00 08 07 41 ...A...A...A...A
004105F0 00 08 07 41 00 08 07 41 00 9A 06 41 00 AE 06 41 ...A...A...A...A
00410600 00 C2 06 41 00 D6 06 41 00 EF 06 41 00 8B 43 08 ...A...A...A..C.
00410610 DF 00 DD 1C 24 9B E9 12 01 00 00 8B 43 08 DB 00 ....$.......C...
00410620 DD 1C 24 9B E9 04 01 00 00 8B 43 08 D9 00 DD 1C ..$.......C.....
00410630 24 9B E9 F6 00 00 00 8B 43 08 8B 10 89 14 24 8B $.......C.....$.
00410640 50 04 89 54 24 04 E9 E2 00 00 00 8B 43 08 DF 28 P..T$.......C..(
00410650 D8 35 38 07 41 00 DD 1C 24 9B E9 CE 00 00 00 8B .58.A...$.......
00410660 43 08 8B 10 89 14 24 8B 50 04 89 54 24 04 E9 BA C.....$.P..T$...
00410670 00 00 00 8B C3 E8 86 FB FF FF DD 1C 24 9B E9 AA ............$...
00410680 00 00 00 8B 43 08 0F BF 00 89 44 24 08 DB 44 24 ....C.....D$..D$
00410690 08 DD 1C 24 9B E9 93 00 00 00 8B 43 08 0F BE 00 ...$.......C....
004106A0 89 44 24 08 DB 44 24 08 DD 1C 24 9B EB 7F 8B 43 .D$..D$...$....C
004106B0 08 0F B6 00 89 44 24 08 DB 44 24 08 DD 1C 24 9B .....D$..D$...$.
004106C0 EB 6B 8B 43 08 0F B7 00 89 44 24 08 DB 44 24 08 .k.C.....D$..D$.
004106D0 DD 1C 24 9B EB 57 8B 43 08 8B 00 89 44 24 0C 33 ..$..W.C....D$.3
004106E0 C0 89 44 24 10 DF 6C 24 0C DD 1C 24 9B EB 3E 8B ..D$..l$...$..>.
004106F0 43 08 DF 28 DD 1C 24 9B EB 33 8B 43 08 E8 BE FC C..(..$..3.C....
00410700 FF FF DD 1C 24 9B EB 25 8B C3 E8 B5 FB FF FF DD ....$..%........
00410710 1C 24 9B EB 18 8B D4 8B C3 E8 56 FC FF FF 84 C0 .$........V.....
00410720 75 0B 8B C3 E8 9B FB FF FF DD 1C 24 9B DD 04 24 u..........$...$
00410730 83 C4 14 5B C3 00 00 00 00 40 1C 46 55 8B EC 83 ...[.....@.FU...
00410740 C4 EC 53 56 57 89 45 FC 8B 45 FC 0F B7 00 83 F8 ..SVW.E..E......
00410750 14 0F 87 26 01 00 00 FF 24 85 5E 07 41 00 B2 07 ...&....$.^.A...
00410760 41 00 BC 07 41 00 DC 07 41 00 EB 07 41 00 FA 07 A...A...A...A...
00410770 41 00 7D 08 41 00 7D 08 41 00 7D 08 41 00 7D 08 A.}.A.}.A.}.A.}.
00410780 41 00 7D 08 41 00 7D 08 41 00 08 08 41 00 7D 08 A.}.A.}.A...A.}.
00410790 41 00 7D 08 41 00 7D 08 41 00 7D 08 41 00 1E 08 A.}.A.}.A.}.A...
004107A0 41 00 34 08 41 00 47 08 41 00 5A 08 41 00 71 08 A.4.A.G.A.Z.A.q.
004107B0 41 00 33 C0 89 45 F8 E9 03 01 00 00 80 3D 14 83 A.3..E.......=..
004107C0 42 00 00 74 0D 66 BA 04 00 66 B8 01 00 E8 76 D4 B..t.f...f....v.
004107D0 FF FF 33 C0 89 45 F8 E9 E3 00 00 00 8B 45 FC DF ..3..E.......E..
004107E0 40 08 D9 5D F8 9B E9 D4 00 00 00 8B 45 FC DB 40 @..]........E..@
004107F0 08 D9 5D F8 9B E9 C5 00 00 00 8B 45 FC 8B 40 08 ..]........E..@.
00410800 89 45 F8 E9 B7 00 00 00 8B 45 FC 0F BF 40 08 89 .E.......E...@..
00410810 45 F4 DB 45 F4 D9 5D F8 9B E9 A1 00 00 00 8B 45 E..E..]........E
00410820 FC 0F BE 40 08 89 45 F4 DB 45 F4 D9 5D F8 9B E9 ...@..E..E..]...
00410830 8B 00 00 00 8B 45 FC 0F B6 40 08 89 45 F4 DB 45 .....E...@..E..E
00410840 F4 D9 5D F8 9B EB 78 8B 45 FC 0F B7 40 08 89 45 ..]...x.E...@..E
00410850 F4 DB 45 F4 D9 5D F8 9B EB 65 8B 45 FC 8B 40 08 ..E..]...e.E..@.
00410860 89 45 EC 33 C0 89 45 F0 DF 6D EC D9 5D F8 9B EB .E.3..E..m..]...
00410870 4E 8B 45 FC DF 68 08 D9 5D F8 9B EB 42 33 C0 55 N.E..h..]...B3.U
00410880 68 A1 08 41 00 64 FF 30 64 89 20 8B 45 FC E8 2D h..A.d.0d. .E..-
00410890 FB FF FF D9 5D F8 9B 33 C0 5A 59 59 64 89 10 EB ....]..3.ZYYd...
004108A0 1E E9 52 32 FF FF 8B 45 FC 66 8B 00 66 BA 04 00 ..R2...E.f..f...
004108B0 E8 07 D8 FF FF 33 C0 89 45 F8 E8 19 34 FF FF D9 .....3..E...4...
004108C0 45 F8 5F 5E 5B 8B E5 5D C3 8D 40 00 55 8B EC 83 E._^[..]..@.U...
004108D0 C4 E0 53 33 D2 89 55 E0 89 55 E4 89 55 F4 8B D8 ..S3..U..U..U...
004108E0 33 C0 55 68 A8 09 41 00 64 FF 30 64 89 20 8B D3 3.Uh..A.d.0d. ..
004108F0 8D 45 F4 E8 58 15 00 00 8D 45 F8 50 6A 00 68 00 .E..X....E.Pj.h.
00410900 04 00 00 8B 45 F4 50 A1 EC A6 42 00 8B 00 FF D0 ....E.P...B.....
00410910 8B D0 81 EA 05 00 02 80 74 0A 81 EA FB FF FD 7F ........t.......
00410920 75 57 EB 61 8D 45 E4 8B 55 F4 E8 99 3B FF FF 8B uW.a.E..U...;...
00410930 45 E4 8D 55 F8 E8 C2 9D FF FF 84 C0 75 47 8D 45 E..U........uG.E
00410940 E0 8B 55 F4 E8 7F 3B FF FF 8B 45 E0 8D 55 E8 E8 ..U...;...E..U..
00410950 60 85 FF FF 84 C0 74 0E 8B 45 E8 89 45 F8 8B 45 `.....t..E..E..E
00410960 EC 89 45 FC EB 1F 66 8B 13 66 B9 07 00 B8 05 00 ..E...f..f......
00410970 02 80 E8 11 D7 FF FF EB 0C 66 8B 13 66 B9 07 00 .........f..f...
00410980 E8 03 D7 FF FF 33 C0 5A 59 59 64 89 10 68 AF 09 .....3.ZYYd..h..
00410990 41 00 8D 45 E0 BA 02 00 00 00 E8 C5 38 FF FF 8D A..E........8...
004109A0 45 F4 E8 59 3F FF FF C3 E9 77 32 FF FF EB E3 DD E..Y?....w2.....
004109B0 45 F8 5B 8B E5 5D C3 90 55 8B EC 83 C4 E8 53 8B E.[..]..U.....S.
004109C0 D8 8D 45 E8 50 E8 56 C4 FF FF 66 C7 45 E8 05 00 ..E.P.V...f.E...
004109D0 8B 45 08 89 45 F0 8B 45 0C 89 45 F4 6A 07 6A 00 .E..E..E..E.j.j.
004109E0 68 00 04 00 00 8D 45 E8 50 8D 45 E8 50 A1 08 A9 h.....E.P.E.P...
004109F0 42 00 8B 00 FF D0 66 8B 13 66 B9 07 00 E8 86 D6 B.....f..f......
00410A00 FF FF 8B 45 F0 89 45 F8 8B 45 F4 89 45 FC DD 45 ...E..E..E..E..E
00410A10 F8 5B 8B E5 5D C2 08 00 53 83 C4 E8 8B D8 8D 44 .[..]...S......D
00410A20 24 08 50 E8 F8 C3 FF FF 6A 07 6A 00 68 00 04 00 $.P.....j.j.h...
00410A30 00 53 8D 44 24 18 50 A1 08 A9 42 00 8B 00 FF D0 .S.D$.P...B.....
00410A40 66 8B 13 66 B9 07 00 E8 3C D6 FF FF 8B 44 24 10 f..f....<....D$.
00410A50 89 04 24 8B 44 24 14 89 44 24 04 DD 04 24 83 C4 ..$.D$..D$...$..
00410A60 18 5B C3 90 55 8B EC 83 C4 E8 53 8B D8 8D 45 E8 .[..U.....S...E.
00410A70 50 E8 AA C3 FF FF 33 C0 55 68 B9 0A 41 00 64 FF P.....3.Uh..A.d.
00410A80 30 64 89 20 8B D3 8D 45 E8 E8 DA DC FF FF 8D 45 0d. ...E.......E
00410A90 E8 FF 15 18 B8 42 00 8D 45 E8 E8 75 00 00 00 DD .....B..E..u....
00410AA0 5D F8 9B 33 C0 5A 59 59 64 89 10 68 C0 0A 41 00 ]..3.ZYYd..h..A.
00410AB0 8D 45 E8 E8 74 D9 FF FF C3 E9 66 31 FF FF EB F0 .E..t.....f1....
00410AC0 DD 45 F8 5B 8B E5 5D C3 53 56 57 83 C4 EC 8B FA .E.[..].SVW.....
00410AD0 8B F0 8B D4 66 8B 06 E8 10 23 00 00 8B D8 84 DB ....f....#......
00410AE0 74 28 8D 44 24 04 50 E8 34 C3 FF FF 6A 07 8B CE t(.D$.P.4...j...
00410AF0 8D 54 24 08 8B 44 24 04 8B 30 FF 56 1C 8B 44 24 .T$..D$..0.V..D$
00410B00 0C 89 07 8B 44 24 10 89 47 04 8B C3 83 C4 14 5F ....D$..G......_
00410B10 5E 5B C3 90 53 83 C4 EC 8B D8 66 8B 03 0F B7 D0 ^[..S.....f.....
00410B20 83 FA 14 0F 87 81 01 00 00 FF 24 95 30 0B 41 00 ..........$.0.A.
00410B30 84 0B 41 00 92 0B 41 00 B6 0B 41 00 C2 0B 41 00 ..A...A...A...A.
00410B40 CE 0B 41 00 CE 0B 41 00 CE 0B 41 00 DE 0B 41 00 ..A...A...A...A.
00410B50 F0 0B 41 00 9A 0C 41 00 AA 0C 41 00 00 0C 41 00 ..A...A...A...A.
00410B60 89 0C 41 00 9A 0C 41 00 AA 0C 41 00 AA 0C 41 00 ..A...A...A...A.
00410B70 15 0C 41 00 2A 0C 41 00 40 0C 41 00 55 0C 41 00 ..A.*.A.@.A.U.A.
00410B80 6F 0C 41 00 33 C0 89 04 24 89 44 24 04 E9 C8 02 o.A.3...$.D$....
00410B90 00 00 80 3D 14 83 42 00 00 74 0D 66 BA 07 00 66 ...=..B..t.f...f
00410BA0 B8 01 00 E8 A0 D0 FF FF 33 C0 89 04 24 89 44 24 ........3...$.D$
00410BB0 04 E9 A4 02 00 00 DF 43 08 DD 1C 24 9B E9 98 02 .......C...$....
00410BC0 00 00 DB 43 08 DD 1C 24 9B E9 8C 02 00 00 8B C3 ...C...$........
00410BD0 E8 43 FE FF FF DD 1C 24 9B E9 7C 02 00 00 8B 43 .C.....$..|....C
00410BE0 08 89 04 24 8B 43 0C 89 44 24 04 E9 6A 02 00 00 ...$.C..D$..j...
00410BF0 8B C3 E8 D5 FC FF FF DD 1C 24 9B E9 5A 02 00 00 .........$..Z...
00410C00 0F BF 43 08 89 44 24 08 DB 44 24 08 DD 1C 24 9B ..C..D$..D$...$.
00410C10 E9 45 02 00 00 0F BE 43 08 89 44 24 08 DB 44 24 .E.....C..D$..D$
00410C20 08 DD 1C 24 9B E9 30 02 00 00 33 C0 8A 43 08 89 ...$..0...3..C..
00410C30 44 24 08 DB 44 24 08 DD 1C 24 9B E9 1A 02 00 00 D$..D$...$......
00410C40 0F B7 43 08 89 44 24 08 DB 44 24 08 DD 1C 24 9B ..C..D$..D$...$.
00410C50 E9 05 02 00 00 8B 43 08 89 44 24 0C 33 C0 89 44 ......C..D$.3..D
00410C60 24 10 DF 6C 24 0C DD 1C 24 9B E9 EB 01 00 00 DF $..l$...$.......
00410C70 6B 08 83 C4 F8 DD 1C 24 9B 8B C3 E8 38 FD FF FF k......$....8...
00410C80 DD 1C 24 9B E9 D1 01 00 00 8B 43 08 E8 83 FE FF ..$.......C.....
00410C90 FF DD 1C 24 9B E9 C0 01 00 00 8B C3 E8 77 FD FF ...$.........w..
00410CA0 FF DD 1C 24 9B E9 B0 01 00 00 8B D0 66 81 EA 00 ...$........f...
00410CB0 01 74 07 66 FF CA 74 12 EB 20 8B C3 E8 0B FC FF .t.f..t.. ......
00410CC0 FF DD 1C 24 9B E9 90 01 00 00 8B C3 E8 93 FD FF ...$............
00410CD0 FF DD 1C 24 9B E9 80 01 00 00 F6 C4 40 0F 84 5F ...$........@.._
00410CE0 01 00 00 0F B7 C0 25 FF BF FF FF 83 F8 14 0F 87 ......%.........
00410CF0 41 01 00 00 FF 24 85 FB 0C 41 00 35 0E 41 00 35 A....$...A.5.A.5
00410D00 0E 41 00 4F 0D 41 00 5D 0D 41 00 6B 0D 41 00 6B .A.O.A.].A.k.A.k
00410D10 0D 41 00 6B 0D 41 00 7B 0D 41 00 8F 0D 41 00 35 .A.k.A.{.A...A.5
00410D20 0E 41 00 35 0E 41 00 9F 0D 41 00 27 0E 41 00 35 .A.5.A...A.'.A.5
00410D30 0E 41 00 35 0E 41 00 35 0E 41 00 B6 0D 41 00 CD .A.5.A.5.A...A..
00410D40 0D 41 00 E1 0D 41 00 F5 0D 41 00 0E 0E 41 00 8B .A...A...A...A..
00410D50 43 08 DF 00 DD 1C 24 9B E9 FD 00 00 00 8B 43 08 C.....$.......C.
00410D60 DB 00 DD 1C 24 9B E9 EF 00 00 00 8B C3 E8 A6 FC ....$...........
00410D70 FF FF DD 1C 24 9B E9 DF 00 00 00 8B 43 08 8B 10 ....$.......C...
00410D80 89 14 24 8B 50 04 89 54 24 04 E9 CB 00 00 00 8B ..$.P..T$.......
00410D90 C3 E8 36 FB FF FF DD 1C 24 9B E9 BB 00 00 00 8B ..6.....$.......
00410DA0 43 08 0F BF 00 89 44 24 08 DB 44 24 08 DD 1C 24 C.....D$..D$...$
00410DB0 9B E9 A4 00 00 00 8B 43 08 0F BE 00 89 44 24 08 .......C.....D$.
00410DC0 DB 44 24 08 DD 1C 24 9B E9 8D 00 00 00 8B 43 08 .D$...$.......C.
00410DD0 0F B6 00 89 44 24 08 DB 44 24 08 DD 1C 24 9B EB ....D$..D$...$..
00410DE0 79 8B 43 08 0F B7 00 89 44 24 08 DB 44 24 08 DD y.C.....D$..D$..
00410DF0 1C 24 9B EB 65 8B 43 08 8B 00 89 44 24 0C 33 C0 .$..e.C....D$.3.
00410E00 89 44 24 10 DF 6C 24 0C DD 1C 24 9B EB 4C 8B 43 .D$..l$...$..L.C
00410E10 08 DF 28 83 C4 F8 DD 1C 24 9B 8B C3 E8 97 FB FF ..(.....$.......
00410E20 FF DD 1C 24 9B EB 33 8B 43 08 E8 E5 FC FF FF DD ...$..3.C.......
00410E30 1C 24 9B EB 25 8B C3 E8 DC FB FF FF DD 1C 24 9B .$..%.........$.
00410E40 EB 18 8B D4 8B C3 E8 7D FC FF FF 84 C0 75 0B 8B .......}.....u..
00410E50 C3 E8 C2 FB FF FF DD 1C 24 9B DD 04 24 83 C4 14 ........$...$...
00410E60 5B C3 8B C0 55 8B EC 83 C4 F0 53 33 D2 89 55 F0 [...U.....S3..U.
00410E70 89 55 F4 8B D8 33 C0 55 68 10 0F 41 00 64 FF 30 .U...3.Uh..A.d.0
00410E80 64 89 20 8B D3 8D 45 F4 E8 C3 0F 00 00 8D 45 F8 d. ...E.......E.
00410E90 50 6A 00 68 00 04 00 00 8B 45 F4 50 A1 78 A9 42 Pj.h.....E.P.x.B
00410EA0 00 8B 00 FF D0 8B D0 81 EA 05 00 02 80 74 0A 81 .............t..
00410EB0 EA FB FF FD 7F 75 2F EB 39 8D 45 F0 8B 55 F4 E8 .....u/.9.E..U..
00410EC0 04 36 FF FF 8B 45 F0 8D 55 F8 E8 3D 80 FF FF 84 .6...E..U..=....
00410ED0 C0 75 1F 66 8B 13 66 B9 06 00 B8 05 00 02 80 E8 .u.f..f.........
00410EE0 A4 D1 FF FF EB 0C 66 8B 13 66 B9 06 00 E8 96 D1 ......f..f......
00410EF0 FF FF 33 C0 5A 59 59 64 89 10 68 17 0F 41 00 8D ..3.ZYYd..h..A..
00410F00 45 F0 E8 39 33 FF FF 8D 45 F4 E8 F1 39 FF FF C3 E..93...E...9...
00410F10 E9 0F 2D FF FF EB E8 DF 6D F8 5B 8B E5 5D C3 90 ..-.....m.[..]..
00410F20 55 8B EC 83 C4 E8 53 8B D8 8D 45 E8 50 E8 EE BE U.....S...E.P...
00410F30 FF FF 66 C7 45 E8 05 00 8B 45 08 89 45 F0 8B 45 ..f.E....E..E..E
00410F40 0C 89 45 F4 6A 06 6A 00 68 00 04 00 00 8D 45 E8 ..E.j.j.h.....E.
00410F50 50 8D 45 E8 50 A1 08 A9 42 00 8B 00 FF D0 66 8B P.E.P...B.....f.
00410F60 13 66 B9 06 00 E8 1E D1 FF FF 8B 45 F0 89 45 F8 .f.........E..E.
00410F70 8B 45 F4 89 45 FC DF 6D F8 5B 8B E5 5D C2 08 00 .E..E..m.[..]...
00410F80 53 83 C4 E8 8B D8 8D 44 24 08 50 E8 90 BE FF FF S......D$.P.....
00410F90 6A 06 6A 00 68 00 04 00 00 53 8D 44 24 18 50 A1 j.j.h....S.D$.P.
00410FA0 08 A9 42 00 8B 00 FF D0 66 8B 13 66 B9 06 00 E8 ..B.....f..f....
00410FB0 D4 D0 FF FF 8B 44 24 10 89 04 24 8B 44 24 14 89 .....D$...$.D$..
00410FC0 44 24 04 DF 2C 24 83 C4 18 5B C3 90 55 8B EC 83 D$..,$...[..U...
00410FD0 C4 E8 53 8B D8 8D 45 E8 50 E8 42 BE FF FF 33 C0 ..S...E.P.B...3.
00410FE0 55 68 21 10 41 00 64 FF 30 64 89 20 8B D3 8D 45 Uh!.A.d.0d. ...E
00410FF0 E8 E8 72 D7 FF FF 8D 45 E8 FF 15 18 B8 42 00 8D ..r....E.....B..
00411000 45 E8 E8 75 00 00 00 DF 7D F8 9B 33 C0 5A 59 59 E..u....}..3.ZYY
00411010 64 89 10 68 28 10 41 00 8D 45 E8 E8 0C D4 FF FF d..h(.A..E......
00411020 C3 E9 FE 2B FF FF EB F0 DF 6D F8 5B 8B E5 5D C3 ...+.....m.[..].
00411030 53 56 57 83 C4 EC 8B FA 8B F0 8B D4 66 8B 06 E8 SVW.........f...
00411040 A8 1D 00 00 8B D8 84 DB 74 28 8D 44 24 04 50 E8 ........t(.D$.P.
00411050 CC BD FF FF 6A 06 8B CE 8D 54 24 08 8B 44 24 04 ....j....T$..D$.
00411060 8B 30 FF 56 1C 8B 44 24 0C 89 07 8B 44 24 10 89 .0.V..D$....D$..
00411070 47 04 8B C3 83 C4 14 5F 5E 5B C3 90 53 83 C4 EC G......_^[..S...
00411080 8B D8 66 8B 03 0F B7 D0 83 FA 14 0F 87 BB 01 00 ..f.............
00411090 00 FF 24 95 98 10 41 00 EC 10 41 00 FA 10 41 00 ..$...A...A...A.
004110A0 1E 11 41 00 30 11 41 00 42 11 41 00 42 11 41 00 ..A.0.A.B.A.B.A.
004110B0 52 11 41 00 64 11 41 00 74 11 41 00 3C 12 41 00 R.A.d.A.t.A.<.A.
004110C0 4C 12 41 00 84 11 41 00 2B 12 41 00 3C 12 41 00 L.A...A.+.A.<.A.
004110D0 4C 12 41 00 4C 12 41 00 9F 11 41 00 BA 11 41 00 L.A.L.A...A...A.
004110E0 D6 11 41 00 F1 11 41 00 11 12 41 00 33 C0 89 04 ..A...A...A.3...
004110F0 24 89 44 24 04 E9 3F 03 00 00 80 3D 14 83 42 00 $.D$..?....=..B.
00411100 00 74 0D 66 BA 06 00 66 B8 01 00 E8 38 CB FF FF .t.f...f....8...
00411110 33 C0 89 04 24 89 44 24 04 E9 1B 03 00 00 DF 43 3...$.D$.......C
00411120 08 D8 0D 44 14 41 00 DF 3C 24 9B E9 09 03 00 00 ...D.A..<$......
00411130 DB 43 08 D8 0D 44 14 41 00 DF 3C 24 9B E9 F7 02 .C...D.A..<$....
00411140 00 00 8B C3 E8 37 FE FF FF DF 3C 24 9B E9 E7 02 .....7....<$....
00411150 00 00 8B 43 08 89 04 24 8B 43 0C 89 44 24 04 E9 ...C...$.C..D$..
00411160 D5 02 00 00 8B C3 E8 15 FE FF FF DF 3C 24 9B E9 ............<$..
00411170 C5 02 00 00 8B C3 E8 E9 FC FF FF DF 3C 24 9B E9 ............<$..
00411180 B5 02 00 00 0F BF 43 08 89 44 24 08 DB 44 24 08 ......C..D$..D$.
00411190 D8 0D 44 14 41 00 DF 3C 24 9B E9 9A 02 00 00 0F ..D.A..<$.......
004111A0 BE 43 08 89 44 24 08 DB 44 24 08 D8 0D 44 14 41 .C..D$..D$...D.A
004111B0 00 DF 3C 24 9B E9 7F 02 00 00 33 C0 8A 43 08 89 ..<$......3..C..
004111C0 44 24 08 DB 44 24 08 D8 0D 44 14 41 00 DF 3C 24 D$..D$...D.A..<$
004111D0 9B E9 63 02 00 00 0F B7 43 08 89 44 24 08 DB 44 ..c.....C..D$..D
004111E0 24 08 D8 0D 44 14 41 00 DF 3C 24 9B E9 48 02 00 $...D.A..<$..H..
004111F0 00 8B 43 08 89 44 24 0C 33 C0 89 44 24 10 DF 6C ..C..D$.3..D$..l
00411200 24 0C D8 0D 44 14 41 00 DF 3C 24 9B E9 28 02 00 $...D.A..<$..(..
00411210 00 DF 6B 08 83 C4 F8 DD 1C 24 9B 8B C3 E8 FE FC ..k......$......
00411220 FF FF DF 3C 24 9B E9 0E 02 00 00 8B 43 08 E8 49 ...<$.......C..I
00411230 FE FF FF DF 3C 24 9B E9 FD 01 00 00 8B C3 E8 3D ....<$.........=
00411240 FD FF FF DF 3C 24 9B E9 ED 01 00 00 8B D0 66 81 ....<$........f.
00411250 EA 00 01 74 07 66 FF CA 74 12 EB 20 8B C3 E8 01 ...t.f..t.. ....
00411260 FC FF FF DF 3C 24 9B E9 CD 01 00 00 8B C3 E8 59 ....<$.........Y
00411270 FD FF FF DF 3C 24 9B E9 BD 01 00 00 F6 C4 40 0F ....<$........@.
00411280 84 9C 01 00 00 0F B7 C0 25 FF BF FF FF 83 F8 14 ........%.......
00411290 0F 87 7E 01 00 00 FF 24 85 9D 12 41 00 14 14 41 ..~....$...A...A
004112A0 00 14 14 41 00 F1 12 41 00 05 13 41 00 19 13 41 ...A...A...A...A
004112B0 00 19 13 41 00 29 13 41 00 3D 13 41 00 4D 13 41 ...A.).A.=.A.M.A
004112C0 00 14 14 41 00 14 14 41 00 5D 13 41 00 06 14 41 ...A...A.].A...A
004112D0 00 14 14 41 00 14 14 41 00 14 14 41 00 7A 13 41 ...A...A...A.z.A
004112E0 00 97 13 41 00 B4 13 41 00 CE 13 41 00 ED 13 41 ...A...A...A...A
004112F0 00 8B 43 08 DF 00 D8 0D 44 14 41 00 DF 3C 24 9B ..C.....D.A..<$.
00411300 E9 34 01 00 00 8B 43 08 DB 00 D8 0D 44 14 41 00 .4....C.....D.A.
00411310 DF 3C 24 9B E9 20 01 00 00 8B C3 E8 60 FC FF FF .<$.. ......`...
00411320 DF 3C 24 9B E9 10 01 00 00 8B 43 08 8B 10 89 14 .<$.......C.....
00411330 24 8B 50 04 89 54 24 04 E9 FC 00 00 00 8B C3 E8 $.P..T$.........
00411340 3C FC FF FF DF 3C 24 9B E9 EC 00 00 00 8B C3 E8 <....<$.........
00411350 10 FB FF FF DF 3C 24 9B E9 DC 00 00 00 8B 43 08 .....<$.......C.
00411360 0F BF 00 89 44 24 08 DB 44 24 08 D8 0D 44 14 41 ....D$..D$...D.A
00411370 00 DF 3C 24 9B E9 BF 00 00 00 8B 43 08 0F BE 00 ..<$.......C....
00411380 89 44 24 08 DB 44 24 08 D8 0D 44 14 41 00 DF 3C .D$..D$...D.A..<
00411390 24 9B E9 A2 00 00 00 8B 43 08 0F B6 00 89 44 24 $.......C.....D$
004113A0 08 DB 44 24 08 D8 0D 44 14 41 00 DF 3C 24 9B E9 ..D$...D.A..<$..
004113B0 85 00 00 00 8B 43 08 0F B7 00 89 44 24 08 DB 44 .....C.....D$..D
004113C0 24 08 D8 0D 44 14 41 00 DF 3C 24 9B EB 6B 8B 43 $...D.A..<$..k.C
004113D0 08 8B 00 89 44 24 0C 33 C0 89 44 24 10 DF 6C 24 ....D$.3..D$..l$
004113E0 0C D8 0D 44 14 41 00 DF 3C 24 9B EB 4C 8B 43 08 ...D.A..<$..L.C.
004113F0 DF 28 83 C4 F8 DD 1C 24 9B 8B C3 E8 20 FB FF FF .(.....$.... ...
00411400 DF 3C 24 9B EB 33 8B 43 08 E8 6E FC FF FF DF 3C .<$..3.C..n....<
00411410 24 9B EB 25 8B C3 E8 65 FB FF FF DF 3C 24 9B EB $..%...e....<$..
00411420 18 8B D4 8B C3 E8 06 FC FF FF 84 C0 75 0B 8B C3 ............u...
00411430 E8 4B FB FF FF DF 3C 24 9B DF 2C 24 83 C4 14 5B .K....<$..,$...[
00411440 C3 00 00 00 00 40 1C 46 55 8B EC 53 8B D8 8B C3 .....@.FU..S....
00411450 E8 AB 34 FF FF 50 6A 00 68 00 04 00 00 FF 75 0C ..4..Pj.h.....u.
00411460 FF 75 08 A1 80 A6 42 00 8B 00 FF D0 66 B9 08 00 .u....B.....f...
00411470 66 BA 06 00 E8 0F CC FF FF 5B 5D C2 08 00 8B C0 f........[].....
00411480 55 8B EC 53 8B D8 8B C3 E8 73 34 FF FF 50 6A 00 U..S.....s4..Pj.
00411490 68 00 04 00 00 FF 75 0C FF 75 08 A1 E8 A7 42 00 h.....u..u....B.
004114A0 8B 00 FF D0 66 B9 08 00 66 BA 07 00 E8 D7 CB FF ....f...f.......
004114B0 FF 5B 5D C2 08 00 8B C0 55 8B EC 33 C9 51 51 51 .[].....U..3.QQQ
004114C0 51 53 56 8B DA 8B F0 33 C0 55 68 6E 15 41 00 64 QSV....3.Uhn.A.d
004114D0 FF 30 64 89 20 8B C3 E8 24 34 FF FF 50 6A 00 68 .0d. ...$4..Pj.h
004114E0 00 04 00 00 56 A1 D8 A8 42 00 8B 00 FF D0 66 B9 ....V...B.....f.
004114F0 08 00 66 BA 0B 00 E8 8D CB FF FF A0 1C 83 42 00 ..f...........B.
00411500 2C 01 72 4F 74 06 FE C8 74 23 EB 42 8D 45 F8 8B ,.rOt...t#.B.E..
00411510 13 E8 B2 2F FF FF 8B 45 F8 8D 55 FC E8 9F 62 FF .../...E..U...b.
00411520 FF 8B 55 FC 8B C3 E8 21 35 FF FF EB 26 8D 45 F0 ..U....!5...&.E.
00411530 8B 13 E8 91 2F FF FF 8B 45 F0 8D 55 F4 E8 2E 62 ..../...E..U...b
00411540 FF FF 8B 55 F4 8B C3 E8 00 35 FF FF EB 05 E8 91 ...U.....5......
00411550 C7 FF FF 33 C0 5A 59 59 64 89 10 68 75 15 41 00 ...3.ZYYd..hu.A.
00411560 8D 45 F0 BA 04 00 00 00 E8 F7 2C FF FF C3 E9 B1 .E........,.....
00411570 26 FF FF EB EB 5E 5B 8B E5 5D C3 90 55 8B EC 83 &....^[..]..U...
00411580 C4 E8 53 56 33 C9 89 4D EC 89 4D E8 8B F2 8B D8 ..SV3..M..M.....
00411590 33 C0 55 68 3B 16 41 00 64 FF 30 64 89 20 8D 45 3.Uh;.A.d.0d. .E
004115A0 F0 50 E8 79 B8 FF FF 33 C0 55 68 19 16 41 00 64 .P.y...3.Uh..A.d
004115B0 FF 30 64 89 20 6A 08 6A 00 68 00 04 00 00 53 8D .0d. j.j.h....S.
004115C0 45 F0 50 A1 08 A9 42 00 8B 00 FF D0 66 8B 13 66 E.P...B.....f..f
004115D0 B9 00 01 E8 B0 CA FF FF 8D 45 EC 50 8D 45 E8 8B .........E.P.E..
004115E0 55 F8 E8 29 34 FF FF 8B 45 E8 B9 FF FF FF 7F BA U..)4...E.......
004115F0 01 00 00 00 E8 03 35 FF FF 8B 55 EC 8B C6 E8 C5 ......5...U.....
00411600 2E FF FF 33 C0 5A 59 59 64 89 10 68 20 16 41 00 ...3.ZYYd..h .A.
00411610 8D 45 F0 E8 14 CE FF FF C3 E9 06 26 FF FF EB F0 .E.........&....
00411620 33 C0 5A 59 59 64 89 10 68 42 16 41 00 8D 45 E8 3.ZYYd..hB.A..E.
00411630 BA 02 00 00 00 E8 DE 32 FF FF C3 E9 E4 25 FF FF .......2.....%..
00411640 EB EB 5E 5B 8B E5 5D C3 55 8B EC 83 C4 F0 53 56 ..^[..].U.....SV
00411650 8B F2 8B D8 8D 45 F0 50 E8 C3 B7 FF FF 33 C0 55 .....E.P.....3.U
00411660 68 9E 16 41 00 64 FF 30 64 89 20 8B D3 8D 45 F0 h..A.d.0d. ...E.
00411670 E8 F3 D0 FF FF 8D 45 F0 FF 15 18 B8 42 00 8D 55 ......E.....B..U
00411680 F0 8B C6 E8 A8 00 00 00 33 C0 5A 59 59 64 89 10 ........3.ZYYd..
00411690 68 A5 16 41 00 8D 45 F0 E8 8F CD FF FF C3 E9 81 h..A..E.........
004116A0 25 FF FF EB F0 5E 5B 8B E5 5D C3 90 55 8B EC 83 %....^[..]..U...
004116B0 C4 E4 53 89 55 FC 8B D8 8B 45 FC 85 C0 74 04 33 ..S.U....E...t.3
004116C0 D2 89 10 8D 55 F4 66 8B 03 E8 1E 17 00 00 88 45 ....U.f........E
004116D0 FB 80 7D FB 00 74 51 8D 45 E4 50 E8 40 B7 FF FF ..}..tQ.E.P.@...
004116E0 33 C0 55 68 21 17 41 00 64 FF 30 64 89 20 68 00 3.Uh!.A.d.0d. h.
004116F0 01 00 00 8B CB 8D 55 E4 8B 45 F4 8B 18 FF 53 1C ......U..E....S.
00411700 8B 45 FC 8B 55 EC E8 89 2B FF FF 33 C0 5A 59 59 .E..U...+..3.ZYY
00411710 64 89 10 68 28 17 41 00 8D 45 E4 E8 0C CD FF FF d..h(.A..E......
00411720 C3 E9 FE 24 FF FF EB F0 8A 45 FB 5B 8B E5 5D C3 ...$.....E.[..].
00411730 55 8B EC B9 0E 00 00 00 6A 00 6A 00 49 75 F9 51 U.......j.j.Iu.Q
00411740 53 56 8B DA 8B F0 33 C0 55 68 5D 1C 41 00 64 FF SV....3.Uh].A.d.
00411750 30 64 89 20 66 8B 03 0F B7 D0 83 FA 14 0F 87 37 0d. f..........7
00411760 02 00 00 FF 24 95 6A 17 41 00 BE 17 41 00 CA 17 ....$.j.A...A...
00411770 41 00 F2 17 41 00 0D 18 41 00 27 18 41 00 48 18 A...A...A.'.A.H.
00411780 41 00 69 18 41 00 86 18 41 00 A3 18 41 00 81 19 A.i.A...A...A...
00411790 41 00 9A 19 41 00 C8 18 41 00 70 19 41 00 81 19 A...A...A.p.A...
004117A0 41 00 9A 19 41 00 9A 19 41 00 E3 18 41 00 FE 18 A...A...A...A...
004117B0 41 00 1A 19 41 00 35 19 41 00 53 19 41 00 8B C6 A...A.5.A.S.A...
004117C0 E8 7B 2A FF FF E9 44 04 00 00 80 3D 14 83 42 00 .{*...D....=..B.
004117D0 00 74 0D 66 BA 00 01 66 B8 01 00 E8 68 C4 FF FF .t.f...f....h...
004117E0 8B C6 8B 15 18 83 42 00 E8 A7 2A FF FF E9 1C 04 ......B...*.....
004117F0 00 00 8D 55 FC 0F BF 43 08 E8 02 62 FF FF 8B 55 ...U...C...b...U
00411800 FC 8B C6 E8 8C 2A FF FF E9 01 04 00 00 8D 55 F8 .....*........U.
00411810 8B 43 08 E8 E8 61 FF FF 8B 55 F8 8B C6 E8 72 2A .C...a...U....r*
00411820 FF FF E9 E7 03 00 00 D9 43 08 83 C4 F4 DB 3C 24 ........C.....<$
00411830 9B 8D 45 F4 E8 FF 75 FF FF 8B 55 F4 8B C6 E8 51 ..E...u...U....Q
00411840 2A FF FF E9 C6 03 00 00 DD 43 08 83 C4 F4 DB 3C *........C.....<
00411850 24 9B 8D 45 F0 E8 DE 75 FF FF 8B 55 F0 8B C6 E8 $..E...u...U....
00411860 30 2A FF FF E9 A5 03 00 00 FF 73 0C FF 73 08 8D 0*........s..s..
00411870 45 EC E8 D1 FB FF FF 8B 55 EC 8B C6 E8 47 2C FF E.......U....G,.
00411880 FF E9 88 03 00 00 FF 73 0C FF 73 08 8D 45 E8 E8 .......s..s..E..
00411890 EC FB FF FF 8B 55 E8 8B C6 E8 2A 2C FF FF E9 6B .....U....*,...k
004118A0 03 00 00 8D 45 E4 50 8B 43 08 B9 FF FF FF 7F BA ....E.P.C.......
004118B0 01 00 00 00 E8 43 32 FF FF 8B 55 E4 8B C6 E8 05 .....C2...U.....
004118C0 2C FF FF E9 46 03 00 00 8D 55 E0 66 8B 43 08 E8 ,...F....U.f.C..
004118D0 E4 FB FF FF 8B 55 E0 8B C6 E8 EA 2B FF FF E9 2B .....U.....+...+
004118E0 03 00 00 8D 55 DC 0F BE 43 08 E8 11 61 FF FF 8B ....U...C...a...
004118F0 55 DC 8B C6 E8 9B 29 FF FF E9 10 03 00 00 8D 55 U.....)........U
00411900 D8 33 C0 8A 43 08 E8 F5 60 FF FF 8B 55 D8 8B C6 .3..C...`...U...
00411910 E8 7F 29 FF FF E9 F4 02 00 00 8D 55 D4 0F B7 43 ..)........U...C
00411920 08 E8 DA 60 FF FF 8B 55 D4 8B C6 E8 64 29 FF FF ...`...U....d)..
00411930 E9 D9 02 00 00 8B 43 08 33 D2 52 50 8D 45 D0 E8 ......C.3.RP.E..
00411940 A8 61 FF FF 8B 55 D0 8B C6 E8 46 29 FF FF E9 BB .a...U....F)....
00411950 02 00 00 FF 73 0C FF 73 08 8D 45 CC E8 8B 61 FF ....s..s..E...a.
00411960 FF 8B 55 CC 8B C6 E8 29 29 FF FF E9 9E 02 00 00 ..U....)).......
00411970 8B 43 08 8B D0 8B C6 E8 B4 FD FF FF E9 8D 02 00 .C..............
00411980 00 8D 55 C8 8B C3 E8 F1 FB FF FF 8B 55 C8 8B C6 ..U.........U...
00411990 E8 FF 28 FF FF E9 74 02 00 00 8B D0 66 81 EA 00 ..(...t.....f...
004119A0 01 74 07 66 FF CA 74 11 EB 28 8B C6 8B 53 08 E8 .t.f..t..(...S..
004119B0 E0 28 FF FF E9 55 02 00 00 8D 55 C4 8B C3 E8 85 .(...U....U.....
004119C0 FC FF FF 8B 55 C4 8B C6 E8 C7 28 FF FF E9 3C 02 ....U.....(...<.
004119D0 00 00 F6 C4 40 0F 84 0B 02 00 00 0F B7 C0 25 FF ....@.........%.
004119E0 BF FF FF 83 F8 14 0F 87 E4 01 00 00 FF 24 85 F3 .............$..
004119F0 19 41 00 D0 1B 41 00 D0 1B 41 00 47 1A 41 00 64 .A...A...A.G.A.d
00411A00 1A 41 00 80 1A 41 00 A3 1A 41 00 C6 1A 41 00 E5 .A...A...A...A..
00411A10 1A 41 00 04 1B 41 00 D0 1B 41 00 D0 1B 41 00 15 .A...A...A...A..
00411A20 1B 41 00 C2 1B 41 00 D0 1B 41 00 D0 1B 41 00 D0 .A...A...A...A..
00411A30 1B 41 00 32 1B 41 00 4F 1B 41 00 6C 1B 41 00 89 .A.2.A.O.A.l.A..
00411A40 1B 41 00 A6 1B 41 00 8D 55 C0 8B 43 08 0F BF 00 .A...A..U..C....
00411A50 E8 AB 5F FF FF 8B 55 C0 8B C6 E8 35 28 FF FF E9 .._...U....5(...
00411A60 AA 01 00 00 8D 55 BC 8B 43 08 8B 00 E8 8F 5F FF .....U..C....._.
00411A70 FF 8B 55 BC 8B C6 E8 19 28 FF FF E9 8E 01 00 00 ..U.....(.......
00411A80 8B 43 08 D9 00 83 C4 F4 DB 3C 24 9B 8D 45 B8 E8 .C.......<$..E..
00411A90 A4 73 FF FF 8B 55 B8 8B C6 E8 F6 27 FF FF E9 6B .s...U.....'...k
00411AA0 01 00 00 8B 43 08 DD 00 83 C4 F4 DB 3C 24 9B 8D ....C.......<$..
00411AB0 45 B4 E8 81 73 FF FF 8B 55 B4 8B C6 E8 D3 27 FF E...s...U.....'.
00411AC0 FF E9 48 01 00 00 8B 43 08 FF 70 04 FF 30 8D 45 ..H....C..p..0.E
00411AD0 B0 E8 72 F9 FF FF 8B 55 B0 8B C6 E8 E8 29 FF FF ..r....U.....)..
00411AE0 E9 29 01 00 00 8B 43 08 FF 70 04 FF 30 8D 45 AC .)....C..p..0.E.
00411AF0 E8 8B F9 FF FF 8B 55 AC 8B C6 E8 C9 29 FF FF E9 ......U.....)...
00411B00 0A 01 00 00 8B C6 8B 53 08 8B 12 E8 58 29 FF FF .......S....X)..
00411B10 E9 F9 00 00 00 8D 55 A8 8B 43 08 66 8B 00 E8 95 ......U..C.f....
00411B20 F9 FF FF 8B 55 A8 8B C6 E8 9B 29 FF FF E9 DC 00 ....U.....).....
00411B30 00 00 8D 55 A4 8B 43 08 0F BE 00 E8 C0 5E FF FF ...U..C......^..
00411B40 8B 55 A4 8B C6 E8 4A 27 FF FF E9 BF 00 00 00 8D .U....J'........
00411B50 55 A0 8B 43 08 0F B6 00 E8 A3 5E FF FF 8B 55 A0 U..C......^...U.
00411B60 8B C6 E8 2D 27 FF FF E9 A2 00 00 00 8D 55 9C 8B ...-'........U..
00411B70 43 08 0F B7 00 E8 86 5E FF FF 8B 55 9C 8B C6 E8 C......^...U....
00411B80 10 27 FF FF E9 85 00 00 00 8B 43 08 8B 00 33 D2 .'........C...3.
00411B90 52 50 8D 45 98 E8 52 5F FF FF 8B 55 98 8B C6 E8 RP.E..R_...U....
00411BA0 F0 26 FF FF EB 68 8B 43 08 FF 70 04 FF 30 8D 45 .&...h.C..p..0.E
00411BB0 94 E8 36 5F FF FF 8B 55 94 8B C6 E8 D4 26 FF FF ..6_...U.....&..
00411BC0 EB 4C 8B 43 08 8B D0 8B C6 E8 62 FB FF FF EB 3E .L.C......b....>
00411BD0 8D 55 90 8B C3 E8 A2 F9 FF FF 8B 55 90 8B C6 E8 .U.........U....
00411BE0 B0 26 FF FF EB 28 8B C6 E8 53 26 FF FF 8B D0 8B .&...(...S&.....
00411BF0 C3 E8 B6 FA FF FF 84 C0 75 14 8D 55 8C 8B C3 E8 ........u..U....
00411C00 78 F9 FF FF 8B 55 8C 8B C6 E8 86 26 FF FF 33 C0 x....U.....&..3.
00411C10 5A 59 59 64 89 10 68 64 1C 41 00 8D 45 8C BA 07 ZYYd..hd.A..E...
00411C20 00 00 00 E8 3C 26 FF FF 8D 45 A8 BA 03 00 00 00 ....<&...E......
00411C30 E8 E3 2C FF FF 8D 45 B4 BA 0B 00 00 00 E8 22 26 ..,...E......."&
00411C40 FF FF 8D 45 E0 BA 04 00 00 00 E8 C9 2C FF FF 8D ...E........,...
00411C50 45 F0 BA 04 00 00 00 E8 08 26 FF FF C3 E9 C2 1F E........&......
00411C60 FF FF EB B7 5E 5B 8B E5 5D C3 8B C0 55 8B EC 83 ....^[..]...U...
00411C70 C4 EC 53 56 33 C9 89 4D EC 8B F2 8B D8 33 C0 55 ..SV3..M.....3.U
00411C80 68 16 1D 41 00 64 FF 30 64 89 20 8D 45 F0 50 E8 h..A.d.0d. .E.P.
00411C90 8C B1 FF FF 33 C0 55 68 F9 1C 41 00 64 FF 30 64 ....3.Uh..A.d.0d
00411CA0 89 20 6A 08 6A 00 68 00 04 00 00 53 8D 45 F0 50 . j.j.h....S.E.P
00411CB0 A1 08 A9 42 00 8B 00 FF D0 66 8B 13 66 B9 08 00 ...B.....f..f...
00411CC0 E8 C3 C3 FF FF 56 8D 45 EC 8B 55 F8 E8 3F 2D FF .....V.E..U..?-.
00411CD0 FF 8B 45 EC B9 FF FF FF 7F BA 01 00 00 00 E8 19 ..E.............
00411CE0 2E FF FF 33 C0 5A 59 59 64 89 10 68 00 1D 41 00 ...3.ZYYd..h..A.
00411CF0 8D 45 F0 E8 34 C7 FF FF C3 E9 26 1F FF FF EB F0 .E..4.....&.....
00411D00 33 C0 5A 59 59 64 89 10 68 1D 1D 41 00 8D 45 EC 3.ZYYd..h..A..E.
00411D10 E8 EB 2B FF FF C3 E9 09 1F FF FF EB F0 5E 5B 8B ..+..........^[.
00411D20 E5 5D C3 90 55 8B EC 83 C4 F0 53 56 8B F2 8B D8 .]..U.....SV....
00411D30 8D 45 F0 50 E8 E7 B0 FF FF 33 C0 55 68 7A 1D 41 .E.P.....3.Uhz.A
00411D40 00 64 FF 30 64 89 20 8B D3 8D 45 F0 E8 17 CA FF .d.0d. ...E.....
00411D50 FF 8D 45 F0 FF 15 18 B8 42 00 8D 55 F0 8B C6 E8 ..E.....B..U....
00411D60 EC 00 00 00 33 C0 5A 59 59 64 89 10 68 81 1D 41 ....3.ZYYd..h..A
00411D70 00 8D 45 F0 E8 B3 C6 FF FF C3 E9 A5 1E FF FF EB ..E.............
00411D80 F0 5E 5B 8B E5 5D C3 90 55 8B EC 83 C4 E0 53 33 .^[..]..U.....S3
00411D90 C9 89 4D E0 89 55 FC 8B D8 8B 45 FC 85 C0 74 04 ..M..U....E...t.
00411DA0 33 D2 89 10 33 C0 55 68 40 1E 41 00 64 FF 30 64 3...3.Uh@.A.d.0d
00411DB0 89 20 8D 55 F4 66 8B 03 E8 2F 10 00 00 88 45 FB . .U.f.../....E.
00411DC0 80 7D FB 00 74 64 8D 45 E4 50 E8 51 B0 FF FF 33 .}..td.E.P.Q...3
00411DD0 C0 55 68 23 1E 41 00 64 FF 30 64 89 20 6A 08 8B .Uh#.A.d.0d. j..
00411DE0 CB 8D 55 E4 8B 45 F4 8B 18 FF 53 1C 8B 45 FC 50 ..U..E....S..E.P
00411DF0 8D 45 E0 8B 55 EC E8 15 2C FF FF 8B 45 E0 B9 FF .E..U...,...E...
00411E00 FF FF 7F BA 01 00 00 00 E8 EF 2C FF FF 33 C0 5A ..........,..3.Z
00411E10 59 59 64 89 10 68 2A 1E 41 00 8D 45 E4 E8 0A C6 YYd..h*.A..E....
00411E20 FF FF C3 E9 FC 1D FF FF EB F0 33 C0 5A 59 59 64 ..........3.ZYYd
00411E30 89 10 68 47 1E 41 00 8D 45 E0 E8 C1 2A FF FF C3 ..hG.A..E...*...
00411E40 E9 DF 1D FF FF EB F0 8A 45 FB 5B 8B E5 5D C3 90 ........E.[..]..
00411E50 55 8B EC B9 0E 00 00 00 6A 00 6A 00 49 75 F9 53 U.......j.j.Iu.S
00411E60 56 8B DA 8B F0 33 C0 55 68 96 23 41 00 64 FF 30 V....3.Uh.#A.d.0
00411E70 64 89 20 66 8B 03 0F B7 D0 83 FA 14 0F 87 2A 02 d. f..........*.
00411E80 00 00 FF 24 95 89 1E 41 00 DD 1E 41 00 E9 1E 41 ...$...A...A...A
00411E90 00 11 1F 41 00 2C 1F 41 00 46 1F 41 00 67 1F 41 ...A.,.A.F.A.g.A
00411EA0 00 88 1F 41 00 A5 1F 41 00 C2 1F 41 00 93 20 41 ...A...A...A.. A
00411EB0 00 AC 20 41 00 DA 1F 41 00 82 20 41 00 93 20 41 .. A...A.. A.. A
00411EC0 00 AC 20 41 00 AC 20 41 00 F5 1F 41 00 10 20 41 .. A.. A...A.. A
00411ED0 00 2C 20 41 00 47 20 41 00 65 20 41 00 8B C6 E8 ., A.G A.e A....
00411EE0 1C 2A FF FF E9 37 04 00 00 80 3D 14 83 42 00 00 .*...7....=..B..
00411EF0 74 0D 66 BA 08 00 66 B8 01 00 E8 49 BD FF FF 8B t.f...f....I....
00411F00 C6 8B 15 18 83 42 00 E8 40 2B FF FF E9 0F 04 00 .....B..@+......
00411F10 00 8D 55 FC 0F BF 43 08 E8 E3 5A FF FF 8B 55 FC ..U...C...Z...U.
00411F20 8B C6 E8 25 2B FF FF E9 F4 03 00 00 8D 55 F8 8B ...%+........U..
00411F30 43 08 E8 C9 5A FF FF 8B 55 F8 8B C6 E8 0B 2B FF C...Z...U.....+.
00411F40 FF E9 DA 03 00 00 D9 43 08 83 C4 F4 DB 3C 24 9B .......C.....<$.
00411F50 8D 45 F4 E8 E0 6E FF FF 8B 55 F4 8B C6 E8 EA 2A .E...n...U.....*
00411F60 FF FF E9 B9 03 00 00 DD 43 08 83 C4 F4 DB 3C 24 ........C.....<$
00411F70 9B 8D 45 F0 E8 BF 6E FF FF 8B 55 F0 8B C6 E8 C9 ..E...n...U.....
00411F80 2A FF FF E9 98 03 00 00 FF 73 0C FF 73 08 8D 45 *........s..s..E
00411F90 EC E8 B2 F4 FF FF 8B 55 EC 8B C6 E8 9C 29 FF FF .......U.....)..
00411FA0 E9 7B 03 00 00 FF 73 0C FF 73 08 8D 45 E8 E8 CD .{....s..s..E...
00411FB0 F4 FF FF 8B 55 E8 8B C6 E8 7F 29 FF FF E9 5E 03 ....U.....)...^.
00411FC0 00 00 56 8B 43 08 B9 FF FF FF 7F BA 01 00 00 00 ..V.C...........
00411FD0 E8 27 2B FF FF E9 46 03 00 00 8D 55 E4 66 8B 43 .'+...F....U.f.C
00411FE0 08 E8 D2 F4 FF FF 8B 55 E4 8B C6 E8 4C 29 FF FF .......U....L)..
00411FF0 E9 2B 03 00 00 8D 55 E0 0F BE 43 08 E8 FF 59 FF .+....U...C...Y.
00412000 FF 8B 55 E0 8B C6 E8 41 2A FF FF E9 10 03 00 00 ..U....A*.......
00412010 8D 55 DC 33 C0 8A 43 08 E8 E3 59 FF FF 8B 55 DC .U.3..C...Y...U.
00412020 8B C6 E8 25 2A FF FF E9 F4 02 00 00 8D 55 D8 0F ...%*........U..
00412030 B7 43 08 E8 C8 59 FF FF 8B 55 D8 8B C6 E8 0A 2A .C...Y...U.....*
00412040 FF FF E9 D9 02 00 00 8B 43 08 33 D2 52 50 8D 45 ........C.3.RP.E
00412050 D4 E8 96 5A FF FF 8B 55 D4 8B C6 E8 EC 29 FF FF ...Z...U.....)..
00412060 E9 BB 02 00 00 FF 73 0C FF 73 08 8D 45 D0 E8 79 ......s..s..E..y
00412070 5A FF FF 8B 55 D0 8B C6 E8 CF 29 FF FF E9 9E 02 Z...U.....).....
00412080 00 00 8B 43 08 8B D0 8B C6 E8 C2 FD FF FF E9 8D ...C............
00412090 02 00 00 8D 55 CC 8B C3 E8 CF FB FF FF 8B 55 CC ....U.........U.
004120A0 8B C6 E8 95 28 FF FF E9 74 02 00 00 8B D0 66 81 ....(...t.....f.
004120B0 EA 00 01 74 07 66 FF CA 74 11 EB 28 8B C6 8B 53 ...t.f..t..(...S
004120C0 08 E8 86 29 FF FF E9 55 02 00 00 8D 55 C8 8B C3 ...)...U....U...
004120D0 E8 4F FC FF FF 8B 55 C8 8B C6 E8 5D 28 FF FF E9 .O....U....](...
004120E0 3C 02 00 00 F6 C4 40 0F 84 0B 02 00 00 0F B7 C0 <.....@.........
004120F0 25 FF BF FF FF 83 F8 14 0F 87 E4 01 00 00 FF 24 %..............$
00412100 85 05 21 41 00 E2 22 41 00 E2 22 41 00 59 21 41 ..!A.."A.."A.Y!A
00412110 00 76 21 41 00 92 21 41 00 B5 21 41 00 D8 21 41 .v!A..!A..!A..!A
00412120 00 F7 21 41 00 16 22 41 00 E2 22 41 00 E2 22 41 ..!A.."A.."A.."A
00412130 00 27 22 41 00 D4 22 41 00 E2 22 41 00 E2 22 41 .'"A.."A.."A.."A
00412140 00 E2 22 41 00 44 22 41 00 61 22 41 00 7E 22 41 .."A.D"A.a"A.~"A
00412150 00 9B 22 41 00 B8 22 41 00 8D 55 C4 8B 43 08 0F .."A.."A..U..C..
00412160 BF 00 E8 99 58 FF FF 8B 55 C4 8B C6 E8 DB 28 FF ....X...U.....(.
00412170 FF E9 AA 01 00 00 8D 55 C0 8B 43 08 8B 00 E8 7D .......U..C....}
00412180 58 FF FF 8B 55 C0 8B C6 E8 BF 28 FF FF E9 8E 01 X...U.....(.....
00412190 00 00 8B 43 08 D9 00 83 C4 F4 DB 3C 24 9B 8D 45 ...C.......<$..E
004121A0 BC E8 92 6C FF FF 8B 55 BC 8B C6 E8 9C 28 FF FF ...l...U.....(..
004121B0 E9 6B 01 00 00 8B 43 08 DD 00 83 C4 F4 DB 3C 24 .k....C.......<$
004121C0 9B 8D 45 B8 E8 6F 6C FF FF 8B 55 B8 8B C6 E8 79 ..E..ol...U....y
004121D0 28 FF FF E9 48 01 00 00 8B 43 08 FF 70 04 FF 30 (...H....C..p..0
004121E0 8D 45 B4 E8 60 F2 FF FF 8B 55 B4 8B C6 E8 4A 27 .E..`....U....J'
004121F0 FF FF E9 29 01 00 00 8B 43 08 FF 70 04 FF 30 8D ...)....C..p..0.
00412200 45 B0 E8 79 F2 FF FF 8B 55 B0 8B C6 E8 2B 27 FF E..y....U....+'.
00412210 FF E9 0A 01 00 00 8B C6 8B 53 08 8B 12 E8 EE 27 .........S.....'
00412220 FF FF E9 F9 00 00 00 8D 55 AC 8B 43 08 66 8B 00 ........U..C.f..
00412230 E8 83 F2 FF FF 8B 55 AC 8B C6 E8 FD 26 FF FF E9 ......U.....&...
00412240 DC 00 00 00 8D 55 A8 8B 43 08 0F BE 00 E8 AE 57 .....U..C......W
00412250 FF FF 8B 55 A8 8B C6 E8 F0 27 FF FF E9 BF 00 00 ...U.....'......
00412260 00 8D 55 A4 8B 43 08 0F B6 00 E8 91 57 FF FF 8B ..U..C......W...
00412270 55 A4 8B C6 E8 D3 27 FF FF E9 A2 00 00 00 8D 55 U.....'........U
00412280 A0 8B 43 08 0F B7 00 E8 74 57 FF FF 8B 55 A0 8B ..C.....tW...U..
00412290 C6 E8 B6 27 FF FF E9 85 00 00 00 8B 43 08 8B 00 ...'........C...
004122A0 33 D2 52 50 8D 45 9C E8 40 58 FF FF 8B 55 9C 8B 3.RP.E..@X...U..
004122B0 C6 E8 96 27 FF FF EB 68 8B 43 08 FF 70 04 FF 30 ...'...h.C..p..0
004122C0 8D 45 98 E8 24 58 FF FF 8B 55 98 8B C6 E8 7A 27 .E..$X...U....z'
004122D0 FF FF EB 4C 8B 43 08 8B D0 8B C6 E8 70 FB FF FF ...L.C......p...
004122E0 EB 3E 8D 55 94 8B C3 E8 80 F9 FF FF 8B 55 94 8B .>.U.........U..
004122F0 C6 E8 46 26 FF FF EB 28 8B C6 E8 01 26 FF FF 8B ..F&...(....&...
00412300 D0 8B C3 E8 80 FA FF FF 84 C0 75 14 8D 55 90 8B ..........u..U..
00412310 C3 E8 56 F9 FF FF 8B 55 90 8B C6 E8 1C 26 FF FF ..V....U.....&..
00412320 33 C0 5A 59 59 64 89 10 68 9D 23 41 00 8D 45 90 3.ZYYd..h.#A..E.
00412330 BA 02 00 00 00 E8 DE 25 FF FF 8D 45 98 BA 05 00 .......%...E....
00412340 00 00 E8 1D 1F FF FF 8D 45 AC BA 03 00 00 00 E8 ........E.......
00412350 C4 25 FF FF 8D 45 B8 BA 04 00 00 00 E8 03 1F FF .%...E..........
00412360 FF 8D 45 C8 BA 02 00 00 00 E8 AA 25 FF FF 8D 45 ..E........%...E
00412370 D0 BA 05 00 00 00 E8 E9 1E FF FF 8D 45 E4 BA 03 ............E...
00412380 00 00 00 E8 90 25 FF FF 8D 45 F0 BA 04 00 00 00 .....%...E......
00412390 E8 CF 1E FF FF C3 E9 89 18 FF FF EB 90 5E 5B 8B .............^[.
004123A0 E5 5D C3 90 55 8B EC 83 C4 F0 53 56 8B F2 8B D8 .]..U.....SV....
004123B0 8D 45 F0 50 E8 67 AA FF FF 33 C0 55 68 0E 24 41 .E.P.g...3.Uh.$A
004123C0 00 64 FF 30 64 89 20 8B D6 8D 45 F0 E8 97 C3 FF .d.0d. ...E.....
004123D0 FF 8D 45 F0 FF 15 18 B8 42 00 66 83 7D F0 0D 74 ..E.....B.f.}..t
004123E0 0D 66 BA 0D 00 66 B8 01 01 E8 5A B8 FF FF 8B C3 .f...f....Z.....
004123F0 8B 55 F8 E8 E8 37 FF FF 33 C0 5A 59 59 64 89 10 .U...7..3.ZYYd..
00412400 68 15 24 41 00 8D 45 F0 E8 1F C0 FF FF C3 E9 11 h.$A..E.........
00412410 18 FF FF EB F0 5E 5B 8B E5 5D C3 90 53 56 51 8B .....^[..]..SVQ.
00412420 DA 8B F0 0F B7 03 83 F8 0D 7F 10 74 4B 83 E8 01 ...........tK...
00412430 72 1E 74 25 83 E8 08 74 3F EB 62 2D 01 01 00 00 r.t%...t?.b-....
00412440 74 50 2D 08 3F 00 00 74 3B 83 E8 04 74 36 EB 4D tP-.?..t;...t6.M
00412450 8B C6 E8 71 37 FF FF EB 78 80 3D 14 83 42 00 00 ...q7...x.=..B..
00412460 74 0D 66 BA 0D 00 66 B8 01 00 E8 D9 B7 FF FF 8B t.f...f.........
00412470 C6 E8 52 37 FF FF EB 59 8B C6 8B 53 08 E8 5E 37 ..R7...Y...S..^7
00412480 FF FF EB 4D 8B C6 8B 53 08 8B 12 E8 50 37 FF FF ...M...S....P7..
00412490 EB 3F 8B D3 8B C6 E8 09 FF FF FF EB 34 8B D4 66 .?..........4..f
004124A0 8B 03 E8 45 09 00 00 84 C0 74 1A 8B C6 E8 16 37 ...E.....t.....7
004124B0 FF FF 8B C8 BA D8 24 41 00 8B 04 24 E8 13 13 FF ......$A...$....
004124C0 FF 84 C0 75 0C 66 8B 03 66 BA 0D 00 E8 77 B7 FF ...u.f..f....w..
004124D0 FF 5A 5E 5B C3 00 00 00 00 00 00 00 00 00 00 00 .Z^[............
004124E0 C0 00 00 00 00 00 00 46 53 56 51 8B DA 8B F0 66 .......FSVQ....f
004124F0 8B 03 66 83 E8 01 72 10 74 17 66 83 E8 08 74 30 ..f...r.t.f...t0
00412500 66 2D 00 40 74 36 EB 42 8B C6 E8 B9 36 FF FF EB f-.@t6.B....6...
00412510 6D 80 3D 14 83 42 00 00 74 0D 66 BA 09 00 66 B8 m.=..B..t.f...f.
00412520 01 00 E8 21 B7 FF FF 8B C6 E8 9A 36 FF FF EB 4E ...!.......6...N
00412530 8B C6 8B 53 08 E8 A6 36 FF FF EB 42 8B C6 8B 53 ...S...6...B...S
00412540 08 8B 12 E8 98 36 FF FF EB 34 8B D4 66 8B 03 E8 .....6...4..f...
00412550 98 08 00 00 84 C0 74 1A 8B C6 E8 69 36 FF FF 8B ......t....i6...
00412560 C8 BA 84 25 41 00 8B 04 24 E8 66 12 FF FF 84 C0 ...%A...$.f.....
00412570 75 0C 66 8B 03 66 BA 09 00 E8 CA B6 FF FF 5A 5E u.f..f........Z^
00412580 5B C3 00 00 00 04 02 00 00 00 00 00 C0 00 00 00 [...............
00412590 00 00 00 46 53 56 8B F2 8B D8 66 F7 03 E8 BF 74 ...FSV....f....t
004125A0 07 8B C3 E8 08 BE FF FF 66 C7 03 03 00 89 73 08 ........f.....s.
004125B0 5E 5B C3 90 53 56 8B DA 8B F0 66 F7 06 E8 BF 74 ^[..SV....f....t
004125C0 07 8B C6 E8 E8 BD FF FF 66 C7 06 11 00 88 5E 08 ........f.....^.
004125D0 5E 5B C3 90 53 56 8B F2 8B D8 66 F7 03 E8 BF 74 ^[..SV....f....t
004125E0 07 8B C3 E8 C8 BD FF FF 66 C7 03 12 00 66 89 73 ........f....f.s
004125F0 08 5E 5B C3 53 56 8B F2 8B D8 66 F7 03 E8 BF 74 .^[.SV....f....t
00412600 07 8B C3 E8 A8 BD FF FF 66 C7 03 13 00 89 73 08 ........f.....s.
00412610 5E 5B C3 90 53 56 8B DA 8B F0 66 F7 06 E8 BF 74 ^[..SV....f....t
00412620 07 8B C6 E8 88 BD FF FF 66 C7 06 10 00 88 5E 08 ........f.....^.
00412630 5E 5B C3 90 53 56 8B F2 8B D8 66 F7 03 E8 BF 74 ^[..SV....f....t
00412640 07 8B C3 E8 68 BD FF FF 66 C7 03 02 00 66 89 73 ....h...f....f.s
00412650 08 5E 5B C3 55 8B EC 53 8B D8 66 F7 03 E8 BF 74 .^[.U..S..f....t
00412660 07 8B C3 E8 48 BD FF FF 66 C7 03 14 00 8B 45 08 ....H...f.....E.
00412670 89 43 08 8B 45 0C 89 43 0C 5B 5D C2 08 00 8B C0 .C..E..C.[].....
00412680 55 8B EC 53 8B D8 66 F7 03 E8 BF 74 07 8B C3 E8 U..S..f....t....
00412690 1C BD FF FF 8B 45 08 89 43 08 66 C7 03 04 00 5B .....E..C.f....[
004126A0 5D C2 04 00 55 8B EC 53 8B D8 66 F7 03 E8 BF 74 ]...U..S..f....t
004126B0 07 8B C3 E8 F8 BC FF FF 8B 45 08 89 43 08 8B 45 .........E..C..E
004126C0 0C 89 43 0C 66 C7 03 05 00 5B 5D C2 08 00 8B C0 ..C.f....[].....
004126D0 55 8B EC 53 8B D8 66 F7 03 E8 BF 74 07 8B C3 E8 U..S..f....t....
004126E0 CC BC FF FF 8B 45 08 89 43 08 8B 45 0C 89 43 0C .....E..C..E..C.
004126F0 66 C7 03 06 00 5B 5D C2 08 00 8B C0 55 8B EC 53 f....[].....U..S
00412700 8B D8 66 F7 03 E8 BF 74 07 8B C3 E8 A0 BC FF FF ..f....t........
00412710 8B 45 08 89 43 08 8B 45 0C 89 43 0C 66 C7 03 07 .E..C..E..C.f...
00412720 00 5B 5D C2 08 00 8B C0 53 56 8B DA 8B F0 66 F7 .[].....SV....f.
00412730 06 E8 BF 74 07 8B C6 E8 74 BC FF FF 66 C7 06 0B ...t....t...f...
00412740 00 80 FB 01 F5 1B C0 66 89 46 08 5E 5B C3 8B C0 .......f.F.^[...
00412750 53 56 8B F2 8B D8 66 F7 03 E8 BF 74 07 8B C3 E8 SV....f....t....
00412760 4C BC FF FF 33 C0 89 43 08 66 C7 03 00 01 8D 43 L...3..C.f.....C
00412770 08 8B D6 E8 1C 1B FF FF 5E 5B C3 90 53 56 8B F2 ........^[..SV..
00412780 8B D8 66 F7 03 E8 BF 74 07 8B C3 E8 20 BC FF FF ..f....t.... ...
00412790 33 C0 89 43 08 66 C7 03 08 00 8D 43 08 50 B9 FF 3..C.f.....C.P..
004127A0 FF FF 7F BA 01 00 00 00 8B C6 E8 4D 23 FF FF 5E ...........M#..^
004127B0 5B C3 8B C0 53 56 8B F2 8B D8 66 F7 03 E8 BF 74 [...SV....f....t
004127C0 07 8B C3 E8 E8 BB FF FF 33 C0 89 43 08 66 C7 03 ........3..C.f..
004127D0 0D 00 8D 43 08 8B D6 E8 04 34 FF FF 5E 5B C3 90 ...C.....4..^[..
004127E0 53 56 8B F2 8B D8 66 F7 03 E8 BF 74 07 8B C3 E8 SV....f....t....
004127F0 BC BB FF FF 33 C0 89 43 08 66 C7 03 09 00 8D 43 ....3..C.f.....C
00412800 08 8B D6 E8 D8 33 FF FF 5E 5B C3 90 66 83 38 08 .....3..^[..f.8.
00412810 72 1A FF 70 0C FF 70 08 FF 70 04 FF 30 66 C7 00 r..p..p..p..0f..
00412820 00 00 89 E2 E8 3F BF FF FF 83 C4 10 C3 8D 40 00 .....?........@.
00412830 FF FF FF FF 05 00 00 00 45 6D 70 74 79 00 00 00 ........Empty...
00412840 FF FF FF FF 04 00 00 00 4E 75 6C 6C 00 00 00 00 ........Null....
00412850 FF FF FF FF 08 00 00 00 53 6D 61 6C 6C 69 6E 74 ........Smallint
00412860 00 00 00 00 FF FF FF FF 07 00 00 00 49 6E 74 65 ............Inte
00412870 67 65 72 00 FF FF FF FF 06 00 00 00 53 69 6E 67 ger.........Sing
00412880 6C 65 00 00 FF FF FF FF 06 00 00 00 44 6F 75 62 le..........Doub
00412890 6C 65 00 00 FF FF FF FF 08 00 00 00 43 75 72 72 le..........Curr
004128A0 65 6E 63 79 00 00 00 00 FF FF FF FF 04 00 00 00 ency............
004128B0 44 61 74 65 00 00 00 00 FF FF FF FF 06 00 00 00 Date............
004128C0 4F 6C 65 53 74 72 00 00 FF FF FF FF 08 00 00 00 OleStr..........
004128D0 44 69 73 70 61 74 63 68 00 00 00 00 FF FF FF FF Dispatch........
004128E0 05 00 00 00 45 72 72 6F 72 00 00 00 FF FF FF FF ....Error.......
004128F0 07 00 00 00 42 6F 6F 6C 65 61 6E 00 FF FF FF FF ....Boolean.....
00412900 07 00 00 00 56 61 72 69 61 6E 74 00 FF FF FF FF ....Variant.....
00412910 07 00 00 00 55 6E 6B 6E 6F 77 6E 00 FF FF FF FF ....Unknown.....
00412920 07 00 00 00 44 65 63 69 6D 61 6C 00 FF FF FF FF ....Decimal.....
00412930 03 00 00 00 24 30 46 00 FF FF FF FF 08 00 00 00 ....$0F.........
00412940 53 68 6F 72 74 49 6E 74 00 00 00 00 FF FF FF FF ShortInt........
00412950 04 00 00 00 42 79 74 65 00 00 00 00 FF FF FF FF ....Byte........
00412960 04 00 00 00 57 6F 72 64 00 00 00 00 FF FF FF FF ....Word........
00412970 08 00 00 00 4C 6F 6E 67 57 6F 72 64 00 00 00 00 ....LongWord....
00412980 FF FF FF FF 05 00 00 00 49 6E 74 36 34 00 00 00 ........Int64...
00412990 55 8B EC 81 C4 F8 FD FF FF 53 56 57 33 C9 89 8D U........SVW3...
004129A0 F8 FD FF FF 8B F2 8B D8 33 C0 55 68 B6 2A 41 00 ........3.Uh.*A.
004129B0 64 FF 30 64 89 20 8B FB 66 81 E7 FF 0F 66 83 FF d.0d. ..f....f..
004129C0 14 77 16 8B C6 0F B7 D7 8B 14 95 24 83 42 00 E8 .w.........$.B..
004129D0 C0 18 FF FF E9 9E 00 00 00 66 81 FB 00 01 75 11 .........f....u.
004129E0 8B C6 BA CC 2A 41 00 E8 A8 18 FF FF E9 86 00 00 ....*A..........
004129F0 00 66 81 FB 01 01 75 0E 8B C6 BA DC 2A 41 00 E8 .f....u.....*A..
00412A00 90 18 FF FF EB 71 8D 55 FC 8B C3 E8 DC 03 00 00 .....q.U........
00412A10 84 C0 74 3B 8D 85 FC FE FF FF 50 8D 95 FC FD FF ..t;......P.....
00412A20 FF 8B 45 FC 8B 00 E8 6D 0C FF FF 8D 85 FC FD FF ..E....m........
00412A30 FF B9 FF FF FF 7F BA 02 00 00 00 E8 78 01 FF FF ............x...
00412A40 8D 95 FC FE FF FF 8B C6 E8 57 1A FF FF EB 28 8D .........W....(.
00412A50 8D F8 FD FF FF 0F B7 C7 BA 04 00 00 00 E8 B2 50 ...............P
00412A60 FF FF 8B 8D F8 FD FF FF 8B 15 70 A9 42 00 8B 12 ..........p.B...
00412A70 8B C6 E8 D5 1A FF FF F6 C7 20 74 0E 8B 0E 8B C6 ......... t.....
00412A80 BA E8 2A 41 00 E8 C2 1A FF FF F6 C7 40 74 0E 8B ..*A........@t..
00412A90 0E 8B C6 BA F8 2A 41 00 E8 AF 1A FF FF 33 C0 5A .....*A......3.Z
00412AA0 59 59 64 89 10 68 BD 2A 41 00 8D 85 F8 FD FF FF YYd..h.*A.......
00412AB0 E8 8B 17 FF FF C3 E9 69 11 FF FF EB ED 5F 5E 5B .......i....._^[
00412AC0 8B E5 5D C3 FF FF FF FF 06 00 00 00 53 74 72 69 ..].........Stri
00412AD0 6E 67 00 00 FF FF FF FF 03 00 00 00 41 6E 79 00 ng..........Any.
00412AE0 FF FF FF FF 06 00 00 00 41 72 72 61 79 20 00 00 ........Array ..
00412AF0 FF FF FF FF 06 00 00 00 42 79 52 65 66 20 00 00 ........ByRef ..
00412B00 53 56 8B F2 8B D8 8B C3 E8 1F B9 FF FF 66 C7 03 SV...........f..
00412B10 0A 00 89 73 08 5E 5B C3 BA 04 00 02 80 E8 DE FF ...s.^[.........
00412B20 FF FF C3 90 28 2B 41 00 11 03 2E 30 32 04 00 00 ....(+A....02...
00412B30 00 00 00 00 00 FF FF FF FF 08 D7 40 00 08 56 61 ...........@..Va
00412B40 72 69 61 6E 74 73 8B C0 55 8B EC 53 56 BE 24 B8 riants..U..SV.$.
00412B50 42 00 68 28 B8 42 00 E8 BC 38 FF FF 33 D2 55 68 B.h(.B...8..3.Uh
00412B60 A9 2B 41 00 64 FF 32 64 89 22 8B 06 E8 23 27 FF .+A.d.2d."...#'.
00412B70 FF 8B D8 4B 83 FB 00 7C 18 8B 06 8B 04 98 3B 05 ...K...|......;.
00412B80 20 83 42 00 74 05 E8 95 0B FF FF 4B 83 FB FF 75  .B.t......K...u
00412B90 E8 33 C0 5A 59 59 64 89 10 68 B0 2B 41 00 68 28 .3.ZYYd..h.+A.h(
00412BA0 B8 42 00 E8 90 39 FF FF C3 E9 76 10 FF FF EB EE .B...9....v.....
00412BB0 5E 5B 5D C3 55 8B EC E8 B8 01 00 00 5D C2 04 00 ^[].U.......]...
00412BC0 53 56 57 51 8B F1 8B FA 8B D8 8B D4 66 8B 06 E8 SVWQ........f...
00412BD0 18 02 00 00 84 C0 74 14 66 8B 43 04 50 8B CE 8B ......t.f.C.P...
00412BE0 D7 8B 44 24 04 8B 18 FF 53 1C EB 07 8B C3 E8 79 ..D$....S......y
00412BF0 01 00 00 5A 5F 5E 5B C3 55 8B EC 83 C4 F8 53 56 ...Z_^[.U.....SV
00412C00 57 8B F1 89 55 FC 8B D8 8B 7D 08 66 3B 7B 04 74 W...U....}.f;{.t
00412C10 1F 8D 55 F8 66 8B 06 E8 D0 01 00 00 84 C0 74 10 ..U.f.........t.
00412C20 57 8B CE 8B 55 FC 8B 45 F8 8B 18 FF 53 1C EB 07 W...U..E....S...
00412C30 8B C3 E8 35 01 00 00 5F 5E 5B 59 59 5D C2 04 00 ...5..._^[YY]...
00412C40 55 8B EC E8 2C 01 00 00 5D C2 04 00 55 8B EC 51 U...,...]...U..Q
00412C50 53 56 57 8B FA 8B F0 8D 45 FF 50 8B D7 8B C6 8B SVW.....E.P.....
00412C60 18 FF 53 38 33 C0 8A 45 FF 8B 55 08 8D 14 52 81 ..S83..E..U...R.
00412C70 C2 78 83 42 00 8A 44 02 D6 5F 5E 5B 59 5D C2 04 .x.B..D.._^[Y]..
00412C80 00 8D 40 00 53 56 57 55 51 8B F1 8B FA 8B D8 8B ..@.SVWUQ.......
00412C90 CC 8B D6 8B C3 8B 28 FF 55 0C 84 C0 74 12 66 8B ......(.U...t.f.
00412CA0 04 24 50 8B CE 8B D7 8B C3 8B 18 FF 53 1C EB 07 .$P.........S...
00412CB0 8B C3 E8 B5 00 00 00 5A 5D 5F 5E 5B C3 8D 40 00 .......Z]_^[..@.
00412CC0 55 8B EC 83 C4 F8 E8 2D 0D FF FF 88 55 FB 89 45 U......-....U..E
00412CD0 FC 68 28 B8 42 00 E8 3D 37 FF FF 33 D2 55 68 23 .h(.B..=7..3.Uh#
00412CE0 2D 41 00 64 FF 32 64 89 22 8B 45 FC 66 8B 40 04 -A.d.2d.".E.f.@.
00412CF0 66 85 C0 74 16 0F B7 C0 8B 15 24 B8 42 00 8B 0D f..t......$.B...
00412D00 20 83 42 00 89 8C 82 00 FC FF FF 33 C0 5A 59 59  .B........3.ZYY
00412D10 64 89 10 68 2A 2D 41 00 68 28 B8 42 00 E8 16 38 d..h*-A.h(.B...8
00412D20 FF FF C3 E9 FC 0E FF FF EB EE 8A 55 FB 80 E2 FC ...........U....
00412D30 8B 45 FC E8 D8 09 FF FF 80 7D FB 00 7E 08 8B 45 .E.......}..~..E
00412D40 FC E8 9A 0C FF FF 59 59 5D C3 8B C0 33 C0 C3 90 ......YY]...3...
00412D50 55 8B EC 8B 55 08 66 8B 40 04 66 89 02 B0 01 5D U...U.f.@.f....]
00412D60 C2 04 00 90 66 C7 01 08 00 B0 01 C3 E8 83 AE FF ....f...........
00412D70 FF C3 8B C0 E8 6B AF FF FF C3 8B C0 E8 BF B3 FF .....k..........
00412D80 FF C3 8B C0 55 8B EC 8B 55 08 66 8B 40 04 66 89 ....U...U.f.@.f.
00412D90 02 B0 01 5D C2 04 00 90 E8 D7 FF FF FF C3 8B C0 ...]............
00412DA0 55 8B EC E8 D4 FF FF FF 5D C2 08 00 55 8B EC 83 U.......]...U...
00412DB0 C8 FF 5D C2 04 00 8B C0 55 8B EC 83 C8 FF 5D C2 ..].....U.....].
00412DC0 04 00 8B C0 55 8B EC 53 8B 5D 08 8B 4D 10 8B 55 ....U..S.]..M..U
00412DD0 0C 8B C3 E8 FC 09 FF FF 84 C0 74 04 33 C0 EB 05 ..........t.3...
00412DE0 B8 02 40 00 80 5B 5D C2 0C 00 8B C0 55 8B EC 51 ..@..[].....U..Q
00412DF0 53 56 57 8B F2 8B D8 83 3D 24 B8 42 00 00 74 0E SVW.....=$.B..t.
00412E00 66 81 FB 00 01 72 07 66 81 FB FF 07 76 04 33 C0 f....r.f....v.3.
00412E10 EB 02 B0 01 88 45 FF 80 7D FF 00 74 7E 68 28 B8 .....E..}..t~h(.
00412E20 42 00 E8 F1 35 FF FF 33 C0 55 68 94 2E 41 00 64 B...5..3.Uh..A.d
00412E30 FF 30 64 89 20 A1 24 B8 42 00 E8 55 24 FF FF 0F .0d. .$.B..U$...
00412E40 B7 FB 8B D7 81 EA 00 01 00 00 3B C2 0F 9F 45 FF ..........;...E.
00412E50 80 7D FF 00 74 26 A1 24 B8 42 00 8B 84 B8 00 FC .}..t&.$.B......
00412E60 FF FF 89 06 83 3E 00 74 0A 8B 06 3B 05 20 83 42 .....>.t...;. .B
00412E70 00 75 04 33 C0 EB 02 B0 01 88 45 FF 33 C0 5A 59 .u.3......E.3.ZY
00412E80 59 64 89 10 68 9B 2E 41 00 68 28 B8 42 00 E8 A5 Yd..h..A.h(.B...
00412E90 36 FF FF C3 E9 8B 0D FF FF EB EE 8A 45 FF 5F 5E 6...........E._^
00412EA0 5B 59 5D C3 55 8B EC 33 C0 55 68 13 2F 41 00 64 [Y].U..3.Uh./A.d
00412EB0 FF 30 64 89 20 FF 05 20 B8 42 00 75 48 E8 86 FC .0d. .. .B.uH...
00412EC0 FF FF 68 28 B8 42 00 E8 44 35 FF FF B8 24 B8 42 ..h(.B..D5...$.B
00412ED0 00 8B 15 24 2B 41 00 E8 A0 25 FF FF B8 24 83 42 ...$+A...%...$.B
00412EE0 00 B9 15 00 00 00 8B 15 44 10 40 00 E8 BB 1D FF ........D.@.....
00412EF0 FF B8 18 83 42 00 E8 45 13 FF FF B8 00 B8 42 00 ....B..E......B.
00412F00 E8 3B B5 FF FF 33 C0 5A 59 59 64 89 10 68 1A 2F .;...3.ZYYd..h./
00412F10 41 00 C3 E9 0C 0D FF FF EB F8 5D C3 55 8B EC 33 A.........].U..3
00412F20 C0 55 68 BD 2F 41 00 64 FF 30 64 89 20 83 2D 20 .Uh./A.d.0d. .- 
00412F30 B8 42 00 01 73 79 B8 00 B8 42 00 E8 D8 FB FF FF .B..sy...B......
00412F40 B8 40 E1 40 00 A3 10 B8 42 00 B8 E4 DC 40 00 A3 .@.@....B....@..
00412F50 14 B8 42 00 BA F4 DB 40 00 89 15 18 B8 42 00 A3 ..B....@.....B..
00412F60 1C B8 42 00 B8 40 E4 40 00 8B 15 F4 A7 42 00 89 ..B..@.@.....B..
00412F70 02 B8 0C 28 41 00 8B 15 2C A6 42 00 89 02 B8 68 ...(A...,.B....h
00412F80 E7 40 00 8B 15 60 A8 42 00 89 02 B8 30 17 41 00 .@...`.B....0.A.
00412F90 8B 15 BC A9 42 00 89 02 B8 50 1E 41 00 8B 15 7C ....B....P.A...|
00412FA0 A8 42 00 89 02 68 28 B8 42 00 E8 81 35 FF FF 33 .B...h(.B...5..3
00412FB0 C0 5A 59 59 64 89 10 68 C4 2F 41 00 C3 E9 62 0C .ZYYd..h./A...b.
00412FC0 FF FF EB F8 5D C3 8B C0 68 B6 42 00 AA FF 00 00 ....]...h.B.....
00412FD0 68 B6 42 00 AB FF 00 00 68 B6 42 00 AC FF 00 00 h.B.....h.B.....
00412FE0 68 B6 42 00 AD FF 00 00 68 B6 42 00 AE FF 00 00 h.B.....h.B.....
00412FF0 68 B6 42 00 AF FF 00 00 68 B6 42 00 90 FF 00 00 h.B.....h.B.....
00413000 68 B6 42 00 91 FF 00 00 68 B6 42 00 92 FF 00 00 h.B.....h.B.....
00413010 68 B6 42 00 93 FF 00 00 68 B6 42 00 94 FF 00 00 h.B.....h.B.....
00413020 68 B6 42 00 95 FF 00 00 68 B6 42 00 96 FF 00 00 h.B.....h.B.....
00413030 68 B6 42 00 97 FF 00 00 55 8B EC 33 C0 55 68 5D h.B.....U..3.Uh]
00413040 30 41 00 64 FF 30 64 89 20 FF 05 40 B8 42 00 33 0A.d.0d. ..@.B.3
00413050 C0 5A 59 59 64 89 10 68 64 30 41 00 C3 E9 C2 0B .ZYYd..hd0A.....
00413060 FF FF EB F8 5D C3 8B C0 83 2D 40 B8 42 00 01 C3 ....]....-@.B...
00413070 FF FF FF FF 05 00 00 00 46 61 6C 73 65 00 00 00 ........False...
00413080 FF FF FF FF 04 00 00 00 54 72 75 65 00 00 00 00 ........True....
00413090 FF FF FF FF 01 00 00 00 2E 00 00 00 55 8B EC 33 ............U..3
004130A0 C0 55 68 E2 30 41 00 64 FF 30 64 89 20 FF 05 44 .Uh.0A.d.0d. ..D
004130B0 B8 42 00 75 1F B8 94 83 42 00 E8 81 11 FF FF B8 .B.u....B.......
004130C0 8C 83 42 00 B9 02 00 00 00 8B 15 44 10 40 00 E8 ..B........D.@..
004130D0 D8 1B FF FF 33 C0 5A 59 59 64 89 10 68 E9 30 41 ....3.ZYYd..h.0A
004130E0 00 C3 E9 3D 0B FF FF EB F8 5D C3 90 83 2D 44 B8 ...=.....]...-D.
004130F0 42 00 01 C3 F8 30 41 00 0E 0C 74 61 67 45 58 43 B....0A...tagEXC
00413100 45 50 49 4E 46 4F 20 00 00 00 03 00 00 00 50 10 EPINFO .......P.
00413110 40 00 04 00 00 00 50 10 40 00 08 00 00 00 50 10 @.....P.@.....P.
00413120 40 00 0C 00 00 00 8B C0 FF 25 24 E4 42 00 8B C0 @........%$.B...
00413130 FF 25 20 E4 42 00 8B C0 FF 25 30 E4 42 00 8B C0 .% .B....%0.B...
00413140 FF 25 2C E4 42 00 8B C0 A9 00 00 00 80 0F 94 C0 .%,.B...........
00413150 C3 8D 40 00 55 8B EC 33 C0 55 68 79 31 41 00 64 ..@.U..3.Uhy1A.d
00413160 FF 30 64 89 20 FF 05 48 B8 42 00 33 C0 5A 59 59 .0d. ..H.B.3.ZYY
00413170 64 89 10 68 80 31 41 00 C3 E9 A6 0A FF FF EB F8 d..h.1A.........
00413180 5D C3 8B C0 83 2D 48 B8 42 00 01 C3 D8 31 41 00 ]....-H.B....1A.
00413190 00 00 00 00 00 00 00 00 00 00 00 00 00 00 00 00 ................
004131A0 00 00 00 00 00 00 00 00 00 00 00 00 D8 31 41 00 .............1A.
004131B0 0C 00 00 00 74 6B 40 00 54 39 40 00 60 39 40 00 ....tk@.T9@.`9@.
004131C0 64 39 40 00 68 39 40 00 5C 39 40 00 B8 36 40 00 d9@.h9@.\9@..6@.
004131D0 D4 36 40 00 10 37 40 00 0C 45 53 74 72 65 61 6D .6@..7@..EStream
004131E0 45 72 72 6F 72 8D 40 00 34 32 41 00 00 00 00 00 Error.@.42A.....
004131F0 00 00 00 00 00 00 00 00 00 00 00 00 00 00 00 00 ................
00413200 00 00 00 00 00 00 00 00 34 32 41 00 0C 00 00 00 ........42A.....
00413210 8C 31 41 00 54 39 40 00 60 39 40 00 64 39 40 00 .1A.T9@.`9@.d9@.
00413220 68 39 40 00 5C 39 40 00 B8 36 40 00 D4 36 40 00 h9@.\9@..6@..6@.
00413230 10 37 40 00 10 45 46 69 6C 65 53 74 72 65 61 6D .7@..EFileStream
00413240 45 72 72 6F 72 8D 40 00 94 32 41 00 00 00 00 00 Error.@..2A.....
00413250 00 00 00 00 00 00 00 00 00 00 00 00 00 00 00 00 ................
00413260 00 00 00 00 00 00 00 00 94 32 41 00 0C 00 00 00 .........2A.....
00413270 E8 31 41 00 54 39 40 00 60 39 40 00 64 39 40 00 .1A.T9@.`9@.d9@.
00413280 68 39 40 00 5C 39 40 00 B8 36 40 00 D4 36 40 00 h9@.\9@..6@..6@.
00413290 10 37 40 00 0D 45 46 43 72 65 61 74 65 45 72 72 .7@..EFCreateErr
004132A0 6F 72 8B C0 F0 32 41 00 00 00 00 00 00 00 00 00 or...2A.........
004132B0 00 00 00 00 00 00 00 00 00 00 00 00 00 00 00 00 ................
004132C0 00 00 00 00 F0 32 41 00 0C 00 00 00 E8 31 41 00 .....2A......1A.
004132D0 54 39 40 00 60 39 40 00 64 39 40 00 68 39 40 00 T9@.`9@.d9@.h9@.
004132E0 5C 39 40 00 B8 36 40 00 D4 36 40 00 10 37 40 00 \9@..6@..6@..7@.
004132F0 0B 45 46 4F 70 65 6E 45 72 72 6F 72 48 33 41 00 .EFOpenErrorH3A.
00413300 00 00 00 00 00 00 00 00 00 00 00 00 00 00 00 00 ................
00413310 00 00 00 00 00 00 00 00 00 00 00 00 48 33 41 00 ............H3A.
00413320 0C 00 00 00 8C 31 41 00 54 39 40 00 60 39 40 00 .....1A.T9@.`9@.
00413330 64 39 40 00 68 39 40 00 5C 39 40 00 B8 36 40 00 d9@.h9@.\9@..6@.
00413340 D4 36 40 00 10 37 40 00 0B 45 46 69 6C 65 72 45 .6@..7@..EFilerE
00413350 72 72 6F 72 A0 33 41 00 00 00 00 00 00 00 00 00 rror.3A.........
00413360 00 00 00 00 00 00 00 00 00 00 00 00 00 00 00 00 ................
00413370 00 00 00 00 A0 33 41 00 0C 00 00 00 FC 32 41 00 .....3A......2A.
00413380 54 39 40 00 60 39 40 00 64 39 40 00 68 39 40 00 T9@.`9@.d9@.h9@.
00413390 5C 39 40 00 B8 36 40 00 D4 36 40 00 10 37 40 00 \9@..6@..6@..7@.
004133A0 0A 45 52 65 61 64 45 72 72 6F 72 90 F8 33 41 00 .EReadError..3A.
004133B0 00 00 00 00 00 00 00 00 00 00 00 00 00 00 00 00 ................
004133C0 00 00 00 00 00 00 00 00 00 00 00 00 F8 33 41 00 .............3A.
004133D0 0C 00 00 00 FC 32 41 00 54 39 40 00 60 39 40 00 .....2A.T9@.`9@.
004133E0 64 39 40 00 68 39 40 00 5C 39 40 00 B8 36 40 00 d9@.h9@.\9@..6@.
004133F0 D4 36 40 00 10 37 40 00 0B 45 57 72 69 74 65 45 .6@..7@..EWriteE
00413400 72 72 6F 72 50 34 41 00 00 00 00 00 00 00 00 00 rrorP4A.........
00413410 00 00 00 00 00 00 00 00 00 00 00 00 00 00 00 00 ................
00413420 00 00 00 00 50 34 41 00 0C 00 00 00 74 6B 40 00 ....P4A.....tk@.
00413430 54 39 40 00 60 39 40 00 64 39 40 00 68 39 40 00 T9@.`9@.d9@.h9@.
00413440 5C 39 40 00 B8 36 40 00 D4 36 40 00 10 37 40 00 \9@..6@..6@..7@.
00413450 0A 45 4C 69 73 74 45 72 72 6F 72 90 A8 34 41 00 .EListError..4A.
00413460 00 00 00 00 00 00 00 00 00 00 00 00 00 00 00 00 ................
00413470 00 00 00 00 00 00 00 00 00 00 00 00 A8 34 41 00 .............4A.
00413480 0C 00 00 00 74 6B 40 00 54 39 40 00 60 39 40 00 ....tk@.T9@.`9@.
00413490 64 39 40 00 68 39 40 00 5C 39 40 00 B8 36 40 00 d9@.h9@.\9@..6@.
004134A0 D4 36 40 00 10 37 40 00 10 45 53 74 72 69 6E 67 .6@..7@..EString
004134B0 4C 69 73 74 45 72 72 6F 72 8D 40 00 08 35 41 00 ListError.@..5A.
004134C0 00 00 00 00 00 00 00 00 00 00 00 00 00 00 00 00 ................
004134D0 00 00 00 00 00 00 00 00 00 00 00 00 08 35 41 00 .............5A.
004134E0 10 00 00 00 38 6C 40 00 54 39 40 00 60 39 40 00 ....8l@.T9@.`9@.
004134F0 64 39 40 00 68 39 40 00 5C 39 40 00 B8 36 40 00 d9@.h9@.\9@..6@.
00413500 DC B1 40 00 10 37 40 00 0F 45 4F 75 74 4F 66 52 ..@..7@..EOutOfR
00413510 65 73 6F 75 72 63 65 73 64 35 41 00 00 00 00 00 esourcesd5A.....
00413520 00 00 00 00 00 00 00 00 00 00 00 00 00 00 00 00 ................
00413530 00 00 00 00 00 00 00 00 64 35 41 00 0C 00 00 00 ........d5A.....
00413540 74 6B 40 00 54 39 40 00 60 39 40 00 64 39 40 00 tk@.T9@.`9@.d9@.
00413550 68 39 40 00 5C 39 40 00 B8 36 40 00 D4 36 40 00 h9@.\9@..6@..6@.
00413560 10 37 40 00 11 45 49 6E 76 61 6C 69 64 4F 70 65 .7@..EInvalidOpe
00413570 72 61 74 69 6F 6E 8B C0 C4 35 41 00 00 00 00 00 ration...5A.....
00413580 00 00 00 00 00 00 00 00 00 00 00 00 00 00 00 00 ................
00413590 00 00 00 00 00 00 00 00 D4 35 41 00 10 00 00 00 .........5A.....
004135A0 60 10 40 00 54 39 40 00 60 39 40 00 64 39 40 00 `.@.T9@.`9@.d9@.
004135B0 68 39 40 00 5C 39 40 00 B8 36 40 00 D4 36 40 00 h9@.\9@..6@..6@.
004135C0 EC 41 41 00 70 43 41 00 90 44 41 00 40 42 41 00 .AA.pCA..DA.@BA.
004135D0 BC 42 41 00 05 54 4C 69 73 74 8B C0 28 36 41 00 .BA..TList..(6A.
004135E0 00 00 00 00 00 00 00 00 00 00 00 00 00 00 00 00 ................
004135F0 00 00 00 00 00 00 00 00 00 00 00 00 28 36 41 00 ............(6A.
00413600 24 00 00 00 60 10 40 00 54 39 40 00 60 39 40 00 $...`.@.T9@.`9@.
00413610 64 39 40 00 68 39 40 00 5C 39 40 00 B8 36 40 00 d9@.h9@.\9@..6@.
00413620 D4 36 40 00 E8 44 41 00 0B 54 54 68 72 65 61 64 .6@..DA..TThread
00413630 4C 69 73 74 80 36 41 00 00 00 00 00 00 00 00 00 List.6A.........
00413640 00 00 00 00 AC 36 41 00 00 00 00 00 00 00 00 00 .....6A.........
00413650 8C 36 41 00 9A 36 41 00 04 00 00 00 60 10 40 00 .6A..6A.....`.@.
00413660 54 39 40 00 60 39 40 00 64 39 40 00 68 39 40 00 T9@.`9@.d9@.h9@.
00413670 5C 39 40 00 B8 36 40 00 D4 36 40 00 5C 46 41 00 \9@..6@..6@.\FA.
00413680 6C 47 41 00 74 47 41 00 88 46 41 00 02 00 FF FF lGA.tGA..FA.....
00413690 FE FF 28 48 41 00 78 47 41 00 0B 54 50 65 72 73 ..(HA.xGA..TPers
004136A0 69 73 74 65 6E 74 8B C0 AC 36 41 00 07 0B 54 50 istent...6A...TP
004136B0 65 72 73 69 73 74 65 6E 74 80 36 41 00 B4 10 40 ersistent.6A...@
004136C0 00 00 00 07 43 6C 61 73 73 65 73 00 00 8D 40 00 ....Classes...@.
004136D0 CC 83 44 24 04 F8 8B 44 24 04 8B 00 FF 60 0C 83 ..D$...D$....`..
004136E0 44 24 04 F8 E9 93 11 00 00 83 44 24 04 F8 E9 A9 D$........D$....
004136F0 11 00 00 CC CC D1 36 41 00 DF 36 41 00 E9 36 41 ......6A..6A..6A
00413700 00 01 00 00 00 00 00 00 00 00 00 00 00 C0 00 00 ................
00413710 00 00 00 00 46 F5 36 41 00 08 00 00 00 00 00 00 ....F.6A........
00413720 00 8D 40 00 70 37 41 00 01 37 41 00 00 00 00 00 ..@.p7A..7A.....
00413730 80 37 41 00 AC 37 41 00 00 00 00 00 00 00 00 00 .7A..7A.........
00413740 00 00 00 00 92 37 41 00 0C 00 00 00 34 36 41 00 .....7A.....46A.
00413750 54 39 40 00 2C 48 41 00 64 39 40 00 68 39 40 00 T9@.,HA.d9@.h9@.
00413760 5C 39 40 00 B8 36 40 00 D4 36 40 00 5C 46 41 00 \9@..6@..6@.\FA.
00413770 6C 47 41 00 74 47 41 00 88 46 41 00 BC 48 41 00 lGA.tGA..FA..HA.
00413780 0E 00 00 00 00 00 01 00 00 00 D4 10 40 00 04 00 ............@...
00413790 00 00 15 54 49 6E 74 65 72 66 61 63 65 64 50 65 ...TInterfacedPe
004137A0 72 73 69 73 74 65 6E 74 AC 37 41 00 07 15 54 49 rsistent.7A...TI
004137B0 6E 74 65 72 66 61 63 65 64 50 65 72 73 69 73 74 nterfacedPersist
004137C0 65 6E 74 70 37 41 00 A8 36 41 00 00 00 07 43 6C entp7A..6A....Cl
004137D0 61 73 73 65 73 00 00 90 DC 37 41 00 0F 0F 49 53 asses....7A...IS
004137E0 74 72 69 6E 67 73 41 64 61 70 74 65 72 D4 10 40 tringsAdapter..@
004137F0 00 01 34 2F 9C 73 EC 52 D0 11 9E A6 00 20 AF 3D ..4/.s.R..... .=
00413800 82 DA 07 43 6C 61 73 73 65 73 02 00 FF FF 8B C0 ...Classes......
00413810 5C 38 41 00 00 00 00 00 00 00 00 00 DC 38 41 00 \8A..........8A.
00413820 FC 38 41 00 00 00 00 00 00 00 00 00 00 00 00 00 .8A.............
00413830 EE 38 41 00 10 00 00 00 34 36 41 00 54 39 40 00 .8A.....46A.T9@.
00413840 60 39 40 00 64 39 40 00 68 39 40 00 5C 39 40 00 `9@.d9@.h9@.\9@.
00413850 B8 36 40 00 D4 36 40 00 E4 48 41 00 6C 47 41 00 .6@..6@..HA.lGA.
00413860 1C 4B 41 00 14 4A 41 00 74 2C 40 00 A0 4D 41 00 .KA..JA.t,@..MA.
00413870 74 2C 40 00 A8 4D 41 00 00 4E 41 00 9C 52 41 00 t,@..MA..NA..RA.
00413880 D0 52 41 00 38 54 41 00 C0 54 41 00 80 55 41 00 .RA.8TA..TA..UA.
00413890 08 56 41 00 14 49 41 00 38 49 41 00 5C 49 41 00 .VA..IA.8IA.\IA.
004138A0 74 2C 40 00 74 2C 40 00 B8 4C 41 00 AC 4D 41 00 t,@.t,@..LA..MA.
004138B0 28 4F 41 00 B4 4F 41 00 88 50 41 00 74 2C 40 00 (OA..OA..PA.t,@.
004138C0 BC 50 41 00 EC 50 41 00 40 51 41 00 EC 51 41 00 .PA..PA.@QA..QA.
004138D0 84 53 41 00 DC 53 41 00 70 54 41 00 0E 00 00 00 .SA..SA.pTA.....
004138E0 00 00 01 00 00 00 D8 37 41 00 0C 00 00 00 08 54 .......7A......T
004138F0 53 74 72 69 6E 67 73 90 FC 38 41 00 07 08 54 53 Strings..8A...TS
00413900 74 72 69 6E 67 73 5C 38 41 00 A8 36 41 00 00 00 trings\8A..6A...
00413910 07 43 6C 61 73 73 65 73 00 00 8B C0 20 39 41 00 .Classes.... 9A.
00413920 0E 0B 54 53 74 72 69 6E 67 49 74 65 6D 08 00 00 ..TStringItem...
00413930 00 01 00 00 00 44 10 40 00 00 00 00 00 8D 40 00 .....D.@......@.
00413940 8C 39 41 00 00 00 00 00 00 00 00 00 00 00 00 00 .9A.............
00413950 34 3A 41 00 00 00 00 00 00 00 00 00 00 00 00 00 4:A.............
00413960 24 3A 41 00 30 00 00 00 10 38 41 00 54 39 40 00 $:A.0....8A.T9@.
00413970 60 39 40 00 64 39 40 00 68 39 40 00 5C 39 40 00 `9@.d9@.h9@.\9@.
00413980 B8 36 40 00 D4 36 40 00 48 56 41 00 6C 47 41 00 .6@..6@.HVA.lGA.
00413990 1C 4B 41 00 14 4A 41 00 F0 58 41 00 24 59 41 00 .KA..JA..XA.$YA.
004139A0 28 59 41 00 2C 59 41 00 00 4E 41 00 A0 5A 41 00 (YA.,YA..NA..ZA.
004139B0 FC 5A 41 00 D0 5B 41 00 C0 54 41 00 EC 5B 41 00 .ZA..[A..TA..[A.
004139C0 60 5C 41 00 A4 56 41 00 B0 56 41 00 5C 49 41 00 `\A..VA..VA.\IA.
004139D0 4C 57 41 00 8C 57 41 00 F8 57 41 00 AC 4D 41 00 LWA..WA..WA..MA.
004139E0 88 59 41 00 B4 4F 41 00 88 50 41 00 C4 59 41 00 .YA..OA..PA..YA.
004139F0 D4 59 41 00 EC 50 41 00 40 51 41 00 EC 51 41 00 .YA..PA.@QA..QA.
00413A00 84 53 41 00 DC 53 41 00 70 54 41 00 14 57 41 00 .SA..SA.pTA..WA.
00413A10 30 57 41 00 28 5A 41 00 78 58 41 00 18 5C 41 00 0WA.(ZA.xXA..\A.
00413A20 28 5C 41 00 0B 54 53 74 72 69 6E 67 4C 69 73 74 (\A..TStringList
00413A30 34 3A 41 00 07 0B 54 53 74 72 69 6E 67 4C 69 73 4:A...TStringLis
00413A40 74 8C 39 41 00 F8 38 41 00 00 00 07 43 6C 61 73 t.9A..8A....Clas
00413A50 73 65 73 00 00 8D 40 00 A4 3A 41 00 00 00 00 00 ses...@..:A.....
00413A60 00 00 00 00 00 00 00 00 00 00 00 00 00 00 00 00 ................
00413A70 00 00 00 00 00 00 00 00 C0 3A 41 00 04 00 00 00 .........:A.....
00413A80 60 10 40 00 54 39 40 00 60 39 40 00 64 39 40 00 `.@.T9@.`9@.d9@.
00413A90 68 39 40 00 5C 39 40 00 B8 36 40 00 D4 36 40 00 h9@.\9@..6@..6@.
00413AA0 10 37 40 00 B0 5C 41 00 FC 5C 41 00 00 5D 41 00 .7@..\A..\A..]A.
00413AB0 74 2C 40 00 74 2C 40 00 A0 5D 41 00 24 5E 41 00 t,@.t,@..]A.$^A.
00413AC0 07 54 53 74 72 65 61 6D 14 3B 41 00 00 00 00 00 .TStream.;A.....
00413AD0 00 00 00 00 00 00 00 00 00 00 00 00 00 00 00 00 ................
00413AE0 00 00 00 00 00 00 00 00 30 3B 41 00 08 00 00 00 ........0;A.....
00413AF0 58 3A 41 00 54 39 40 00 60 39 40 00 64 39 40 00 X:A.T9@.`9@.d9@.
00413B00 68 39 40 00 5C 39 40 00 B8 36 40 00 D4 36 40 00 h9@.\9@..6@..6@.
00413B10 10 37 40 00 B0 5C 41 00 80 60 41 00 94 60 41 00 .7@..\A..`A..`A.
00413B20 34 60 41 00 44 60 41 00 A0 5D 41 00 54 60 41 00 4`A.D`A..]A.T`A.
00413B30 0D 54 48 61 6E 64 6C 65 53 74 72 65 61 6D 8B C0 .THandleStream..
00413B40 8C 3B 41 00 00 00 00 00 00 00 00 00 00 00 00 00 .;A.............
00413B50 00 00 00 00 00 00 00 00 00 00 00 00 00 00 00 00 ................
00413B60 A8 3B 41 00 08 00 00 00 C8 3A 41 00 54 39 40 00 .;A......:A.T9@.
00413B70 60 39 40 00 64 39 40 00 68 39 40 00 5C 39 40 00 `9@.d9@.h9@.\9@.
00413B80 B8 36 40 00 D4 36 40 00 54 62 41 00 B0 5C 41 00 .6@..6@.TbA..\A.
00413B90 80 60 41 00 94 60 41 00 34 60 41 00 44 60 41 00 .`A..`A.4`A.D`A.
00413BA0 A0 5D 41 00 54 60 41 00 0B 54 46 69 6C 65 53 74 .]A.T`A..TFileSt
00413BB0 72 65 61 6D 00 3C 41 00 00 00 00 00 00 00 00 00 ream.<A.........
00413BC0 00 00 00 00 00 00 00 00 00 00 00 00 00 00 00 00 ................
00413BD0 00 00 00 00 1C 3C 41 00 10 00 00 00 58 3A 41 00 .....<A.....X:A.
00413BE0 54 39 40 00 60 39 40 00 64 39 40 00 68 39 40 00 T9@.`9@.d9@.h9@.
00413BF0 5C 39 40 00 B8 36 40 00 D4 36 40 00 10 37 40 00 \9@..6@..6@..7@.
00413C00 B0 5C 41 00 FC 5C 41 00 00 5D 41 00 90 62 41 00 .\A..\A..]A..bA.
00413C10 74 2C 40 00 C8 62 41 00 24 5E 41 00 13 54 43 75 t,@..bA.$^A..TCu
00413C20 73 74 6F 6D 4D 65 6D 6F 72 79 53 74 72 65 61 6D stomMemoryStream
00413C30 7C 3C 41 00 00 00 00 00 00 00 00 00 00 00 00 00 |<A.............
00413C40 00 00 00 00 00 00 00 00 00 00 00 00 00 00 00 00 ................
00413C50 9C 3C 41 00 14 00 00 00 B4 3B 41 00 54 39 40 00 .<A......;A.T9@.
00413C60 60 39 40 00 64 39 40 00 68 39 40 00 5C 39 40 00 `9@.d9@.h9@.\9@.
00413C70 B8 36 40 00 D4 36 40 00 EC 62 41 00 B0 5C 41 00 .6@..6@..bA..\A.
00413C80 58 63 41 00 00 5D 41 00 90 62 41 00 10 64 41 00 XcA..]A..bA..dA.
00413C90 C8 62 41 00 24 5E 41 00 84 63 41 00 0D 54 4D 65 .bA.$^A..cA..TMe
00413CA0 6D 6F 72 79 53 74 72 65 61 6D 8B C0 B0 3C 41 00 moryStream...<A.
00413CB0 0E 0E 54 49 64 65 6E 74 4D 61 70 45 6E 74 72 79 ..TIdentMapEntry
00413CC0 08 00 00 00 01 00 00 00 44 10 40 00 04 00 00 00 ........D.@.....

;; fn00413CD0: 00413CD0
;;   Called from:
;;     0041AB44 (in fn0041A748)
;;     00426B49 (in fn00426AC8)
;;     00426B7C (in fn00426AC8)
;;     00426BB2 (in fn00426AC8)
;;     004270A8 (in fn00426C30)
;;     004274E2 (in fn00427488)
fn00413CD0 proc
	push	ebp
	mov	ebp,esp
	push	ebx
	push	esi
	push	edi
	mov	edi,ecx
	mov	esi,edx
	mov	ebx,eax
	mov	eax,[ebp+0C]
	push	eax
	mov	eax,[ebp+08]
	push	eax
	mov	ecx,edi
	mov	edx,esi
	mov	eax,ebx
	call	00406384
	pop	edi
	pop	esi
	pop	ebx
	pop	ebp
	ret	0008
00413CF6                   8B C0 44 3D 41 00 00 00 00 00       ..D=A.....
00413D00 00 00 00 00 00 00 00 00 00 00 00 00 00 00 00 00 ................
00413D10 00 00 00 00 00 00 00 00 44 3D 41 00 14 00 00 00 ........D=A.....
00413D20 60 10 40 00 54 39 40 00 60 39 40 00 64 39 40 00 `.@.T9@.`9@.d9@.
00413D30 68 39 40 00 5C 39 40 00 B8 36 40 00 D4 36 40 00 h9@.\9@..6@..6@.
00413D40 24 3E 41 00 09 54 52 65 67 47 72 6F 75 70 8B C0 $>A..TRegGroup..
00413D50 9C 3D 41 00 00 00 00 00 00 00 00 00 00 00 00 00 .=A.............
00413D60 00 00 00 00 00 00 00 00 00 00 00 00 00 00 00 00 ................
00413D70 9C 3D 41 00 24 00 00 00 60 10 40 00 54 39 40 00 .=A.$...`.@.T9@.
00413D80 60 39 40 00 64 39 40 00 68 39 40 00 5C 39 40 00 `9@.d9@.h9@.\9@.
00413D90 B8 36 40 00 D4 36 40 00 9C 3F 41 00 0A 54 52 65 .6@..6@..?A..TRe
00413DA0 67 47 72 6F 75 70 73 90 55 8B EC 51 53 56 57 84 gGroups.U..QSVW.
00413DB0 D2 74 08 83 C4 F0 E8 D5 FB FE FF 8B F9 88 55 FF .t............U.
00413DC0 8B D8 33 D2 8B C3 E8 25 F9 FE FF B2 01 A1 78 35 ..3....%......x5
00413DD0 41 00 E8 19 F9 FE FF 89 43 04 B2 01 A1 40 39 41 A.......C....@9A
00413DE0 00 E8 0A F9 FE FF 89 43 08 B2 01 A1 78 35 41 00 .......C....x5A.
00413DF0 E8 FB F8 FE FF 8B F0 89 73 0C 8B C6 8B D7 E8 09 ........s.......
00413E00 04 00 00 8B C3 80 7D FF 00 74 0F E8 D8 FB FE FF ......}..t......
00413E10 64 8F 05 00 00 00 00 83 C4 0C 8B C3 5F 5E 5B 59 d..........._^[Y
00413E20 5D C3 8B C0 53 56 E8 CD FB FE FF 8B DA 8B F0 8B ]...SV..........
00413E30 D3 80 E2 FC 8B C6 E8 D5 F8 FE FF 8B 46 04 E8 DD ............F...
00413E40 F8 FE FF 8B 46 08 E8 D5 F8 FE FF 8B 46 0C E8 CD ....F.......F...
00413E50 F8 FE FF 84 DB 7E 07 8B C6 E8 82 FB FE FF 5E 5B .....~........^[
00413E60 C3 8D 40 00 53 56 8B DA 8B F0 85 DB 74 10 8B C6 ..@.SV......t...
00413E70 E8 6B 16 FF FF 3B D8 74 05 33 C0 5E 5B C3 B0 01 .k...;.t.3.^[...
00413E80 5E 5B C3 90 53 56 57 8B FA 8B F0 8B 46 0C 8B 58 ^[..SVW.....F..X
00413E90 08 4B 83 FB 00 7C 25 8B D3 8B 46 0C E8 A7 04 00 .K...|%...F.....
00413EA0 00 8B D7 E8 BC FF FF FF 84 C0 74 0A 8B D3 8B 46 ..........t....F
00413EB0 0C E8 A2 03 00 00 4B 83 FB FF 75 DB 8B 46 04 8B ......K...u..F..
00413EC0 58 08 4B 83 FB 00 7C 25 8B D3 8B 46 04 E8 76 04 X.K...|%...F..v.
00413ED0 00 00 8B D7 E8 8B FF FF FF 84 C0 74 0A 8B D3 8B ...........t....
00413EE0 46 04 E8 71 03 00 00 4B 83 FB FF 75 DB 8B 46 08 F..q...K...u..F.
00413EF0 8B 10 FF 52 14 8B D8 4B 83 FB 00 7C 25 8B D3 8B ...R...K...|%...
00413F00 46 08 8B 08 FF 51 18 8B D7 E8 56 FF FF FF 84 C0 F....Q....V.....
00413F10 74 0A 8B D3 8B 46 08 8B 08 FF 51 48 4B 83 FB FF t....F....QHK...
00413F20 75 DB 5F 5E 5B C3 8B C0 53 56 57 84 D2 74 08 83 u._^[...SVW..t..
00413F30 C4 F0 E8 59 FA FE FF 8B DA 8B F8 33 D2 8B C7 E8 ...Y.......3....
00413F40 AC F7 FE FF B2 01 A1 78 35 41 00 E8 A0 F7 FE FF .......x5A......
00413F50 89 47 04 8D 47 08 50 E8 D4 25 FF FF 8B 0D 34 36 .G..G.P..%....46
00413F60 41 00 B2 01 A1 F8 3C 41 00 E8 3A FE FF FF 8B F0 A.....<A..:.....
00413F70 8B 47 04 8B D6 E8 92 02 00 00 C6 46 10 01 8B C7 .G.........F....
00413F80 84 DB 74 0F E8 5F FA FE FF 64 8F 05 00 00 00 00 ..t.._...d......
00413F90 83 C4 0C 8B C7 5F 5E 5B C3 8D 40 00 53 56 57 55 ....._^[..@.SVWU
00413FA0 E8 53 FA FE FF 8B DA 8B F0 8D 46 08 50 E8 5E 24 .S........F.P.^$
00413FB0 FF FF 8B 46 04 8B 68 08 4D 85 ED 7C 16 45 33 FF ...F..h.M..|.E3.
00413FC0 8B 46 04 8B D7 E8 7E 03 00 00 E8 51 F7 FE FF 47 .F....~....Q...G
00413FD0 4D 75 ED 8B 46 04 E8 45 F7 FE FF 8B D3 80 E2 FC Mu..F..E........
00413FE0 8B C6 E8 29 F7 FE FF 84 DB 7E 07 8B C6 E8 EE F9 ...).....~......
00413FF0 FE FF 5D 5F 5E 5B C3 90 83 C0 08 50 E8 17 24 FF ..]_^[.....P..$.
00414000 FF C3 8B C0 83 C0 08 50 E8 2B 25 FF FF C3 8B C0 .......P.+%.....
00414010 53 56 57 55 8B EA 8B F8 8B 47 04 8B 58 08 4B 83 SVWU.....G..X.K.
00414020 FB 00 7C 35 8B 47 04 8B D3 E8 1A 03 00 00 8B F0 ..|5.G..........
00414030 8B D5 8B C6 E8 4B FE FF FF 8B 46 0C 83 78 08 00 .....K....F..x..
00414040 75 11 8B C6 E8 D7 F6 FE FF 8B 47 04 8B D3 E8 05 u.........G.....
00414050 02 00 00 4B 83 FB FF 75 CB 5D 5F 5E 5B C3 8B C0 ...K...u.]_^[...
00414060 55 8B EC 53 8B D8 A1 5C B8 42 00 E8 88 FF FF FF U..S...\.B......
00414070 33 C0 55 68 A2 40 41 00 64 FF 30 64 89 20 8B D3 3.Uh.@A.d.0d. ..
00414080 A1 5C B8 42 00 E8 86 FF FF FF 33 C0 5A 59 59 64 .\.B......3.ZYYd
00414090 89 10 68 A9 40 41 00 A1 5C B8 42 00 E8 63 FF FF ..h.@A..\.B..c..
004140A0 FF C3 E9 7D FB FE FF EB EE 5B 5D C3 F8 40 41 00 ...}.....[]..@A.
004140B0 00 00 00 00 00 00 00 00 00 00 00 00 00 00 00 00 ................
004140C0 00 00 00 00 00 00 00 00 00 00 00 00 F8 40 41 00 .............@A.
004140D0 10 00 00 00 60 10 40 00 54 39 40 00 60 39 40 00 ....`.@.T9@.`9@.
004140E0 64 39 40 00 68 39 40 00 5C 39 40 00 B8 36 40 00 d9@.h9@.\9@..6@.
004140F0 D4 36 40 00 10 37 40 00 09 54 49 6E 74 43 6F 6E .6@..7@..TIntCon
00414100 73 74 8B C0 55 8B EC 84 D2 74 08 83 C4 F0 E8 7D st..U....t.....}
00414110 F8 FE FF 89 48 04 8B 4D 0C 89 48 08 8B 4D 08 89 ....H..M..H..M..
00414120 48 0C 84 D2 74 0F E8 BD F8 FE FF 64 8F 05 00 00 H...t......d....
00414130 00 00 83 C4 0C 5D C2 08 00 8D 40 00 53 56 57 8B .....]....@.SVW.
00414140 F9 8B F2 8B D8 56 57 8B CB B2 01 A1 AC 40 41 00 .....VW......@A.
00414150 E8 AF FF FF FF 8B D0 A1 58 B8 42 00 E8 03 04 00 ........X.B.....
00414160 00 5F 5E 5B C3 8D 40 00 55 8B EC 51 53 56 57 89 ._^[..@.U..QSVW.
00414170 55 FC 8B F8 8B 75 08 85 F6 7C 23 46 8D 59 04 8B U....u...|#F.Y..
00414180 D7 8B 03 E8 FC 36 FF FF 84 C0 74 0C B0 01 8B 55 .....6....t....U
00414190 FC 8B 4B FC 89 0A EB 08 83 C3 08 4E 75 E1 33 C0 ..K........Nu.3.
004141A0 5F 5E 5B 59 5D C2 04 00 55 8B EC 83 C4 F8 53 56 _^[Y]...U.....SV
004141B0 57 89 4D FC 8B FA 8B 75 08 85 F6 7C 1E 46 8B 5D W.M....u...|.F.]
004141C0 FC 3B 03 75 10 C6 45 FB 01 8B C7 8B 53 04 E8 C1 .;.u..E.....S...
004141D0 00 FF FF EB 0A 83 C3 08 4E 75 E6 C6 45 FB 00 8A ........Nu..E...
004141E0 45 FB 5F 5E 5B 59 59 5D C2 04 00 90 53 56 E8 05 E._^[YY]....SV..
004141F0 F8 FE FF 8B DA 8B F0 8B C6 8B 10 FF 52 08 84 DB ............R...
00414200 7E 07 8B C6 E8 D7 F7 FE FF 5E 5B C3             ~........^[.   

;; fn0041420C: 0041420C
;;   Called from:
;;     004145A5 (in fn00414564)
fn0041420C proc
	push	ebx
	push	esi
	push	edi
	mov	edi,edx
	mov	ebx,eax
	mov	esi,[ebx+08]
	cmp	esi,[ebx+0C]
	jnz	00414221

l0041421B:
	mov	eax,ebx
	mov	edx,[eax]
	call	dword ptr [edx]

l00414221:
	mov	eax,[ebx+04]
	mov	[eax+esi*4],edi
	inc	dword ptr [ebx+08]
	test	edi,edi
	jz	00414239

l0041422E:
	xor	ecx,ecx
	mov	edx,edi
	mov	eax,ebx
	mov	ebx,[eax]
	call	dword ptr [ebx+04]

l00414239:
	mov	eax,esi
	pop	edi
	pop	esi
	pop	ebx
	ret
0041423F                                              90                .
00414240 53 8B D8 33 D2 8B C3 E8 D4 01 00 00 33 D2 8B C3 S..3........3...
00414250 E8 8F 01 00 00 5B C3 90                         .....[..       

;; fn00414258: 00414258
;;   Called from:
;;     004143D9 (in fn004143C4)
fn00414258 proc
	push	ebx
	push	esi
	push	edi
	mov	esi,edx
	mov	ebx,eax
	test	esi,esi
	jl	00414268

l00414263:
	cmp	esi,[ebx+08]
	jl	00414277

l00414268:
	mov	edx,[0042A8E0]
	mov	ecx,esi
	mov	eax,[ebx]
	call	004142F4

l00414277:
	mov	edx,esi
	mov	eax,ebx
	call	00414348
	mov	edi,eax
	dec	dword ptr [ebx+08]
	mov	eax,[ebx+08]
	cmp	esi,eax
	jge	004142A5

l0041428C:
	sub	eax,esi
	mov	ecx,eax
	shl	ecx,02
	mov	eax,[ebx+04]
	lea	edx,[eax+esi*4]
	mov	eax,[ebx+04]
	lea	eax,[eax+esi*4+04]
	call	00402C1C

l004142A5:
	test	edi,edi
	jz	004142B4

l004142A9:
	mov	cl,02
	mov	edx,edi
	mov	eax,ebx
	mov	ebx,[eax]
	call	dword ptr [ebx+04]

l004142B4:
	pop	edi
	pop	esi
	pop	ebx
	ret

;; fn004142B8: 004142B8
;;   Called from:
;;     004142C5 (in fn004142BC)
fn004142B8 proc
	mov	eax,[ebp+04]
	ret

;; fn004142BC: 004142BC
;;   Called from:
;;     00414321 (in fn004142F4)
fn004142BC proc
	push	ebx
	push	esi
	add	esp,F8
	mov	esi,ecx
	mov	ebx,edx
	call	004142B8
	push	eax
	mov	[esp+04],esi
	mov	byte ptr [esp+08],00
	lea	eax,[esp+04]
	push	eax
	push	00
	mov	ecx,ebx
	mov	dl,01
	mov	eax,[00413404]
	call	0040B044
	jmp	00403C5C
004142EE                                           59 5A               YZ
004142F0 5E 5B C3 90                                     ^[..           

;; fn004142F4: 004142F4
;;   Called from:
;;     00414272 (in fn00414258)
;;     00414361 (in fn00414348)
;;     004145C5 (in fn00414564)
fn004142F4 proc
	push	ebp
	mov	ebp,esp
	push	00
	push	ebx
	push	esi
	mov	esi,ecx
	mov	ebx,edx
	xor	eax,eax
	push	ebp
	push	0041433C
	push	dword ptr fs:[eax]
	mov	fs:[eax],esp
	lea	edx,[ebp-04]
	mov	eax,ebx
	call	00406050
	mov	edx,[ebp-04]
	mov	ecx,esi
	mov	eax,[00413578]
	call	004142BC
	xor	eax,eax
	pop	edx
	pop	ecx
	pop	ecx
	mov	fs:[eax],edx
	push	00414343
	lea	eax,[ebp-04]
	call	00404240
	ret
0041433C                                     E9 E3 F8 FE             ....
00414340 FF EB F0 5E 5B 59 5D C3                         ...^[Y].       

;; fn00414348: 00414348
;;   Called from:
;;     0041427B (in fn00414258)
;;     0041A33A (in fn0041A304)
fn00414348 proc
	push	ebx
	push	esi
	mov	esi,edx
	mov	ebx,eax
	test	esi,esi
	jl	00414357

l00414352:
	cmp	esi,[ebx+08]
	jl	00414366

l00414357:
	mov	edx,[0042A8E0]
	mov	ecx,esi
	mov	eax,[ebx]
	call	004142F4

l00414366:
	mov	eax,[ebx+04]
	mov	eax,[eax+esi*4]
	pop	esi
	pop	ebx
	ret
0041436F                                              90                .
00414370 8B 50 0C 83 FA 40 7E 0E 8B CA 85 C9 79 03 83 C1 .P...@~.....y...
00414380 03 C1 F9 02 EB 11 83 FA 08 7E 07 B9 10 00 00 00 .........~......
00414390 EB 05 B9 04 00 00 00 03 CA 8B D1 E8 44 00 00 00 ............D...
004143A0 C3 8D 40 00                                     ..@.           

;; fn004143A4: 004143A4
;;   Called from:
;;     004143CA (in fn004143C4)
;;     00414595 (in fn00414564)
fn004143A4 proc
	push	ebx
	xor	ecx,ecx
	jmp	004143AA

l004143A9:
	inc	ecx

l004143AA:
	cmp	ecx,[eax+08]
	jge	004143B7

l004143AF:
	mov	ebx,[eax+04]
	cmp	edx,[ebx+ecx*4]
	jnz	004143A9

l004143B7:
	cmp	ecx,[eax+08]
	jnz	004143BF

l004143BC:
	or	ecx,FF

l004143BF:
	mov	eax,ecx
	pop	ebx
	ret
004143C3          90                                        .           

;; fn004143C4: 004143C4
;;   Called from:
;;     00414628 (in fn00414600)
fn004143C4 proc
	push	ebx
	push	esi
	mov	ebx,eax
	mov	eax,ebx
	call	004143A4
	mov	esi,eax
	test	esi,esi
	jl	004143DE

l004143D5:
	mov	edx,esi
	mov	eax,ebx
	call	00414258

l004143DE:
	mov	eax,esi
	pop	esi
	pop	ebx
	ret
004143E3          90 53 56 8B F2 8B D8 3B 73 08 7C 08 81    .SV....;s.|..
004143F0 FE FF FF FF 07 7E 0F 8B 15 08 A8 42 00 8B CE 8B .....~.....B....
00414400 03 E8 EE FE FF FF 3B 73 0C 74 10 8B D6 C1 E2 02 ......;s.t......
00414410 8D 43 04 E8 60 E6 FE FF 89 73 0C 5E 5B C3 8B C0 .C..`....s.^[...
00414420 53 56 57 55 8B F2 8B D8 85 F6 7C 08 81 FE FF FF SVWU......|.....
00414430 FF 07 7E 0F 8B 15 9C A7 42 00 8B CE 8B 03 E8 B1 ..~.....B.......
00414440 FE FF FF 3B 73 0C 7E 09 8B D6 8B C3 E8 93 FF FF ...;s.~.........
00414450 FF 8B 43 08 3B F0 7E 19 8B 53 04 8D 14 82 8B CE ..C.;.~..S......
00414460 2B C8 8B C1 C1 E0 02 33 C9 92 E8 B1 EB FE FF EB +......3........
00414470 17 8B E8 4D 8B FE 2B FD 7F 0E 4F 8B D5 8B C3 E8 ...M..+...O.....
00414480 D4 FD FF FF 4D 47 75 F3 89 73 08 5D 5F 5E 5B C3 ....MGu..s.]_^[.
00414490 C3 8D 40 00 53 56 84 D2 74 08 83 C4 F0 E8 EE F4 ..@.SV..t.......
004144A0 FE FF 8B DA 8B F0 33 D2 8B C6 E8 41 F2 FE FF 8D ......3....A....
004144B0 46 08 50 E8 78 20 FF FF B2 01 A1 78 35 41 00 E8 F.P.x .....x5A..
004144C0 2C F2 FE FF 89 46 04 C6 46 20 00 8B C6 84 DB 74 ,....F..F .....t
004144D0 0F E8 12 F5 FE FF 64 8F 05 00 00 00 00 83 C4 0C ......d.........
004144E0 8B C6 5E 5B C3 8D 40 00 55 8B EC 83 C4 F8 E8 05 ..^[..@.U.......
004144F0 F5 FE FF 88 55 FB 89 45 FC 8B 45 FC E8 EB 00 00 ....U..E..E.....
00414500 00 33 C0 55 68 4A 45 41 00 64 FF 30 64 89 20 8B .3.UhJEA.d.0d. .
00414510 45 FC 8B 40 04 E8 06 F2 FE FF 8A 55 FB 80 E2 FC E..@.......U....
00414520 8B 45 FC E8 E8 F1 FE FF 33 C0 5A 59 59 64 89 10 .E......3.ZYYd..
00414530 68 51 45 41 00 8B 45 FC E8 13 01 00 00 8B 45 FC hQEA..E.......E.
00414540 83 C0 08 50 E8 C7 1E FF FF C3 E9 D5 F6 FE FF EB ...P............
00414550 E4 80 7D FB 00 7E 08 8B 45 FC E8 81 F4 FE FF 59 ..}..~..E......Y
00414560 59 5D C3 90                                     Y]..           

;; fn00414564: 00414564
;;   Called from:
;;     00419052 (in fn00418FB4)
fn00414564 proc
	push	ebp
	mov	ebp,esp
	push	ecx
	push	ebx
	mov	ebx,edx
	mov	[ebp-04],eax
	mov	eax,[ebp-04]
	call	004145EC
	xor	eax,eax
	push	ebp
	push	004145E0
	push	dword ptr fs:[eax]
	mov	fs:[eax],esp
	mov	eax,[ebp-04]
	cmp	byte ptr [eax+20],01
	jz	0041459D

l0041458D:
	mov	eax,[ebp-04]
	mov	eax,[eax+04]
	mov	edx,ebx
	call	004143A4
	inc	eax
	jnz	004145AC

l0041459D:
	mov	eax,[ebp-04]
	mov	eax,[eax+04]
	mov	edx,ebx
	call	0041420C
	jmp	004145CA

l004145AC:
	mov	eax,[ebp-04]
	cmp	byte ptr [eax+20],02
	jnz	004145CA

l004145B5:
	mov	edx,[0042A788]
	mov	eax,[ebp-04]
	mov	eax,[eax+04]
	mov	eax,[eax]
	mov	ecx,ebx
	call	004142F4

l004145CA:
	xor	eax,eax
	pop	edx
	pop	ecx
	pop	ecx
	mov	fs:[eax],edx
	push	004145E7
	mov	eax,[ebp-04]
	call	00414650
	ret
004145E0 E9 3F F6 FE FF EB F0 5B 59 5D C3 90             .?.....[Y]..   

;; fn004145EC: 004145EC
;;   Called from:
;;     00414571 (in fn00414564)
;;     0041460D (in fn00414600)
;;     0041A318 (in fn0041A304)
fn004145EC proc
	push	ebx
	mov	ebx,eax
	lea	eax,[ebx+08]
	push	eax
	call	00406418
	mov	eax,[ebx+04]
	pop	ebx
	ret
004145FD                                        8D 40 00              .@.

;; fn00414600: 00414600
;;   Called from:
;;     0041A461 (in fn0041A3E8)
fn00414600 proc
	push	ebp
	mov	ebp,esp
	push	ecx
	push	ebx
	mov	ebx,edx
	mov	[ebp-04],eax
	mov	eax,[ebp-04]
	call	004145EC
	xor	eax,eax
	push	ebp
	push	00414643
	push	dword ptr fs:[eax]
	mov	fs:[eax],esp
	mov	eax,[ebp-04]
	mov	eax,[eax+04]
	mov	edx,ebx
	call	004143C4
	xor	eax,eax
	pop	edx
	pop	ecx
	pop	ecx
	mov	fs:[eax],edx
	push	0041464A
	mov	eax,[ebp-04]
	call	00414650
	ret
00414643          E9 DC F5 FE FF EB F0 5B 59 5D C3 8B C0    .......[Y]...

;; fn00414650: 00414650
;;   Called from:
;;     004145DA (in fn00414564)
;;     0041463D (in fn00414600)
;;     0041A36E (in fn0041A304)
fn00414650 proc
	add	eax,08
	push	eax
	call	00406538
	ret
0041465A                               8B C0 53 56 E8 95           ..SV..
00414660 F3 FE FF 8B DA 8B F0 8B C6 E8 9E 1E 00 00 8B D3 ................
00414670 80 E2 FC 8B C6 E8 96 F0 FE FF 84 DB 7E 07 8B C6 ............~...
00414680 E8 5B F3 FE FF 5E 5B C3 85 D2 74 06 92 8B 08 FF .[...^[...t.....
00414690 11 C3 33 D2 E8 03 00 00 00 C3 8B C0 55 8B EC 81 ..3.........U...
004146A0 C4 EC FE FF FF 53 56 33 C9 89 4D FC 8B F2 8B D8 .....SV3..M.....
004146B0 33 C0 55 68 52 47 41 00 64 FF 30 64 89 20 85 F6 3.UhRGA.d.0d. ..
004146C0 74 1D 8D 95 FC FE FF FF 8B 06 E8 C9 EF FE FF 8D t...............
004146D0 95 FC FE FF FF 8D 45 FC E8 C7 FD FE FF EB 0D 8D ......E.........
004146E0 45 FC BA 68 47 41 00 E8 EC FB FE FF 8B 45 FC 89 E..hGA.......E..
004146F0 85 EC FE FF FF C6 85 F0 FE FF FF 0B 8D 95 FC FE ................
00414700 FF FF 8B 03 E8 8F EF FE FF 8D 85 FC FE FF FF 89 ................
00414710 85 F4 FE FF FF C6 85 F8 FE FF FF 04 8D 85 EC FE ................
00414720 FF FF 50 6A 01 8B 0D B4 A7 42 00 B2 01 A1 78 71 ..Pj.....B....xq
00414730 40 00 E8 C9 69 FF FF E8 20 F5 FE FF 33 C0 5A 59 @...i... ...3.ZY
00414740 59 64 89 10 68 59 47 41 00 8D 45 FC E8 EF FA FE Yd..hYGA..E.....
00414750 FF C3 E9 CD F4 FE FF EB F0 5E 5B 8B E5 5D C3 00 .........^[..]..
00414760 FF FF FF FF 03 00 00 00 6E 69 6C 00 92 E8 2A FF ........nil...*.
00414770 FF FF C3 90 C3 8D 40 00 55 8B EC 81 C4 FC FE FF ......@.U.......
00414780 FF 53 56 57 33 C9 89 4D FC 8B FA 8B D8 33 C0 55 .SVW3..M.....3.U
00414790 68 0D 48 41 00 64 FF 30 64 89 20 8D 95 FC FE FF h.HA.d.0d. .....
004147A0 FF 8B 03 E8 F0 EE FE FF 8D 95 FC FE FF FF 8B C7 ................
004147B0 E8 EF FC FE FF 8B C3 66 BE FF FF E8 68 F1 FE FF .......f....h...
004147C0 85 C0 74 33 8B C3 66 BE FF FF E8 59 F1 FE FF 8D ..t3..f....Y....
004147D0 55 FC 66 BE FE FF E8 4D F1 FE FF 83 7D FC 00 74 U.f....M....}..t
004147E0 16 FF 75 FC 68 24 48 41 00 FF 37 8B C7 BA 03 00 ..u.h$HA..7.....
004147F0 00 00 E8 C9 FD FE FF 33 C0 5A 59 59 64 89 10 68 .......3.ZYYd..h
00414800 14 48 41 00 8D 45 FC E8 34 FA FE FF C3 E9 12 F4 .HA..E..4.......
00414810 FE FF EB F0 5F 5E 5B 8B E5 5D C3 00 FF FF FF FF ...._^[..]......
00414820 01 00 00 00 2E 00 00 00 33 C0 C3 90 53 56 8B D8 ........3...SV..
00414830 8B C3 E8 29 F1 FE FF 8B C3 66 BE FF FF E8 E6 F0 ...).....f......
00414840 FE FF 85 C0 74 21 8B C3 66 BE FF FF E8 D7 F0 FE ....t!..f.......
00414850 FF 50 8D 43 04 E8 6E 13 FF FF 8B C8 BA 6C 48 41 .P.C..n......lHA
00414860 00 58 E8 6D EF FE FF 5E 5B C3 00 00 00 00 00 00 .X.m...^[.......
00414870 00 00 00 00 C0 00 00 00 00 00 00 46 55 8B EC 8B ...........FU...
00414880 45 08 83 78 04 00 74 0B 8B 40 04 50 8B 00 FF 50 E..x..t..@.P...P
00414890 04 EB 03 83 C8 FF 5D C2 04 00 8B C0 55 8B EC 8B ......].....U...
004148A0 45 08 83 78 04 00 74 0B 8B 40 04 50 8B 00 FF 50 E..x..t..@.P...P
004148B0 08 EB 03 83 C8 FF 5D C2 04 00 8B C0 55 8B EC 53 ......].....U..S
004148C0 8B 5D 08 8B 4D 10 8B 55 0C 8B C3 E8 04 EF FE FF .]..M..U........
004148D0 84 C0 74 04 33 C0 EB 05 B8 02 40 00 80 5B 5D C2 ..t.3.....@..[].
004148E0 0C 00 8B C0 53 56 E8 0D F1 FE FF 8B DA 8B F0 33 ....SV.........3
004148F0 D2 8B C6 E8 44 0B 00 00 8B D3 80 E2 FC 8B C6 E8 ....D...........
00414900 58 FD FF FF 84 DB 7E 07 8B C6 E8 D1 F0 FE FF 5E X.....~........^
00414910 5B C3 8B C0 53 56 57 55 8B EA 8B F0 8B C6 8B 10 [...SVWU........
00414920 FF 52 14 8B F8 8B CD 8B D7 8B C6 8B 18 FF 53 60 .R............S`
00414930 8B C7 5D 5F 5E 5B C3 90 53 56 57 8B F9 8B D8 8B ..]_^[..SVW.....
00414940 C3 8B 08 FF 51 38 8B F0 8B CF 8B D6 8B C3 8B 18 ....Q8..........
00414950 FF 53 24 8B C6 5F 5E 5B C3 8D 40 00 55 8B EC 83 .S$.._^[..@.U...
00414960 C4 F4 53 56 57 33 C9 89 4D F4 89 55 F8 89 45 FC ..SVW3..M..U..E.
00414970 33 C0 55 68 03 4A 41 00 64 FF 30 64 89 20 8B 45 3.Uh.JA.d.0d. .E
00414980 FC E8 26 01 00 00 33 C0 55 68 E6 49 41 00 64 FF ..&...3.Uh.IA.d.
00414990 30 64 89 20 8B 45 F8 8B 10 FF 52 14 8B F0 4E 85 0d. .E....R...N.
004149A0 F6 7C 2D 46 33 DB 8D 4D F4 8B D3 8B 45 F8 8B 38 .|-F3..M....E..8
004149B0 FF 57 0C 8B 45 F4 50 8B D3 8B 45 F8 8B 08 FF 51 .W..E.P...E....Q
004149C0 18 8B C8 8B 45 FC 5A 8B 38 FF 57 3C 43 4E 75 D6 ....E.Z.8.W<CNu.
004149D0 33 C0 5A 59 59 64 89 10 68 ED 49 41 00 8B 45 FC 3.ZYYd..h.IA..E.
004149E0 E8 83 01 00 00 C3 E9 39 F2 FE FF EB F0 33 C0 5A .......9.....3.Z
004149F0 59 59 64 89 10 68 0A 4A 41 00 8D 45 F4 E8 3E F8 YYd..h.JA..E..>.
00414A00 FE FF C3 E9 1C F2 FE FF EB F0 5F 5E 5B 8B E5 5D .........._^[..]
00414A10 C3 8D 40 00 55 8B EC 51 53 56 8B DA 89 45 FC 8B ..@.U..QSV...E..
00414A20 C3 8B 15 10 38 41 00 E8 8C EE FE FF 84 C0 74 6B ....8A........tk
00414A30 8B 45 FC E8 74 00 00 00 33 C0 55 68 94 4A 41 00 .E..t...3.Uh.JA.
00414A40 64 FF 30 64 89 20 8B 45 FC 8B 10 FF 52 44 8B F3 d.0d. .E....RD..
00414A50 8A 46 04 8B 55 FC 88 42 04 8A 46 07 8B 55 FC 88 .F..U..B..F..U..
00414A60 42 07 8A 46 06 8B 55 FC 88 42 06 8A 46 05 8B 55 B..F..U..B..F..U
00414A70 FC 88 42 05 8B D6 8B 45 FC 8B 08 FF 51 40 33 C0 ..B....E....Q@3.
00414A80 5A 59 59 64 89 10 68 A5 4A 41 00 8B 45 FC E8 D5 ZYYd..h.JA..E...
00414A90 00 00 00 C3 E9 8B F1 FE FF EB F0 8B D3 8B 45 FC ..............E.
00414AA0 E8 E3 FB FF FF 5E 5B 59 5D C3 8B C0             .....^[Y]...   

;; fn00414AAC: 00414AAC
;;   Called from:
;;     00424ADB (in fn00424AA8)
;;     00426594 (in fn004264A0)
fn00414AAC proc
	push	ebx
	mov	ebx,eax
	cmp	dword ptr [ebx+08],00
	jnz	00414ABE

l00414AB5:
	mov	dl,01
	mov	eax,ebx
	mov	ecx,[eax]
	call	dword ptr [ecx+30]

l00414ABE:
	inc	dword ptr [ebx+08]
	pop	ebx
	ret
00414AC3          90 55 8B EC 53 56 8B 45 08 8B 40 FC 8B    .U..SV.E..@..
00414AD0 70 20 85 F6 74 2D B3 01 8B 45 08 8B C6 8B 15 10 p ..t-...E......
00414AE0 38 41 00 E8 D0 ED FE FF 84 C0 74 27 8B 45 08 8B 8A........t'.E..
00414AF0 D6 8B 45 08 8B 40 F8 E8 80 00 00 00 8B D8 80 F3 ..E..@..........
00414B00 01 EB 10 8B 45 08 8B 40 F8 8B 10 FF 52 14 85 C0 ....E..@....R...
00414B10 0F 9F C3 8B C3 5E 5B 5D C3 8D 40 00 55 8B EC 83 .....^[]..@.U...
00414B20 C4 F8 53 89 55 FC 89 45 F8 8B 45 F8 50 68 D4 52 ..S.U..E..E.Ph.R
00414B30 41 00 8B 45 F8 50 68 84 55 41 00 55 E8 83 FF FF A..E.Ph.UA.U....
00414B40 FF 59 8B C8 BA 60 4B 41 00 8B 45 FC 8B 18 FF 53 .Y...`KA..E....S
00414B50 04 5B 59 59 5D C3 00 00 FF FF FF FF 07 00 00 00 .[YY]...........
00414B60 53 74 72 69 6E 67 73 00                         Strings.       

;; fn00414B68: 00414B68
;;   Called from:
;;     00424B26 (in fn00424AA8)
;;     004266A7 (in fn004264A0)
fn00414B68 proc
	dec	dword ptr [eax+08]
	cmp	dword ptr [eax+08],00
	jnz	00414B78

l00414B71:
	xor	edx,edx
	mov	ecx,[eax]
	call	dword ptr [ecx+30]

l00414B78:
	ret
00414B79                            8D 40 00 55 8B EC 83          .@.U...
00414B80 C4 EC 53 56 57 33 C9 89 4D F0 89 4D EC 89 55 F8 ..SVW3..M..M..U.
00414B90 89 45 FC 33 C0 55 68 11 4C 41 00 64 FF 30 64 89 .E.3.Uh.LA.d.0d.
00414BA0 20 C6 45 F7 00 8B 45 FC 8B 10 FF 52 14 8B D8 8B  .E...E....R....
00414BB0 45 F8 8B 10 FF 52 14 3B D8 75 3B 8B F3 4E 85 F6 E....R.;.u;..N..
00414BC0 7C 30 46 33 DB 8D 4D F0 8B D3 8B 45 FC 8B 38 FF |0F3..M....E..8.
00414BD0 57 0C 8B 45 F0 50 8D 4D EC 8B D3 8B 45 F8 8B 38 W..E.P.M....E..8
00414BE0 FF 57 0C 8B 55 EC 58 E8 60 FA FE FF 75 08 43 4E .W..U.X.`...u.CN
00414BF0 75 D3 C6 45 F7 01 33 C0 5A 59 59 64 89 10 68 18 u..E..3.ZYYd..h.
00414C00 4C 41 00 8D 45 EC BA 02 00 00 00 E8 54 F6 FE FF LA..E.......T...
00414C10 C3 E9 0E F0 FE FF EB EB 8A 45 F7 5F 5E 5B 8B E5 .........E._^[..
00414C20 5D C3 8B C0 8B 45 04 C3 53 56 83 C4 F8 8B F1 8B ]....E..SV......
00414C30 DA E8 EE FF FF FF 50 89 74 24 04 C6 44 24 08 00 ......P.t$..D$..
00414C40 8D 44 24 04 50 6A 00 8B CB B2 01 A1 5C 34 41 00 .D$.Pj......\4A.
00414C50 E8 EF 63 FF FF E9 02 F0 FE FF 59 5A 5E 5B C3 90 ..c.......YZ^[..
00414C60 55 8B EC 6A 00 53 56 57 8B F9 8B F2 8B D8 33 C0 U..j.SVW......3.
00414C70 55 68 A8 4C 41 00 64 FF 30 64 89 20 8D 55 FC 8B Uh.LA.d.0d. .U..
00414C80 C6 E8 CA 13 FF FF 8B 55 FC 8B CF 8B C3 E8 96 FF .......U........
00414C90 FF FF 33 C0 5A 59 59 64 89 10 68 AF 4C 41 00 8D ..3.ZYYd..h.LA..
00414CA0 45 FC E8 99 F5 FE FF C3 E9 77 EF FE FF EB F0 5F E........w....._
00414CB0 5E 5B 59 5D C3 8D 40 00 55 8B EC 83 C4 F0 53 56 ^[Y]..@.U.....SV
00414CC0 57 33 DB 89 5D F0 89 5D F4 8B F1 8B DA 89 45 FC W3..]..]......E.
00414CD0 33 C0 55 68 90 4D 41 00 64 FF 30 64 89 20 8B 45 3.Uh.MA.d.0d. .E
00414CE0 FC E8 C6 FD FF FF 33 C0 55 68 6E 4D 41 00 64 FF ......3.UhnMA.d.
00414CF0 30 64 89 20 8D 4D F4 8B D3 8B 45 FC 8B 38 FF 57 0d. .M....E..8.W
00414D00 0C 8B D3 8B 45 FC 8B 08 FF 51 18 89 45 F8 8D 4D ....E....Q..E..M
00414D10 F0 8B D6 8B 45 FC 8B 38 FF 57 0C 8B 4D F0 8B D3 ....E..8.W..M...
00414D20 8B 45 FC 8B 38 FF 57 20 8B D6 8B 45 FC 8B 08 FF .E..8.W ...E....
00414D30 51 18 8B C8 8B D3 8B 45 FC 8B 18 FF 53 24 8B 4D Q......E....S$.M
00414D40 F4 8B D6 8B 45 FC 8B 18 FF 53 20 8B 4D F8 8B D6 ....E....S .M...
00414D50 8B 45 FC 8B 18 FF 53 24 33 C0 5A 59 59 64 89 10 .E....S$3.ZYYd..
00414D60 68 75 4D 41 00 8B 45 FC E8 FB FD FF FF C3 E9 B1 huMA..E.........
00414D70 EE FE FF EB F0 33 C0 5A 59 59 64 89 10 68 97 4D .....3.ZYYd..h.M
00414D80 41 00 8D 45 F0 BA 02 00 00 00 E8 D5 F4 FE FF C3 A..E............
00414D90 E9 8F EE FE FF EB EB 5F 5E 5B 8B E5 5D C3 8B C0 ......._^[..]...
00414DA0 8B 10 FF 52 14 C3 8B C0 33 C0 C3 90 55 8B EC 6A ...R....3...U..j
00414DB0 00 53 8B D8 33 C0 55 68 F1 4D 41 00 64 FF 30 64 .S..3.Uh.MA.d.0d
00414DC0 89 20 8D 55 FC 8B C3 8B 08 FF 51 1C 8B 45 FC E8 . .U......Q..E..
00414DD0 2C F9 FE FF E8 AB 34 FF FF 8B D8 33 C0 5A 59 59 ,.....4....3.ZYY
00414DE0 64 89 10 68 F8 4D 41 00 8D 45 FC E8 50 F4 FE FF d..h.MA..E..P...
00414DF0 C3 E9 2E EE FE FF EB F0 8B C3 5B 59 5D C3 8B C0 ..........[Y]...
00414E00 55 8B EC 83 C4 E0 53 56 57 33 C9 89 4D E0 89 4D U.....SVW3..M..M
00414E10 E8 89 4D E4 89 55 F8 89 45 FC 33 C0 55 68 0B 4F ..M..U..E.3.Uh.O
00414E20 41 00 64 FF 30 64 89 20 8B 45 FC 8B 10 FF 52 14 A.d.0d. .E....R.
00414E30 89 45 F0 33 DB 8D 45 E4 BA 24 4F 41 00 E8 96 F4 .E.3..E..$OA....
00414E40 FE FF 8B 75 F0 4E 85 F6 7C 32 46 C7 45 F4 00 00 ...u.N..|2F.E...
00414E50 00 00 8D 4D E0 8B 55 F4 8B 45 FC 8B 38 FF 57 0C ...M..U..E..8.W.
00414E60 8B 45 E0 E8 98 F6 FE FF 8B F8 8B 45 E4 E8 8E F6 .E.........E....
00414E70 FE FF 03 F8 03 DF FF 45 F4 4E 75 D6 8B 45 F8 8B .......E.Nu..E..
00414E80 CB 33 D2 E8 A8 F4 FE FF 8B 45 F8 8B 00 89 45 EC .3.......E....E.
00414E90 8B 75 F0 4E 85 F6 7C 58 46 C7 45 F4 00 00 00 00 .u.N..|XF.E.....
00414EA0 8D 4D E8 8B 55 F4 8B 45 FC 8B 18 FF 53 0C 8B 45 .M..U..E....S..E
00414EB0 E8 E8 4A F6 FE FF 8B D8 85 DB 74 10 8B 55 EC 8B ..J.......t..U..
00414EC0 45 E8 8B CB E8 53 DD FE FF 01 5D EC 8B 45 E4 E8 E....S....]..E..
00414ED0 2C F6 FE FF 8B D8 85 DB 74 10 8B 55 EC 8B 45 E4 ,.......t..U..E.
00414EE0 8B CB E8 35 DD FE FF 01 5D EC FF 45 F4 4E 75 B0 ...5....]..E.Nu.
00414EF0 33 C0 5A 59 59 64 89 10 68 12 4F 41 00 8D 45 E0 3.ZYYd..h.OA..E.
00414F00 BA 03 00 00 00 E8 5A F3 FE FF C3 E9 14 ED FE FF ......Z.........
00414F10 EB EB 5F 5E 5B 8B E5 5D C3 00 00 00 FF FF FF FF .._^[..]........
00414F20 02 00 00 00 0D 0A 00 00 55 8B EC 83 C4 F4 53 56 ........U.....SV
00414F30 57 33 C9 89 4D F4 89 55 FC 8B D8 33 C0 55 68 A0 W3..M..U...3.Uh.
00414F40 4F 41 00 64 FF 30 64 89 20 8B C3 8B 10 FF 52 14 OA.d.0d. .....R.
00414F50 8B F0 4E 85 F6 7C 2C 46 C7 45 F8 00 00 00 00 8D ..N..|,F.E......
00414F60 4D F4 8B 55 F8 8B C3 8B 38 FF 57 0C 8B 55 F4 8B M..U....8.W..U..
00414F70 4D FC 8B C3 8B 38 FF 57 34 85 C0 74 0D FF 45 F8 M....8.W4..t..E.
00414F80 4E 75 DC C7 45 F8 FF FF FF FF 33 C0 5A 59 59 64 Nu..E.....3.ZYYd
00414F90 89 10 68 A7 4F 41 00 8D 45 F4 E8 A1 F2 FE FF C3 ..h.OA..E.......
00414FA0 E9 7F EC FE FF EB F0 8B 45 F8 5F 5E 5B 8B E5 5D ........E._^[..]
00414FB0 C3 8D 40 00 55 8B EC 83 C4 E8 53 56 33 C9 89 4D ..@.U.....SV3..M
00414FC0 E8 89 4D EC 89 4D F4 89 55 FC 8B D8 33 C0 55 68 ..M..M..U...3.Uh
00414FD0 77 50 41 00 64 FF 30 64 89 20 8B C3 8B 10 FF 52 wPA.d.0d. .....R
00414FE0 14 48 85 C0 7C 67 40 89 45 F0 C7 45 F8 00 00 00 .H..|g@.E..E....
00414FF0 00 8D 4D F4 8B 55 F8 8B C3 8B 30 FF 56 0C 8B C3 ..M..U....0.V...
00415000 E8 0F 06 00 00 8B D0 8D 45 EC E8 19 F4 FE FF 8B ........E.......
00415010 45 EC 8B 55 F4 E8 0A 6C FF FF 8B F0 85 F6 74 25 E..U...l......t%
00415020 8D 45 E8 50 8B CE 49 BA 01 00 00 00 8B 45 F4 E8 .E.P..I......E..
00415030 2C F7 FE FF 8B 55 E8 8B 4D FC 8B C3 8B 30 FF 56 ,....U..M....0.V
00415040 34 85 C0 74 0F FF 45 F8 FF 4D F0 75 A4 C7 45 F8 4..t..E..M.u..E.
00415050 FF FF FF FF 33 C0 5A 59 59 64 89 10 68 7E 50 41 ....3.ZYYd..h~PA
00415060 00 8D 45 E8 BA 02 00 00 00 E8 F6 F1 FE FF 8D 45 ..E............E
00415070 F4 E8 CA F1 FE FF C3 E9 A8 EB FE FF EB E3 8B 45 ...............E
00415080 F8 5E 5B 8B E5 5D C3 90 53 56 57 55 8B EA 8B F8 .^[..]..SVWU....
00415090 8B C7 8B 10 FF 52 14 8B D8 4B 85 DB 7C 14 43 33 .....R...K..|.C3
004150A0 F6 8B D6 8B C7 8B 08 FF 51 18 3B E8 74 07 46 4B ........Q.;.t.FK
004150B0 75 EF 83 CE FF 8B C6 5D 5F 5E 5B C3 55 8B EC 51 u......]_^[.U..Q
004150C0 53 56 57 89 4D FC 8B FA 8B F0 8B 4D FC 8B D7 8B SVW.M......M....
004150D0 C6 8B 18 FF 53 60 8B 4D 08 8B D7 8B C6 8B 18 FF ....S`.M........
004150E0 53 24 5F 5E 5B 59 5D C2 04 00 8B C0 55 8B EC 51 S$_^[Y].....U..Q
004150F0 56 8B F0 6A 20 8B CA A1 40 3B 41 00 B2 01 E8 B9 V..j ...@;A.....
00415100 0F 00 00 89 45 FC 33 C0 55 68 34 51 41 00 64 FF ....E.3.Uh4QA.d.
00415110 30 64 89 20 8B 55 FC 8B C6 8B 08 FF 51 6C 33 C0 0d. .U......Ql3.
00415120 5A 59 59 64 89 10 68 3B 51 41 00 8B 45 FC E8 ED ZYYd..h;QA..E...
00415130 E5 FE FF C3 E9 EB EA FE FF EB F0 5E 59 5D C3 90 ...........^Y]..
00415140 55 8B EC 83 C4 F8 53 56 33 C9 89 4D F8 8B DA 89 U.....SV3..M....
00415150 45 FC 33 C0 55 68 DD 51 41 00 64 FF 30 64 89 20 E.3.Uh.QA.d.0d. 
00415160 8B 45 FC E8 44 F9 FF FF 33 C0 55 68 C0 51 41 00 .E..D...3.Uh.QA.
00415170 64 FF 30 64 89 20 8B C3 8B 10 FF 12 8B F0 8B C3 d.0d. ..........
00415180 E8 F7 0A 00 00 2B F0 8D 45 F8 8B CE 33 D2 E8 9D .....+..E...3...
00415190 F1 FE FF 8B 55 F8 8B CE 8B C3 8B 18 FF 53 0C 8B ....U........S..
004151A0 55 F8 8B 45 FC 8B 08 FF 51 2C 33 C0 5A 59 59 64 U..E....Q,3.ZYYd
004151B0 89 10 68 C7 51 41 00 8B 45 FC E8 A9 F9 FF FF C3 ..h.QA..E.......
004151C0 E9 5F EA FE FF EB F0 33 C0 5A 59 59 64 89 10 68 ._.....3.ZYYd..h
004151D0 E4 51 41 00 8D 45 F8 E8 64 F0 FE FF C3 E9 42 EA .QA..E..d.....B.
004151E0 FE FF EB F0 5E 5B 59 59 5D C3 8B C0 55 8B EC 83 ....^[YY]...U...
004151F0 C4 F8 53 56 57 33 DB 89 5D F8 8B F1 8B DA 89 45 ..SVW3..]......E
00415200 FC 33 C0 55 68 8D 52 41 00 64 FF 30 64 89 20 3B .3.Uh.RA.d.0d. ;
00415210 F3 74 64 8B 45 FC E8 91 F8 FF FF 33 C0 55 68 70 .td.E......3.Uhp
00415220 52 41 00 64 FF 30 64 89 20 8D 4D F8 8B D3 8B 45 RA.d.0d. .M....E
00415230 FC 8B 38 FF 57 0C 8B D3 8B 45 FC 8B 08 FF 51 18 ..8.W....E....Q.
00415240 8B F8 8B D3 8B 45 FC 8B 08 FF 51 48 57 8B 4D F8 .....E....QHW.M.
00415250 8B D6 8B 45 FC 8B 18 FF 53 64 33 C0 5A 59 59 64 ...E....Sd3.ZYYd
00415260 89 10 68 77 52 41 00 8B 45 FC E8 F9 F8 FF FF C3 ..hwRA..E.......
00415270 E9 AF E9 FE FF EB F0 33 C0 5A 59 59 64 89 10 68 .......3.ZYYd..h
00415280 94 52 41 00 8D 45 F8 E8 B4 EF FE FF C3 E9 92 E9 .RA..E..........
00415290 FE FF EB F0 5F 5E 5B 59 59 5D C3 90 53 56 57 55 ...._^[YY]..SVWU
004152A0 51 89 0C 24 8B FA 8B F0 8B D7 8B C6 8B 08 FF 51 Q..$...........Q
004152B0 18 8B E8 8B D7 8B C6 8B 08 FF 51 48 55 8B 4C 24 ..........QHU.L$
004152C0 04 8B D7 8B C6 8B 18 FF 53 64 5A 5D 5F 5E 5B C3 ........SdZ]_^[.
004152D0 C3 8D 40 00 55 8B EC 83 C4 F4 33 C9 89 4D F4 89 ..@.U.....3..M..
004152E0 55 F8 89 45 FC 33 C0 55 68 78 53 41 00 64 FF 30 U..E.3.UhxSA.d.0
004152F0 64 89 20 8B 45 F8 E8 89 13 00 00 8B 45 FC E8 A9 d. .E.......E...
00415300 F7 FF FF 33 C0 55 68 53 53 41 00 64 FF 30 64 89 ...3.UhSSA.d.0d.
00415310 20 8B 45 FC 8B 10 FF 52 44 EB 16 8D 55 F4 8B 45  .E....RD...U..E
00415320 F8 E8 AA 13 00 00 8B 55 F4 8B 45 FC 8B 08 FF 51 .......U..E....Q
00415330 38 8B 45 F8 E8 9F 12 00 00 84 C0 74 DE 33 C0 5A 8.E........t.3.Z
00415340 59 59 64 89 10 68 5A 53 41 00 8B 45 FC E8 16 F8 YYd..hZSA..E....
00415350 FF FF C3 E9 CC E8 FE FF EB F0 8B 45 F8 E8 2A 13 ...........E..*.
00415360 00 00 33 C0 5A 59 59 64 89 10 68 7F 53 41 00 8D ..3.ZYYd..h.SA..
00415370 45 F4 E8 C9 EE FE FF C3 E9 A7 E8 FE FF EB F0 8B E...............
00415380 E5 5D C3 90 55 8B EC 51 56 8B F0 68 FF FF 00 00 .]..U..QV..h....
00415390 8B CA A1 40 3B 41 00 B2 01 E8 1E 0D 00 00 89 45 ...@;A.........E
004153A0 FC 33 C0 55 68 CF 53 41 00 64 FF 30 64 89 20 8B .3.Uh.SA.d.0d. .
004153B0 55 FC 8B C6 8B 08 FF 51 78 33 C0 5A 59 59 64 89 U......Qx3.ZYYd.
004153C0 10 68 D6 53 41 00 8B 45 FC E8 52 E3 FE FF C3 E9 .h.SA..E..R.....
004153D0 50 E8 FE FF EB F0 5E 59 5D C3 8B C0 55 8B EC 6A P.....^Y]...U..j
004153E0 00 53 56 8B F2 8B D8 33 C0 55 68 29 54 41 00 64 .SV....3.Uh)TA.d
004153F0 FF 30 64 89 20 8D 55 FC 8B C3 8B 08 FF 51 1C 8B .0d. .U......Q..
00415400 45 FC E8 F9 F0 FE FF 8B C8 8B 55 FC 8B C6 E8 B9 E.........U.....
00415410 0A 00 00 33 C0 5A 59 59 64 89 10 68 30 54 41 00 ...3.ZYYd..h0TA.
00415420 8D 45 FC E8 18 EE FE FF C3 E9 F6 E7 FE FF EB F0 .E..............
00415430 5E 5B 59 5D C3 8D 40 00 C3 8D 40 00 53 56 8B F2 ^[Y]..@...@.SV..
00415440 8B D8 83 7B 0C 00 74 08 8B 43 0C 8B 10 FF 52 10 ...{..t..C....R.
00415450 8D 43 0C 8B D6 E8 86 07 FF FF 83 7B 0C 00 74 0A .C.........{..t.
00415460 8B D3 8B 43 0C 8B 08 FF 51 0C 5E 5B C3 8D 40 00 ...C....Q.^[..@.
00415470 55 8B EC 6A 00 53 56 8B F2 8B D8 33 C0 55 68 B3 U..j.SV....3.Uh.
00415480 54 41 00 64 FF 30 64 89 20 8D 45 FC 8B D6 E8 A5 TA.d.0d. .E.....
00415490 EF FE FF 8B 55 FC 8B C3 8B 08 FF 51 2C 33 C0 5A ....U......Q,3.Z
004154A0 59 59 64 89 10 68 BA 54 41 00 8D 45 FC E8 8E ED YYd..h.TA..E....
004154B0 FE FF C3 E9 6C E7 FE FF EB F0 5E 5B 59 5D C3 90 ....l.....^[Y]..
004154C0 55 8B EC 83 C4 F8 53 33 C9 89 4D F8 8B DA 89 45 U.....S3..M....E
004154D0 FC 33 C0 55 68 74 55 41 00 64 FF 30 64 89 20 8B .3.UhtUA.d.0d. .
004154E0 45 FC E8 C5 F5 FF FF 33 D2 55 68 57 55 41 00 64 E......3.UhWUA.d
004154F0 FF 32 64 89 22 8B 45 FC 8B 10 FF 52 44 85 DB 74 .2d.".E....RD..t
00415500 40 EB 39 8B C3 EB 01 43 8A 13 84 D2 74 0A 80 EA @.9....C....t...
00415510 0A 74 05 80 EA 03 75 EF 8B CB 2B C8 8D 55 F8 92 .t....u...+..U..
00415520 E8 0B EE FE FF 8B 55 F8 8B 45 FC 8B 08 FF 51 38 ......U..E....Q8
00415530 80 3B 0D 75 01 43 80 3B 0A 75 01 43 80 3B 00 75 .;.u.C.;.u.C.;.u
00415540 C2 33 C0 5A 59 59 64 89 10 68 5E 55 41 00 8B 45 .3.ZYYd..h^UA..E
00415550 FC E8 12 F6 FF FF C3 E9 C8 E6 FE FF EB F0 33 C0 ..............3.
00415560 5A 59 59 64 89 10 68 7B 55 41 00 8D 45 F8 E8 CD ZYYd..h{UA..E...
00415570 EC FE FF C3 E9 AB E6 FE FF EB F0 5B 59 59 5D C3 ...........[YY].
00415580 C3 8D 40 00 55 8B EC 83 C4 F4 53 56 57 33 C9 89 ..@.U.....SVW3..
00415590 4D F4 89 55 F8 89 45 FC 33 C0 55 68 FA 55 41 00 M..U..E.3.Uh.UA.
004155A0 64 FF 30 64 89 20 8B 45 F8 E8 62 16 00 00 8B 45 d.0d. .E..b....E
004155B0 FC 8B 10 FF 52 14 8B D8 4B 85 DB 7C 1F 43 33 F6 ....R...K..|.C3.
004155C0 8D 4D F4 8B D6 8B 45 FC 8B 38 FF 57 0C 8B 55 F4 .M....E..8.W..U.
004155D0 8B 45 F8 E8 E0 16 00 00 46 4B 75 E4 8B 45 F8 E8 .E......FKu..E..
004155E0 34 16 00 00 33 C0 5A 59 59 64 89 10 68 01 56 41 4...3.ZYYd..h.VA
004155F0 00 8D 45 F4 E8 47 EC FE FF C3 E9 25 E6 FE FF EB ..E..G.....%....
00415600 F0 5F 5E 5B 8B E5 5D C3 8B C2 8B D1 E8 03 23 FF ._^[..].......#.
00415610 FF C3 8B C0 53 8B D8 F6 43 04 04 75 09 B2 3D 8B ....S...C..u..=.
00415620 C3 E8 06 00 00 00 8A 43 07 5B C3 90 53 56 8B DA .......C.[..SV..
00415630 8B F0 3A 5E 07 75 06 F6 46 04 04 75 07 80 4E 04 ..:^.u..F..u..N.
00415640 04 88 5E 07 5E 5B C3 90 53 56 E8 A9 E3 FE FF 8B ..^.^[..SV......
00415650 DA 8B F0 33 C0 89 46 20 89 46 24 33 C0 89 46 28 ...3..F .F$3..F(
00415660 89 46 2C 8B D3 80 E2 FC 8B C6 E8 75 F2 FF FF 8B .F,........u....
00415670 46 14 85 C0 74 10 8B C8 8B 46 10 8B 15 1C 39 41 F...t....F....9A
00415680 00 E8 26 F6 FE FF 33 C0 89 46 14 33 D2 8B C6 8B ..&...3..F.3....
00415690 08 FF 51 28 84 DB 7E 07 8B C6 E8 41 E3 FE FF 5E ..Q(..~....A...^
004156A0 5B C3 8B C0 53 33 C9 8B 18 FF 53 3C 5B C3 8B C0 [...S3....S<[...
004156B0 53 56 57 55 51 8B F9 8B F2 8B D8 80 7B 1C 00 75 SVWUQ.......{..u
004156C0 08 8B 43 14 89 04 24 EB 2E 8B CC 8B D6 8B C3 8B ..C...$.........
004156D0 28 FF 95 8C 00 00 00 84 C0 74 1C 8A 43 1D 2C 01 (........t..C.,.
004156E0 72 26 FE C8 74 02 EB 0F 8B 15 FC A6 42 00 33 C9 r&..t.......B.3.
004156F0 8B C3 E8 69 F5 FF FF 57 8B CE 8B 54 24 04 8B C3 ...i...W...T$...
00415700 8B 18 FF 93 88 00 00 00 8B 04 24 5A 5D 5F 5E 5B ..........$Z]_^[
00415710 C3 8D 40 00 53 83 78 08 00 75 11 66 83 78 22 00 ..@.S.x..u.f.x".
00415720 74 0A 8B D8 8B D0 8B 43 24 FF 53 20 5B C3 8B C0 t......C$.S [...
00415730 53 83 78 08 00 75 11 66 83 78 2A 00 74 0A 8B D8 S.x..u.f.x*.t...
00415740 8B D0 8B 43 2C FF 53 28 5B C3 8B C0 53 8B D8 83 ...C,.S([...S...
00415750 7B 14 00 74 33 8B C3 8B 10 FF 92 84 00 00 00 8B {..t3...........
00415760 43 10 8B 4B 14 8B 15 1C 39 41 00 E8 3C F5 FE FF C..K....9A..<...
00415770 33 C0 89 43 14 33 D2 8B C3 8B 08 FF 51 28 8B C3 3..C.3......Q(..
00415780 8B 10 FF 92 80 00 00 00 5B C3 8B C0 53 56 8B F2 ........[...SV..
00415790 8B D8 85 F6 7C 05 3B 73 14 7C 0F 8B 15 E0 A8 42 ....|.;s.|.....B
004157A0 00 8B CE 8B C3 E8 B6 F4 FF FF 8B C3 8B 10 FF 92 ................
004157B0 84 00 00 00 8B 43 10 8D 04 F0 8B 15 1C 39 41 00 .....C.......9A.
004157C0 E8 D3 F5 FE FF FF 4B 14 8B 43 14 3B F0 7D 19 2B ......K..C.;.}.+
004157D0 C6 8B C8 C1 E1 03 8B 43 10 8D 14 F0 8B 43 10 8D .......C.....C..
004157E0 44 F0 08 E8 34 D4 FE FF 8B C3 8B 10 FF 92 80 00 D...4...........
004157F0 00 00 5E 5B C3 8D 40 00 53 56 57 8B F9 8B F2 8B ..^[..@.SVW.....
00415800 D8 85 F6 7C 05 3B 73 14 7C 0F 8B 15 E0 A8 42 00 ...|.;s.|.....B.
00415810 8B CE 8B C3 E8 47 F4 FF FF 85 FF 7C 05 3B 7B 14 .....G.....|.;{.
00415820 7C 0F 8B 15 E0 A8 42 00 8B CF 8B C3 E8 2F F4 FF |.....B....../..
00415830 FF 8B C3 8B 10 FF 92 84 00 00 00 8B CF 8B D6 8B ................
00415840 C3 E8 0E 00 00 00 8B C3 8B 10 FF 92 80 00 00 00 ................
00415850 5F 5E 5B C3 53 8B 58 10 8D 14 D3 8B 40 10 8D 04 _^[.S.X.....@...
00415860 C8 8B 0A 8B 18 89 1A 89 08 8B 4A 04 8B 58 04 89 ..........J..X..
00415870 5A 04 89 48 04 5B C3 90 53 56 57 55 83 C4 F0 89 Z..H.[..SVWU....
00415880 4C 24 04 89 14 24 8B F8 C6 44 24 08 00 33 F6 8B L$...$...D$..3..
00415890 47 14 48 89 44 24 0C 3B 74 24 0C 7F 3F 8B 5C 24 G.H.D$.;t$..?.\$
004158A0 0C 03 DE D1 EB 8B 47 10 8B 14 D8 8B 0C 24 8B C7 ......G......$..
004158B0 8B 28 FF 55 34 85 C0 7D 05 8D 73 01 EB 18 8B D3 .(.U4..}..s.....
004158C0 4A 89 54 24 0C 85 C0 75 0D C6 44 24 08 01 80 7F J.T$...u..D$....
004158D0 1D 01 74 02 8B F3 3B 74 24 0C 7E C1 8B 44 24 04 ..t...;t$.~..D$.
004158E0 89 30 8A 44 24 08 83 C4 10 5D 5F 5E 5B C3 8B C0 .0.D$....]_^[...
004158F0 53 56 57 8B F9 8B F2 8B D8 85 F6 7C 05 3B 73 14 SVW........|.;s.
00415900 7C 0F 8B 15 E0 A8 42 00 8B CE 8B C3 E8 4F F3 FF |.....B......O..
00415910 FF 8B C7 8B 53 10 8B 14 F2 E8 76 E9 FE FF 5F 5E ....S.....v..._^
00415920 5B C3 8B C0 8B 40 18 C3 8B 40 14 C3 53 56 8B F2 [....@...@..SV..
00415930 8B D8 85 F6 7C 05 3B 73 14 7C 0F 8B 15 E0 A8 42 ....|.;s.|.....B
00415940 00 8B CE 8B C3 E8 16 F3 FF FF 8B 43 10 8B 44 F0 ...........C..D.
00415950 04 5E 5B C3 56 8B 50 18 83 FA 40 7E 0E 8B F2 85 .^[.V.P...@~....
00415960 F6 79 03 83 C6 03 C1 FE 02 EB 11 83 FA 08 7E 07 .y............~.
00415970 BE 10 00 00 00 EB 05 BE 04 00 00 00 03 F2 8B D6 ................
00415980 8B 08 FF 51 28 5E C3 90 53 56 51 8B F2 8B D8 80 ...Q(^..SVQ.....
00415990 7B 1C 00 75 0E 8B D6 8B C3 E8 8A F5 FF FF 89 04 {..u............
004159A0 24 EB 19 8B CC 8B D6 8B C3 8B 18 FF 93 8C 00 00 $...............
004159B0 00 84 C0 75 07 C7 04 24 FF FF FF FF 8B 04 24 5A ...u...$......$Z
004159C0 5E 5B C3 90 53 56 8B F0 6A 00 8B C6 8B 18 FF 53 ^[..SV..j......S
004159D0 64 5E 5B C3 55 8B EC 53 56 57 8B F9 8B F2 8B D8 d^[.U..SVW......
004159E0 80 7B 1C 00 74 0F 8B 15 98 A7 42 00 33 C9 8B C3 .{..t.....B.3...
004159F0 E8 6B F2 FF FF 85 F6 7C 05 3B 73 14 7E 0F 8B 15 .k.....|.;s.~...
00415A00 E0 A8 42 00 8B CE 8B C3 E8 53 F2 FF FF 8B 45 08 ..B......S....E.
00415A10 50 8B CF 8B D6 8B C3 8B 18 FF 93 88 00 00 00 5F P.............._
00415A20 5E 5B 5D C2 04 00 8B C0 55 8B EC 53 56 57 8B F9 ^[].....U..SVW..
00415A30 8B F2 8B D8 8B C3 8B 10 FF 92 84 00 00 00 8B 43 ...............C
00415A40 14 3B 43 18 75 07 8B C3 E8 07 FF FF FF 8B 43 14 .;C.u.........C.
00415A50 3B F0 7D 1D 8B 53 10 8D 54 F2 08 52 8B 53 10 8D ;.}..S..T..R.S..
00415A60 14 F2 2B C6 8B C8 C1 E1 03 8B C2 5A E8 AB D1 FE ..+........Z....
00415A70 FF 8B 43 10 8D 04 F0 8B F0 33 C0 89 06 8B 45 08 ..C......3....E.
00415A80 89 46 04 8B C6 8B D7 E8 08 E8 FE FF FF 43 14 8B .F...........C..
00415A90 C3 8B 10 FF 92 80 00 00 00 5F 5E 5B 5D C2 04 00 ........._^[]...
00415AA0 53 56 57 8B F9 8B F2 8B D8 80 7B 1C 00 74 0F 8B SVW.......{..t..
00415AB0 15 98 A7 42 00 33 C9 8B C3 E8 A2 F1 FF FF 85 F6 ...B.3..........
00415AC0 7C 05 3B 73 14 7C 0F 8B 15 E0 A8 42 00 8B CE 8B |.;s.|.....B....
00415AD0 C3 E8 8A F1 FF FF 8B C3 8B 10 FF 92 84 00 00 00 ................
00415AE0 8B 43 10 8D 04 F0 8B D7 E8 A7 E7 FE FF 8B C3 8B .C..............
00415AF0 10 FF 92 80 00 00 00 5F 5E 5B C3 90 53 56 57 8B ......._^[..SVW.
00415B00 F9 8B F2 8B D8 85 F6 7C 05 3B 73 14 7C 0F 8B 15 .......|.;s.|...
00415B10 E0 A8 42 00 8B CE 8B C3 E8 43 F1 FF FF 8B C3 8B ..B......C......
00415B20 10 FF 92 84 00 00 00 8B 43 10 89 7C F0 04 8B C3 ........C..|....
00415B30 8B 10 FF 92 80 00 00 00 5F 5E 5B C3 55 8B EC 83 ........_^[.U...
00415B40 C4 F0 53 56 89 4D F4 89 55 F8 89 45 FC 8B 5D F8 ..SV.M..U..E..].
00415B50 8B 75 F4 8B 45 F8 03 45 F4 D1 E8 89 45 F0 EB 01 .u..E..E....E...
00415B60 43 8B 4D F0 8B D3 8B 45 FC FF 55 08 85 C0 7C F0 C.M....E..U...|.
00415B70 EB 01 4E 8B 4D F0 8B D6 8B 45 FC FF 55 08 85 C0 ..N.M....E..U...
00415B80 7F F0 3B F3 7C 20 8B CE 8B D3 8B 45 FC E8 C2 FC ..;.| .....E....
00415B90 FF FF 3B 5D F0 75 05 89 75 F0 EB 08 3B 75 F0 75 ..;].u..u...;u.u
00415BA0 03 89 5D F0 43 4E 3B F3 7D B7 3B 75 F8 7E 11 8B ..].CN;.}.;u.~..
00415BB0 45 08 50 8B CE 8B 55 F8 8B 45 FC E8 7C FF FF FF E.P...U..E..|...
00415BC0 89 5D F8 3B 5D F4 7C 85 5E 5B 8B E5 5D C2 04 00 .].;].|.^[..]...
00415BD0 53 56 8B F2 8B D8 8B D6 C1 E2 03 8D 43 10 E8 95 SV..........C...
00415BE0 CE FE FF 89 73 18 5E 5B C3 8D 40 00 84 D2 74 09 ....s.^[..@...t.
00415BF0 8B 10 FF 92 84 00 00 00 C3 8B 10 FF 92 80 00 00 ................
00415C00 00 C3 8B C0 53 8B 58 10 8B 0C CB 8B 58 10 8B 14 ....S.X.....X...
00415C10 D3 8B 18 FF 53 34 5B C3 BA 04 5C 41 00 8B 08 FF ....S4[...\A....
00415C20 91 94 00 00 00 C3 8B C0 53 56 8B F2 8B D8 80 7B ........SV.....{
00415C30 1C 00 75 28 83 7B 14 01 7E 22 8B C3 8B 10 FF 92 ..u(.{..~"......
00415C40 84 00 00 00 56 8B 4B 14 49 33 D2 8B C3 E8 EA FE ....V.K.I3......
00415C50 FF FF 8B C3 8B 10 FF 92 80 00 00 00 5E 5B C3 90 ............^[..
00415C60 80 78 1E 00 74 0A 8B C2 8B D1 E8 6D 1C FF FF C3 .x..t......m....
00415C70 8B C2 8B D1 E8 9B 1C FF FF C3 8B C0 83 C4 F8 6A ...............j
00415C80 00 6A 00 B2 01 8B 08 FF 51 18 89 04 24 89 54 24 .j......Q...$.T$
00415C90 04 8B 04 24 8B 54 24 04 59 5A C3 90             ...$.T$.YZ..   

;; fn00415C9C: 00415C9C
;;   Called from:
;;     0041B84C (in fn0041B824)
fn00415C9C proc
	push	ebp
	mov	ebp,esp
	push	dword ptr [ebp+0C]
	push	dword ptr [ebp+08]
	xor	edx,edx
	mov	ecx,[eax]
	call	dword ptr [ecx+18]
	pop	ebp
	ret	0008
00415CB0 53 83 C4 F0 8B D8 6A 00 6A 00 B2 01 8B C3 8B 08 S.....j.j.......
00415CC0 FF 51 18 89 44 24 08 89 54 24 0C 6A 00 6A 00 B2 .Q..D$..T$.j.j..
00415CD0 02 8B C3 8B 08 FF 51 18 89 04 24 89 54 24 04 FF ......Q...$.T$..
00415CE0 74 24 0C FF 74 24 0C 33 D2 8B C3 8B 08 FF 51 18 t$..t$.3......Q.
00415CF0 8B 04 24 8B 54 24 04 83 C4 10 5B C3 C3 8D 40 00 ..$.T$....[...@.
00415D00 55 8B EC 8B C8 83 7D 0C FF 75 0B 81 7D 08 00 00 U.....}..u..}...
00415D10 00 80 72 17 EB 02 7C 13 83 7D 0C 00 75 0B 81 7D ..r...|..}..u..}
00415D20 08 FF FF FF 7F 76 1B EB 02 7E 17 8B 0D 50 A9 42 .....v...~...P.B
00415D30 00 B2 01 A1 54 6E 40 00 E8 87 53 FF FF E8 1A DF ....Tn@...S.....
00415D40 FE FF 8B 45 08 8B D0 8B C1 8B 08 FF 51 04 5D C2 ...E........Q.].
00415D50 08 00 8B C0 55 8B EC 81 C4 F8 FE FF FF 8D 95 F8 ....U...........
00415D60 FE FF FF 8B 45 08 8B 40 FC 8B 00 E8 28 D9 FE FF ....E..@....(...
00415D70 8D 85 F8 FE FF FF 89 45 F8 C6 45 FC 04 8D 45 F8 .......E..E...E.
00415D80 50 6A 00 8B 0D 98 A9 42 00 B2 01 A1 8C 31 41 00 Pj.....B.....1A.
00415D90 E8 6B 53 FF FF E8 C2 DE FE FF 8B E5 5D C3 8B C0 .kS.........]...
00415DA0 55 8B EC 83 C4 E0 53 56 66 89 4D E6 8B F2 89 45 U.....SVf.M....E
00415DB0 FC 8D 5D E0 8B 45 FC 89 45 F4 8B 00 8B 40 18 89 ..]..E..E....@..
00415DC0 45 F0 8B 45 FC E8 C2 D8 FE FF 89 03 EB 09 8B 03 E..E............
00415DD0 E8 D7 D8 FE FF 89 03 83 3B 00 74 0A 8B 03 3B 05 ........;.t...;.
00415DE0 58 3A 41 00 75 E8 83 3B 00 75 07 55 E8 63 FF FF X:A.u..;.u.U.c..
00415DF0 FF 59 89 5D EC 8B 03 8B 40 18 89 45 E8 8B 45 F0 .Y.]....@..E..E.
00415E00 3B 45 E8 75 07 55 E8 49 FF FF FF 59 8B C6 99 52 ;E.u.U.I...Y...R
00415E10 50 8A 55 E6 8B 45 FC 8B 08 FF 51 18 5E 5B 8B E5 P.U..E....Q.^[..
00415E20 5D C3 8B C0 55 8B EC 83 C4 F8 53 56 8B DA 8B F0 ]...U.....SV....
00415E30 83 7D 0C FF 75 0B 81 7D 08 00 00 00 80 72 17 EB .}..u..}.....r..
00415E40 02 7C 13 83 7D 0C 00 75 0B 81 7D 08 FF FF FF 7F .|..}..u..}.....
00415E50 76 1B EB 02 7E 17 8B 0D 50 A9 42 00 B2 01 A1 54 v...~...P.B....T
00415E60 6E 40 00 E8 5C 52 FF FF E8 EF DD FE FF 8B 45 08 n@..\R........E.
00415E70 8B D0 33 C9 8A CB 8B C6 8B 18 FF 53 14 99 89 45 ..3........S...E
00415E80 F8 89 55 FC 8B 45 F8 8B 55 FC 5E 5B 59 59 5D C2 ..U..E..U.^[YY].
00415E90 08 00 8B C0 53 56 57 8B D9 8B FA 8B F0 85 DB 74 ....SVW........t
00415EA0 26 8B D7 8B CB 8B C6 8B 30 FF 56 0C 3B D8 74 17 &.......0.V.;.t.
00415EB0 8B 0D 44 A9 42 00 B2 01 A1 54 33 41 00 E8 02 52 ..D.B....T3A...R
00415EC0 FF FF E8 95 DD FE FF 5F 5E 5B C3 90 53 56 57 8B ......._^[..SVW.
00415ED0 D9 8B FA 8B F0 85 DB 74 26 8B D7 8B CB 8B C6 8B .......t&.......
00415EE0 30 FF 56 10 3B D8 74 17 8B 0D EC A7 42 00 B2 01 0.V.;.t.....B...
00415EF0 A1 AC 33 41 00 E8 CA 51 FF FF E8 5D DD FE FF 5F ..3A...Q...]..._
00415F00 5E 5B C3 90 55 8B EC 83 C4 E8 53 56 57 8B FA 89 ^[..U.....SVW...
00415F10 45 FC 83 7D 0C 00 75 1D 83 7D 08 00 75 17 6A 00 E..}..u..}..u.j.
00415F20 6A 00 8B C7 E8 73 FD FF FF 8B C7 8B 10 FF 12 89 j....s..........
00415F30 45 08 89 55 0C 8B 45 08 89 45 F0 8B 45 0C 89 45 E..U..E..E..E..E
00415F40 F4 83 7D 0C 00 75 0B 81 7D 08 00 F0 00 00 76 0D ..}..u..}.....v.
00415F50 EB 02 7E 09 C7 45 EC 00 F0 00 00 EB 06 8B 45 08 ..~..E........E.
00415F60 89 45 EC 8B 45 EC E8 BD CA FE FF 89 45 E8 33 C0 .E..E.......E.3.
00415F70 55 68 E0 5F 41 00 64 FF 30 64 89 20 EB 3D 8B 45 Uh._A.d.0d. .=.E
00415F80 EC 99 3B 55 0C 75 07 3B 45 08 73 09 EB 02 7D 05 ..;U.u.;E.s...}.
00415F90 8B 5D EC EB 03 8B 5D 08 8B 75 E8 8B D6 8B CB 8B .]....]..u......
00415FA0 C7 E8 EE FE FF FF 8B D6 8B CB 8B 45 FC E8 1A FF ...........E....
00415FB0 FF FF 8B C3 99 29 45 08 19 55 0C 83 7D 0C 00 75 .....)E..U..}..u
00415FC0 BD 83 7D 08 00 75 B7 33 C0 5A 59 59 64 89 10 68 ..}..u.3.ZYYd..h
00415FD0 E7 5F 41 00 8B 55 EC 8B 45 E8 E8 79 CA FE FF C3 ._A..U..E..y....
00415FE0 E9 3F DC FE FF EB ED 8B 45 F0 8B 55 F4 5F 5E 5B .?......E..U._^[
00415FF0 8B E5 5D C2 08 00 8B C0 53 56 57 84 D2 74 08 83 ..].....SVW..t..
00416000 C4 F0 E8 89 D9 FE FF 8B F1 8B DA 8B F8 33 D2 8B .............3..
00416010 C7 E8 DA D6 FE FF 89 77 04 8B C7 84 DB 74 0F E8 .......w.....t..
00416020 C4 D9 FE FF 64 8F 05 00 00 00 00 83 C4 0C 8B C7 ....d...........
00416030 5F 5E 5B C3 8B 40 04 E8 90 1D FF FF 83 F8 FF 75 _^[..@.........u
00416040 02 33 C0 C3 8B 40 04 E8 AC 1D FF FF 83 F8 FF 75 .3...@.........u
00416050 02 33 C0 C3 55 8B EC 83 C4 F8 FF 75 0C FF 75 08 .3..U......u..u.
00416060 83 E2 7F 8B 40 04 E8 B9 1D FF FF 89 45 F8 89 55 ....@.......E..U
00416070 FC 8B 45 F8 8B 55 FC 59 59 5D C2 08 00 8D 40 00 ..E..U.YY]....@.
00416080 53 8B DA 8B C8 8B C3 99 52 50 8B C1 8B 10 FF 52 S.......RP.....R
00416090 08 5B C3 90 55 8B EC 53 8B D8 FF 75 0C FF 75 08 .[..U..S...u..u.
004160A0 33 D2 8B C3 8B 08 FF 51 18 8B 43 04 50 E8 C6 04 3......Q..C.P...
004160B0 FF FF E8 79 63 FF FF 5B 5D C2 08 00 55 8B EC 53 ...yc..[]...U..S
004160C0 56 84 D2 74 08 83 C4 F0 E8 C3 D8 FE FF 8B DA 8B V..t............
004160D0 F0 66 8B 45 08 50 6A 00 33 D2 8B C6 E8 1F 00 00 .f.E.Pj.3.......
004160E0 00 8B C6 84 DB 74 0F E8 FC D8 FE FF 64 8F 05 00 .....t......d...
004160F0 00 00 00 83 C4 0C 8B C6 5E 5B 5D C2 04 00 8B C0 ........^[].....
00416100 55 8B EC 83 C4 DC 53 56 57 33 DB 89 5D E0 89 5D U.....SVW3..]..]
00416110 DC 89 5D E8 89 5D E4 84 D2 74 08 83 C4 F0 E8 6D ..]..]...t.....m
00416120 D8 FE FF 8B F1 88 55 FF 8B D8 8B 7D 0C 33 C0 55 ......U....}.3.U
00416130 68 29 62 41 00 64 FF 30 64 89 20 66 81 FF FF FF h)bA.d.0d. f....
00416140 75 69 8B 55 08 8B C6 E8 78 1C FF FF 8B C8 33 D2 ui.U....x.....3.
00416150 8B C3 E8 A1 FE FF FF 83 7B 04 00 0F 8D AD 00 00 ........{.......
00416160 00 8D 55 E8 8B C6 E8 09 1F FF FF 8B 45 E8 89 45 ..U.........E..E
00416170 EC C6 45 F0 0B E8 26 03 FF FF 8D 55 E4 E8 6E 46 ..E...&....U..nF
00416180 FF FF 8B 45 E4 89 45 F4 C6 45 F8 0B 8D 45 EC 50 ...E..E..E...E.P
00416190 6A 01 8B 0D DC A9 42 00 B2 01 A1 48 32 41 00 E8 j.....B....H2A..
004161A0 5C 4F FF FF E8 B3 DA FE FF EB 63 0F B7 D7 8B C6 \O........c.....
004161B0 E8 93 1B FF FF 8B C8 33 D2 8B C3 E8 38 FE FF FF .......3....8...
004161C0 83 7B 04 00 7D 48 8D 55 E0 8B C6 E8 A4 1E FF FF .{..}H.U........
004161D0 8B 45 E0 89 45 EC C6 45 F0 0B E8 C1 02 FF FF 8D .E..E..E........
004161E0 55 DC E8 09 46 FF FF 8B 45 DC 89 45 F4 C6 45 F8 U...F...E..E..E.
004161F0 0B 8D 45 EC 50 6A 01 8B 0D EC A5 42 00 B2 01 A1 ..E.Pj.....B....
00416200 A4 32 41 00 E8 F7 4E FF FF E8 4E DA FE FF 33 C0 .2A...N...N...3.
00416210 5A 59 59 64 89 10 68 30 62 41 00 8D 45 DC BA 04 ZYYd..h0bA..E...
00416220 00 00 00 E8 3C E0 FE FF C3 E9 F6 D9 FE FF EB EB ....<...........
00416230 8B C3 80 7D FF 00 74 0F E8 AB D7 FE FF 64 8F 05 ...}..t......d..
00416240 00 00 00 00 83 C4 0C 8B C3 5F 5E 5B 8B E5 5D C2 ........._^[..].
00416250 08 00 8B C0 53 56 E8 9D D7 FE FF 8B DA 8B F0 8B ....SV..........
00416260 46 04 85 C0 7C 05 E8 F1 1B FF FF 8B D3 80 E2 FC F...|...........
00416270 8B C6 E8 99 D4 FE FF 84 DB 7E 07 8B C6 E8 5E D7 .........~....^.
00416280 FE FF 5E 5B C3 8D 40 00 89 50 04 89 48 08 C3 90 ..^[..@..P..H...
00416290 53 56 57 8B D8 8B 7B 0C 85 FF 7C 24 85 C9 7C 20 SVW...{...|$..| 
004162A0 8B 73 08 2B F7 85 F6 7E 17 3B CE 7D 02 8B F1 8B .s.+...~.;.}....
004162B0 43 04 03 C7 8B CE E8 61 C9 FE FF 01 73 0C EB 02 C......a....s...
004162C0 33 F6 8B C6 5F 5E 5B C3 66 83 E9 01 72 09 74 0C 3..._^[.f...r.t.
004162D0 66 FF C9 74 0C EB 10 89 50 0C EB 0B 01 50 0C EB f..t....P....P..
004162E0 06 03 50 08 89 50 0C 8B 40 0C C3 90 53 56 E8 05 ..P..P..@...SV..
004162F0 D7 FE FF 8B DA 8B F0 8B C6 E8 1A 00 00 00 8B D3 ................
00416300 80 E2 FC 8B C6 E8 06 D4 FE FF 84 DB 7E 07 8B C6 ............~...
00416310 E8 CB D6 FE FF 5E 5B C3 53 8B D8 33 D2 8B C3 E8 .....^[.S..3....
00416320 0C 00 00 00 33 C0 89 43 08 33 C0 89 43 0C 5B C3 ....3..C.3..C.[.
00416330 53 51 89 14 24 8B D8 8B D4 8B C3 8B 08 FF 51 1C SQ..$.........Q.
00416340 8B D0 8B 4B 08 8B C3 E8 3C FF FF FF 8B 04 24 89 ...K....<.....$.
00416350 43 10 5A 5B C3 8D 40 00 53 56 57 8B F2 8B D8 8B C.Z[..@.SVW.....
00416360 7B 0C 8B D6 8B C3 E8 C5 FF FF FF 89 73 08 3B F7 {...........s.;.
00416370 7D 0D 66 B9 02 00 33 D2 8B C3 8B 18 FF 53 14 5F }.f...3......S._
00416380 5E 5B C3 90 53 56 57 83 3A 00 7E 17 8B 0A 3B 48 ^[..SVW.:.~...;H
00416390 08 74 10 8B 0A 81 C1 FF 1F 00 00 81 E1 00 E0 FF .t..............
004163A0 FF 89 0A 8B 70 04 8B CE 8B 3A 8B 58 10 3B FB 74 ....p....:.X.;.t
004163B0 56 83 3A 00 75 0B 8B C6 E8 EF 03 FF FF 33 C9 EB V.:.u........3..
004163C0 46 85 DB 75 13 A1 F8 A8 42 00 0F B7 00 8B 12 E8 F..u....B.......
004163D0 AC 03 FF FF 8B C8 EB 14 8B 0D F8 A8 42 00 0F B7 ............B...
004163E0 09 8B 12 8B C6 E8 A6 03 FF FF 8B C8 85 C9 75 17 ..............u.
004163F0 8B 0D 7C A9 42 00 B2 01 A1 8C 31 41 00 E8 C2 4C ..|.B.....1A...L
00416400 FF FF E8 55 D8 FE FF 8B C1 5F 5E 5B C3 8D 40 00 ...U....._^[..@.
00416410 53 56 57 55 8B F1 8B EA 8B D8 8B 43 0C 85 C0 7C SVWU.......C...|
00416420 38 85 F6 7C 34 8B F8 03 FE 85 FF 7E 2C 3B 7B 08 8..|4......~,;{.
00416430 7E 11 3B 7B 10 7E 09 8B D7 8B C3 E8 F0 FE FF FF ~.;{.~..........
00416440 89 7B 08 8B 53 04 03 53 0C 8B C5 8B CE E8 CA C7 .{..S..S........
00416450 FE FF 89 7B 0C 8B C6 EB 02 33 C0 5D 5F 5E 5B C3 ...{.....3.]_^[.
00416460 55 8B EC 83 C4 F8 53 56 57 89 55 F8 89 45 FC 83 U.....SVW.U..E..
00416470 3D 64 B8 42 00 00 0F 84 86 00 00 00 A1 64 B8 42 =d.B.........d.B
00416480 00 E8 66 E1 FF FF 8B F8 33 C0 55 68 FB 64 41 00 ..f.....3.Uh.dA.
00416490 64 FF 30 64 89 20 8B 5F 08 4B 83 FB 00 7C 44 8B d.0d. ._.K...|D.
004164A0 D3 8B C7 E8 A0 DE FF FF 8B F0 83 7D FC 00 74 08 ...........}..t.
004164B0 8B 46 08 3B 45 FC 75 25 83 7D F8 00 74 0F 8B 56 .F.;E.u%.}..t..V
004164C0 10 8B 45 F8 E8 BB 13 FF FF 84 C0 74 10 8B D3 8B ..E........t....
004164D0 C7 E8 82 DD FF FF 8B C6 E8 43 D2 FE FF 4B 83 FB .........C...K..
004164E0 FF 75 BC 33 C0 5A 59 59 64 89 10 68 02 65 41 00 .u.3.ZYYd..h.eA.
004164F0 A1 64 B8 42 00 E8 56 E1 FF FF C3 E9 24 D7 FE FF .d.B..V.....$...
00416500 EB EE 5F 5E 5B 59 59 5D C3 8D 40 00 55 8B EC 51 .._^[YY]..@.U..Q
00416510 53 56 57 89 45 FC 83 3D 64 B8 42 00 00 74 6B A1 SVW.E..=d.B..tk.
00416520 64 B8 42 00 E8 C3 E0 FF FF 8B F8 33 C0 55 68 83 d.B........3.Uh.
00416530 65 41 00 64 FF 30 64 89 20 8B 5F 08 4B 83 FB 00 eA.d.0d. ._.K...
00416540 7C 29 8B D3 8B C7 E8 FD DD FF FF 8B F0 8B 46 04 |)............F.
00416550 3B 45 FC 75 10 8B D3 8B C7 E8 FA DC FF FF 8B C6 ;E.u............
00416560 E8 BB D1 FE FF 4B 83 FB FF 75 D7 33 C0 5A 59 59 .....K...u.3.ZYY
00416570 64 89 10 68 8A 65 41 00 A1 64 B8 42 00 E8 CE E0 d..h.eA..d.B....
00416580 FF FF C3 E9 9C D6 FE FF EB EE 5F 5E 5B 59 5D C3 .........._^[Y].
00416590 53 8B D8 8B CB B2 01 A1 54 33 41 00 E8 23 4B FF S.......T3A..#K.
004165A0 FF E8 B6 D6 FE FF 5B C3 A1 44 A8 42 00 E8 DE FF ......[..D.B....
004165B0 FF FF C3 90 53 56 8B DA 8B F0 8B C6 E8 AF 02 00 ....SV..........
004165C0 00 3A D8 74 0F FF 4E 10 8B C6 E8 B1 03 00 00 E8 .:.t..N.........
004165D0 D4 FF FF FF 5E 5B C3 90 53 8B D8 8B C3 E8 8E 02 ....^[..S.......
004165E0 00 00 84 C0 0F 94 C0 FF 4B 10 5B C3 53 8B D8 8B ........K.[.S...
004165F0 C3 E8 7A 02 00 00 FF 4B 10 5B C3 90 56 57 53 89 ..z....K.[..VWS.
00416600 D7 89 CB 89 C6 EB 36 8B 4E 14 2B 4E 10 77 0A 89 ......6.N.+N.w..
00416610 F0 E8 32 00 00 00 8B 4E 14 39 D9 72 02 89 D9 56 ..2....N.9.r...V
00416620 29 CB 8B 46 08 03 46 10 01 4E 10 89 C6 89 CA C1 )..F..F..N......
00416630 E9 02 FC F3 A5 89 D1 83 E1 03 F3 A4 5E 09 DB 75 ............^..u
00416640 C6 5B 5F 5E C3 8D 40 00 53 56 8B D8 8B 53 08 8B .[_^..@.SV...S..
00416650 4B 0C 8B 43 04 8B 30 FF 56 0C 8B F0 89 73 14 85 K..C..0.V....s..
00416660 F6 75 17 8B 0D 44 A9 42 00 B2 01 A1 54 33 41 00 .u...D.B....T3A.
00416670 E8 4F 4A FF FF E8 E2 D5 FE FF 33 C0 89 43 10 5E .OJ.......3..C.^
00416680 5B C3 8B C0 B2 01 E8 29 FF FF FF C3 33 D2 E8 21 [......)....3..!
00416690 FF FF FF C3 53 56 51 8B F2 8B D8 8B D4 B9 01 00 ....SVQ.........
004166A0 00 00 8B C3 E8 53 FF FF FF 33 C9 8A 0C 24 8B C6 .....S...3...$..
004166B0 33 D2 E8 79 DC FE FF 8B C6 E8 9A E0 FE FF 8B D0 3..y............
004166C0 33 C9 8A 0C 24 8B C3 E8 30 FF FF FF 5A 5E 5B C3 3...$...0...Z^[.
004166D0 55 8B EC 83 C4 F8 53 56 33 C9 89 4D F8 8B F2 8B U.....SV3..M....
004166E0 D8 33 C0 55 68 7D 67 41 00 64 FF 30 64 89 20 8B .3.Uh}gA.d.0d. .
004166F0 C3 E8 F6 FE FF FF 2C 12 74 04 2C 02 75 16 8D 55 ......,.t.,.u..U
00416700 F8 8B C3 E8 84 00 00 00 8B 55 F8 8B C6 E8 B6 DD .........U......
00416710 FE FF EB 53 33 C0 89 45 FC 8B C3 E8 50 01 00 00 ...S3..E....P...
00416720 2C 06 74 06 2C 06 74 13 EB 22 8D 55 FC B9 01 00 ,.t.,.t..".U....
00416730 00 00 8B C3 E8 C3 FE FF FF EB 16 8D 55 FC B9 04 ............U...
00416740 00 00 00 8B C3 E8 B2 FE FF FF EB 05 E8 57 FE FF .............W..
00416750 FF 8B C6 8B 55 FC E8 D5 E0 FE FF 8B 16 8B 4D FC ....U.........M.
00416760 8B C3 E8 95 FE FF FF 33 C0 5A 59 59 64 89 10 68 .......3.ZYYd..h
00416770 84 67 41 00 8D 45 F8 E8 84 E1 FE FF C3 E9 A2 D4 .gA..E..........
00416780 FE FF EB F0 5E 5B 59 59 5D C3 8B C0 55 8B EC 6A ....^[YY]...U..j
00416790 00 6A 00 6A 00 53 56 8B F2 8B D8 33 C0 55 68 63 .j.j.SV....3.Uhc
004167A0 68 41 00 64 FF 30 64 89 20 8B C3 E8 3C FE FF FF hA.d.0d. ...<...
004167B0 2C 06 74 04 2C 06 75 16 8D 55 F4 8B C3 E8 0E FF ,.t.,.u..U......
004167C0 FF FF 8B 55 F4 8B C6 E8 80 E2 FE FF EB 77 33 C0 ...U.........w3.
004167D0 89 45 FC 8B C3 E8 96 00 00 00 2C 12 74 06 2C 02 .E........,.t.,.
004167E0 74 2B EB 5C 8D 55 FC B9 04 00 00 00 8B C3 E8 09 t+.\.U..........
004167F0 FE FF FF 8B C6 8B 55 FC E8 4B E3 FE FF 8B 4D FC ......U..K....M.
00416800 03 C9 8B 16 8B C3 E8 F1 FD FF FF EB 38 8D 55 FC ............8.U.
00416810 B9 04 00 00 00 8B C3 E8 E0 FD FF FF 8D 45 F8 8B .............E..
00416820 55 FC E8 09 E0 FE FF 8B 55 F8 8B 4D FC 8B C3 E8 U.......U..M....
00416830 C8 FD FF FF 8B D6 8B 45 F8 E8 1E F7 FE FF EB 05 .......E........
00416840 E8 63 FD FF FF 33 C0 5A 59 59 64 89 10 68 6A 68 .c...3.ZYYd..hjh
00416850 41 00 8D 45 F4 E8 E6 D9 FE FF 8D 45 F8 E8 DE D9 A..E.......E....
00416860 FE FF C3 E9 BC D3 FE FF EB E8 5E 5B 8B E5 5D C3 ..........^[..].
00416870 51 8B D4 B9 01 00 00 00 E8 7F FD FF FF 8A 04 24 Q..............$
00416880 5A C3 8B C0 55 8B EC 6A 00 53 8B D8 33 C0 55 68 Z...U..j.S..3.Uh
00416890 C0 68 41 00 64 FF 30 64 89 20 8D 55 FC 8B C3 E8 .hA.d.0d. .U....
004168A0 F0 FD FF FF 83 7D FC 00 75 F0 33 C0 5A 59 59 64 .....}..u.3.ZYYd
004168B0 89 10 68 C7 68 41 00 8D 45 FC E8 81 D9 FE FF C3 ..h.hA..E.......
004168C0 E9 5F D3 FE FF EB F0 5B 59 5D C3 90 55 8B EC 53 ._.....[Y]..U..S
004168D0 8B 5D 08 83 C3 FC EB 07 8B 03 E8 A1 00 00 00 8B .]..............
004168E0 03 E8 F2 FC FF FF 84 C0 74 EE 8B 03 E8 9B FD FF ........t.......
004168F0 FF 5B 5D C3 55 8B EC 51 53 8B D8 8D 55 FC 8B 45 .[].U..QS...U..E
00416900 08 8B 40 FC B9 04 00 00 00 E8 EE FC FF FF 8B 55 ..@............U
00416910 FC 0F AF D3 8B 45 08 8B 40 FC E8 45 02 00 00 5B .....E..@..E...[
00416920 59 5D C3 90 55 8B EC 53 8B 5D 08 83 C3 FC EB 3B Y]..U..S.].....;
00416930 8B 03 E8 B5 FC FF FF 04 FE 2C 03 73 07 8B 03 E8 .........,.s....
00416940 3C 00 00 00 8B 03 BA 01 00 00 00 E8 14 02 00 00 <...............
00416950 EB 07 8B 03 E8 C3 01 00 00 8B 03 E8 78 FC FF FF ............x...
00416960 84 C0 74 EE 8B 03 E8 21 FD FF FF 8B 03 E8 66 FC ..t....!......f.
00416970 FF FF 84 C0 74 BA 8B 03 E8 0F FD FF FF 5B 5D C3 ....t........[].
00416980 55 8B EC 83 C4 F8 33 D2 89 55 F8 89 45 FC 33 C0 U.....3..U..E.3.
00416990 55 68 0F 6B 41 00 64 FF 30 64 89 20 8B 45 FC E8 Uh.kA.d.0d. .E..
004169A0 CC FE FF FF 83 E0 7F 83 F8 14 0F 87 49 01 00 00 ............I...
004169B0 FF 24 85 B7 69 41 00 F9 6A 41 00 10 6A 41 00 1C .$..iA..jA..jA..
004169C0 6A 41 00 2E 6A 41 00 40 6A 41 00 52 6A 41 00 64 jA..jA.@jA.RjA.d
004169D0 6A 41 00 64 6A 41 00 F9 6A 41 00 F9 6A 41 00 74 jA.djA..jA..jA.t
004169E0 6A 41 00 82 6A 41 00 8C 6A 41 00 F9 6A 41 00 9A jA..jA..jA..jA..
004169F0 6A 41 00 A3 6A 41 00 B2 6A 41 00 C1 6A 41 00 D0 jA..jA..jA..jA..
00416A00 6A 41 00 DE 6A 41 00 ED 6A 41 00 E9 E9 00 00 00 jA..jA..jA......
00416A10 55 E8 B6 FE FF FF 59 E9 DD 00 00 00 BA 01 00 00 U.....Y.........
00416A20 00 8B 45 FC E8 3B 01 00 00 E9 CB 00 00 00 BA 02 ..E..;..........
00416A30 00 00 00 8B 45 FC E8 29 01 00 00 E9 B9 00 00 00 ....E..)........
00416A40 BA 04 00 00 00 8B 45 FC E8 17 01 00 00 E9 A7 00 ......E.........
00416A50 00 00 BA 0A 00 00 00 8B 45 FC E8 05 01 00 00 E9 ........E.......
00416A60 95 00 00 00 8D 55 F8 8B 45 FC E8 25 FC FF FF E9 .....U..E..%....
00416A70 85 00 00 00 55 B8 01 00 00 00 E8 75 FE FF FF 59 ....U......u...Y
00416A80 EB 77 8B 45 FC E8 FA FD FF FF EB 6D 55 B8 01 00 .w.E.......mU...
00416A90 00 00 E8 5D FE FF FF 59 EB 5F 55 E8 84 FE FF FF ...]...Y._U.....
00416AA0 59 EB 56 BA 04 00 00 00 8B 45 FC E8 B4 00 00 00 Y.V......E......
00416AB0 EB 47 BA 08 00 00 00 8B 45 FC E8 A5 00 00 00 EB .G......E.......
00416AC0 38 BA 08 00 00 00 8B 45 FC E8 96 00 00 00 EB 29 8......E.......)
00416AD0 55 B8 02 00 00 00 E8 19 FE FF FF 59 EB 1B BA 08 U..........Y....
00416AE0 00 00 00 8B 45 FC E8 79 00 00 00 EB 0C 55 B8 01 ....E..y.....U..
00416AF0 00 00 00 E8 FC FD FF FF 59 33 C0 5A 59 59 64 89 ........Y3.ZYYd.
00416B00 10 68 16 6B 41 00 8D 45 F8 E8 32 D7 FE FF C3 E9 .h.kA..E..2.....
00416B10 10 D1 FE FF EB F0 59 59 5D C3 8B C0 55 8B EC 6A ......YY]...U..j
00416B20 00 53 8B D8 33 C0 55 68 59 6B 41 00 64 FF 30 64 .S..3.UhYkA.d.0d
00416B30 89 20 8D 55 FC 8B C3 E8 58 FB FF FF 8B C3 E8 3D . .U....X......=
00416B40 FE FF FF 33 C0 5A 59 59 64 89 10 68 60 6B 41 00 ...3.ZYYd..h`kA.
00416B50 8D 45 FC E8 E8 D6 FE FF C3 E9 C6 D0 FE FF EB F0 .E..............
00416B60 5B 59 5D C3 53 56 81 C4 00 FF FF FF 8B DA 8B F0 [Y].SV..........
00416B70 85 DB 7E 2F 81 FB 00 01 00 00 7E 16 8B D4 B9 00 ..~/......~.....
00416B80 01 00 00 8B C6 E8 72 FA FF FF 81 EB 00 01 00 00 ......r.........
00416B90 EB 0D 8B D4 8B CB 8B C6 E8 5F FA FF FF 33 DB 85 ........._...3..
00416BA0 DB 7F D1 81 C4 00 01 00 00 5E 5B C3 56 57 53 89 .........^[.VWS.
00416BB0 D6 89 CB 89 C7 EB 36 8B 4F 0C 2B 4F 10 77 0A 89 ......6.O.+O.w..
00416BC0 F8 E8 32 00 00 00 8B 4F 0C 39 D9 72 02 89 D9 29 ..2....O.9.r...)
00416BD0 CB 57 8B 47 08 03 47 10 01 4F 10 89 C7 89 CA C1 .W.G..G..O......
00416BE0 E9 02 FC F3 A5 89 D1 83 E1 03 F3 A4 5F 09 DB 75 ............_..u
00416BF0 C6 5B 5F 5E C3 8D 40 00 53 8B D8 8B 53 08 8B 4B .[_^..@.S...S..K
00416C00 10 8B 43 04 E8 C3 F2 FF FF 33 C0 89 43 10 5B C3 ..C......3..C.[.
00416C10 B2 01 E8 F5 00 00 00 C3 33 D2 E8 ED 00 00 00 C3 ........3.......
00416C20 53 56 57 51 8B F9 8B F2 8B D8 8B C6 8B D7 E8 19 SVWQ............
00416C30 DA FE FF 74 2F 8B C7 E8 C4 D8 FE FF 89 04 24 B2 ...t/.........$.
00416C40 14 8B C3 E8 C4 00 00 00 8B D4 B9 04 00 00 00 8B ................
00416C50 C3 E8 56 FF FF FF 8B D7 8B 0C 24 8B C3 E8 4A FF ..V.......$...J.
00416C60 FF FF EB 4F 8B C6 E8 95 D8 FE FF 89 04 24 81 3C ...O.........$.<
00416C70 24 FF 00 00 00 7F 19 B2 06 8B C3 E8 8C 00 00 00 $...............
00416C80 8B D4 B9 01 00 00 00 8B C3 E8 1E FF FF FF EB 17 ................
00416C90 B2 0C 8B C3 E8 73 00 00 00 8B D4 B9 04 00 00 00 .....s..........
00416CA0 8B C3 E8 05 FF FF FF 8B D6 8B 0C 24 8B C3 E8 F9 ...........$....
00416CB0 FE FF FF 5A 5F 5E 5B C3 55 8B EC 6A 00 53 56 8B ...Z_^[.U..j.SV.
00416CC0 F2 8B D8 33 C0 55 68 FD 6C 41 00 64 FF 30 64 89 ...3.Uh.lA.d.0d.
00416CD0 20 8D 55 FC 8B C6 E8 25 F3 FE FF 8B 4D FC 8B D6  .U....%....M...
00416CE0 8B C3 E8 39 FF FF FF 33 C0 5A 59 59 64 89 10 68 ...9...3.ZYYd..h
00416CF0 04 6D 41 00 8D 45 FC E8 44 D5 FE FF C3 E9 22 CF .mA..E..D.....".
00416D00 FE FF EB F0 5E 5B 59 5D C3 8D 40 00 51 88 14 24 ....^[Y]..@.Q..$
00416D10 8B D4 B9 01 00 00 00 E8 90 FE FF FF 5A C3 8B C0 ............Z...
00416D20 68 68 B8 42 00 E8 06 F8 FE FF 68 50 6D 41 00 6A hh.B......hPmA.j
00416D30 00 6A FF 6A 00 E8 BE F6 FE FF A3 50 B8 42 00 83 .j.j.......P.B..
00416D40 3D 50 B8 42 00 00 75 05 E8 47 56 FF FF C3 00 00 =P.B..u..GV.....
00416D50 00 00 00 00 68 68 B8 42 00 E8 B2 F6 FE FF A1 50 ....hh.B.......P
00416D60 B8 42 00 50 E8 6F F6 FE FF C3 8B C0 55 8B EC 53 .B.P.o......U..S
00416D70 56 57 A1 58 B8 42 00 E8 70 D8 FF FF 8B F8 33 C0 VW.X.B..p.....3.
00416D80 55 68 C1 6D 41 00 64 FF 30 64 89 20 8B 5F 08 4B Uh.mA.d.0d. ._.K
00416D90 85 DB 7C 15 43 33 F6 8B D6 8B C7 E8 A8 D5 FF FF ..|.C3..........
00416DA0 E8 7B C9 FE FF 46 4B 75 EE 33 C0 5A 59 59 64 89 .{...FKu.3.ZYYd.
00416DB0 10 68 C8 6D 41 00 A1 58 B8 42 00 E8 90 D8 FF FF .h.mA..X.B......
00416DC0 C3 E9 5E CE FE FF EB EE A1 58 B8 42 00 E8 4E C9 ..^......X.B..N.
00416DD0 FE FF 5F 5E 5B 5D C3 90 E8 83 D2 FF FF C3 8B C0 .._^[]..........
00416DE0 55 8B EC 33 C0 55 68 84 6E 41 00 64 FF 30 64 89 U..3.Uh.nA.d.0d.
00416DF0 20 FF 05 54 B8 42 00 75 7D A1 68 B6 42 00 E8 5D  ..T.B.u}.h.B..]
00416E00 D2 FF FF A1 4C B8 42 00 8B 10 FF 52 14 E8 5A FF ....L.B....R..Z.
00416E10 FF FF 33 D2 33 C0 E8 45 F6 FF FF B8 64 B8 42 00 ..3.3..E....d.B.
00416E20 E8 1B 5B FF FF E8 92 F4 FE FF 8D 80 08 00 00 00 ..[.............
00416E30 E8 0B 5B FF FF B8 5C B8 42 00 E8 01 5B FF FF B8 ..[...\.B...[...
00416E40 4C B8 42 00 E8 7F ED FE FF B8 D8 6D 41 00 E8 D5 L.B........mA...
00416E50 EB FE FF B8 A8 83 42 00 E8 E3 5A FF FF E8 F2 FE ......B...Z.....
00416E60 FF FF B8 60 B8 42 00 E8 D4 5A FF FF B8 4C B8 42 ...`.B...Z...L.B
00416E70 00 E8 52 ED FE FF 33 C0 5A 59 59 64 89 10 68 8B ..R...3.ZYYd..h.
00416E80 6E 41 00 C3 E9 9B CD FE FF EB F8 5D C3 8D 40 00 nA.........]..@.
00416E90 55 8B EC 33 C0 55 68 19 6F 41 00 64 FF 30 64 89 U..3.Uh.oA.d.0d.
00416EA0 20 83 2D 54 B8 42 00 01 73 61 E8 71 FE FF FF B8  .-T.B..sa.q....
00416EB0 D8 6D 41 00 E8 67 EB FE FF B2 01 A1 9C 76 40 00 .mA..g.......v@.
00416EC0 E8 A7 57 FF FF 8B D0 85 D2 74 03 83 EA D4 B8 4C ..W......t.....L
00416ED0 B8 42 00 E8 08 ED FE FF B2 01 A1 50 3D 41 00 E8 .B.........P=A..
00416EE0 44 D0 FF FF A3 5C B8 42 00 B2 01 A1 DC 35 41 00 D....\.B.....5A.
00416EF0 E8 9F D5 FF FF A3 58 B8 42 00 B2 01 A1 DC 35 41 ......X.B.....5A
00416F00 00 E8 8E D5 FF FF A3 64 B8 42 00 33 C0 5A 59 59 .......d.B.3.ZYY
00416F10 64 89 10 68 20 6F 41 00 C3 E9 06 CD FE FF EB F8 d..h oA.........
00416F20 5D C3 8B C0 68 B6 42 00 98 FF 00 00 68 B6 42 00 ]...h.B.....h.B.
00416F30 99 FF 00 00 68 B6 42 00 9A FF 00 00 68 B6 42 00 ....h.B.....h.B.
00416F40 9B FF 00 00 68 B6 42 00 9C FF 00 00 68 B6 42 00 ....h.B.....h.B.
00416F50 9D FF 00 00 55 8B EC 33 C0 55 68 79 6F 41 00 64 ....U..3.UhyoA.d
00416F60 FF 30 64 89 20 FF 05 80 B8 42 00 33 C0 5A 59 59 .0d. ....B.3.ZYY
00416F70 64 89 10 68 80 6F 41 00 C3 E9 A6 CC FE FF EB F8 d..h.oA.........
00416F80 5D C3 8B C0 83 2D 80 B8 42 00 01 C3 90 6F 41 00 ]....-..B....oA.
00416F90 01 06 54 43 6F 6C 6F 72 04 00 00 00 80 FF FF FF ..TColor........
00416FA0 7F 8D 40 00 F0 6F 41 00 00 00 00 00 00 00 00 00 ..@..oA.........
00416FB0 00 00 00 00 00 00 00 00 00 00 00 00 00 00 00 00 ................
00416FC0 00 00 00 00 F0 6F 41 00 0C 00 00 00 74 6B 40 00 .....oA.....tk@.
00416FD0 54 39 40 00 60 39 40 00 64 39 40 00 68 39 40 00 T9@.`9@.d9@.h9@.
00416FE0 5C 39 40 00 B8 36 40 00 D4 36 40 00 10 37 40 00 \9@..6@..6@..7@.
00416FF0 0F 45 49 6E 76 61 6C 69 64 47 72 61 70 68 69 63 .EInvalidGraphic
00417000 4C 70 41 00 00 00 00 00 00 00 00 00 00 00 00 00 LpA.............
00417010 00 00 00 00 00 00 00 00 00 00 00 00 00 00 00 00 ................
00417020 4C 70 41 00 0C 00 00 00 74 6B 40 00 54 39 40 00 LpA.....tk@.T9@.
00417030 60 39 40 00 64 39 40 00 68 39 40 00 5C 39 40 00 `9@.d9@.h9@.\9@.
00417040 B8 36 40 00 D4 36 40 00 10 37 40 00 18 45 49 6E .6@..6@..7@..EIn
00417050 76 61 6C 69 64 47 72 61 70 68 69 63 4F 70 65 72 validGraphicOper
00417060 61 74 69 6F 6E 8D 40 00 6C 70 41 00 03 0A 54 46 ation.@.lpA...TF
00417070 6F 6E 74 50 69 74 63 68 01 00 00 00 00 02 00 00 ontPitch........
00417080 00 68 70 41 00 09 66 70 44 65 66 61 75 6C 74 0A .hpA..fpDefault.
00417090 66 70 56 61 72 69 61 62 6C 65 07 66 70 46 69 78 fpVariable.fpFix
004170A0 65 64 08 47 72 61 70 68 69 63 73 90 B0 70 41 00 ed.Graphics..pA.
004170B0 0A 09 54 46 6F 6E 74 4E 61 6D 65 90 C0 70 41 00 ..TFontName..pA.
004170C0 01 0C 54 46 6F 6E 74 43 68 61 72 73 65 74 01 00 ..TFontCharset..
004170D0 00 00 00 FF 00 00 00 90 DC 70 41 00 03 0A 54 46 .........pA...TF
004170E0 6F 6E 74 53 74 79 6C 65 01 00 00 00 00 03 00 00 ontStyle........
004170F0 00 D8 70 41 00 06 66 73 42 6F 6C 64 08 66 73 49 ..pA..fsBold.fsI
00417100 74 61 6C 69 63 0B 66 73 55 6E 64 65 72 6C 69 6E talic.fsUnderlin
00417110 65 0B 66 73 53 74 72 69 6B 65 4F 75 74 08 47 72 e.fsStrikeOut.Gr
00417120 61 70 68 69 63 73 8B C0 2C 71 41 00 06 0B 54 46 aphics..,qA...TF
00417130 6F 6E 74 53 74 79 6C 65 73 01 D8 70 41 00 8B C0 ontStyles..pA...
00417140 44 71 41 00 03 09 54 50 65 6E 53 74 79 6C 65 01 DqA...TPenStyle.
00417150 00 00 00 00 06 00 00 00 40 71 41 00 07 70 73 53 ........@qA..psS
00417160 6F 6C 69 64 06 70 73 44 61 73 68 05 70 73 44 6F olid.psDash.psDo
00417170 74 09 70 73 44 61 73 68 44 6F 74 0C 70 73 44 61 t.psDashDot.psDa
00417180 73 68 44 6F 74 44 6F 74 07 70 73 43 6C 65 61 72 shDotDot.psClear
00417190 0D 70 73 49 6E 73 69 64 65 46 72 61 6D 65 08 47 .psInsideFrame.G
004171A0 72 61 70 68 69 63 73 90 AC 71 41 00 03 08 54 50 raphics..qA...TP
004171B0 65 6E 4D 6F 64 65 01 00 00 00 00 0F 00 00 00 A8 enMode..........
004171C0 71 41 00 07 70 6D 42 6C 61 63 6B 07 70 6D 57 68 qA..pmBlack.pmWh
004171D0 69 74 65 05 70 6D 4E 6F 70 05 70 6D 4E 6F 74 06 ite.pmNop.pmNot.
004171E0 70 6D 43 6F 70 79 09 70 6D 4E 6F 74 43 6F 70 79 pmCopy.pmNotCopy
004171F0 0D 70 6D 4D 65 72 67 65 50 65 6E 4E 6F 74 0C 70 .pmMergePenNot.p
00417200 6D 4D 61 73 6B 50 65 6E 4E 6F 74 0D 70 6D 4D 65 mMaskPenNot.pmMe
00417210 72 67 65 4E 6F 74 50 65 6E 0C 70 6D 4D 61 73 6B rgeNotPen.pmMask
00417220 4E 6F 74 50 65 6E 07 70 6D 4D 65 72 67 65 0A 70 NotPen.pmMerge.p
00417230 6D 4E 6F 74 4D 65 72 67 65 06 70 6D 4D 61 73 6B mNotMerge.pmMask
00417240 09 70 6D 4E 6F 74 4D 61 73 6B 05 70 6D 58 6F 72 .pmNotMask.pmXor
00417250 08 70 6D 4E 6F 74 58 6F 72 08 47 72 61 70 68 69 .pmNotXor.Graphi
00417260 63 73 8B C0 68 72 41 00 03 0B 54 42 72 75 73 68 cs..hrA...TBrush
00417270 53 74 79 6C 65 01 00 00 00 00 07 00 00 00 64 72 Style.........dr
00417280 41 00 07 62 73 53 6F 6C 69 64 07 62 73 43 6C 65 A..bsSolid.bsCle
00417290 61 72 0C 62 73 48 6F 72 69 7A 6F 6E 74 61 6C 0A ar.bsHorizontal.
004172A0 62 73 56 65 72 74 69 63 61 6C 0B 62 73 46 44 69 bsVertical.bsFDi
004172B0 61 67 6F 6E 61 6C 0B 62 73 42 44 69 61 67 6F 6E agonal.bsBDiagon
004172C0 61 6C 07 62 73 43 72 6F 73 73 0B 62 73 44 69 61 al.bsCross.bsDia
004172D0 67 43 72 6F 73 73 08 47 72 61 70 68 69 63 73 90 gCross.Graphics.
004172E0 2C 73 41 00 00 00 00 00 00 00 00 00 00 00 00 00 ,sA.............
004172F0 54 73 41 00 00 00 00 00 00 00 00 00 38 73 41 00 TsA.........8sA.
00417300 40 73 41 00 18 00 00 00 34 36 41 00 54 39 40 00 @sA.....46A.T9@.
00417310 60 39 40 00 64 39 40 00 68 39 40 00 5C 39 40 00 `9@.d9@.h9@.\9@.
00417320 B8 36 40 00 D4 36 40 00 5C 46 41 00 6C 47 41 00 .6@..6@.\FA.lGA.
00417330 74 47 41 00 88 46 41 00 01 00 FD FF 04 83 41 00 tGA..FA.......A.
00417340 0F 54 47 72 61 70 68 69 63 73 4F 62 6A 65 63 74 .TGraphicsObject
00417350 54 73 41 00 07 0F 54 47 72 61 70 68 69 63 73 4F TsA...TGraphicsO
00417360 62 6A 65 63 74 2C 73 41 00 A8 36 41 00 00 00 08 bject,sA..6A....
00417370 47 72 61 70 68 69 63 73 00 00 8B C0 80 73 41 00 Graphics.....sA.
00417380 0F 0F 49 43 68 61 6E 67 65 4E 6F 74 69 66 69 65 ..IChangeNotifie
00417390 72 D4 10 40 00 01 21 23 B6 1F A7 44 D0 11 9E 93 r..@..!#...D....
004173A0 00 20 AF 3D 82 DA 08 47 72 61 70 68 69 63 73 01 . .=...Graphics.
004173B0 00 FF FF 90 00 74 41 00 00 00 00 00 00 00 00 00 .....tA.........
004173C0 0C 74 41 00 30 74 41 00 00 00 00 00 00 00 00 00 .tA.0tA.........
004173D0 1E 74 41 00 26 74 41 00 24 00 00 00 E0 72 41 00 .tA.&tA.$....rA.
004173E0 54 39 40 00 60 39 40 00 64 39 40 00 68 39 40 00 T9@.`9@.d9@.h9@.
004173F0 5C 39 40 00 B8 36 40 00 D4 36 40 00 60 85 41 00 \9@..6@..6@.`.A.
00417400 6C 47 41 00 74 47 41 00 A4 85 41 00 0E 00 00 00 lGA.tGA...A.....
00417410 00 00 01 00 00 00 7C 73 41 00 20 00 00 00 01 00 ......|sA. .....
00417420 FD FF 88 85 41 00 05 54 46 6F 6E 74 30 74 41 00 ....A..TFont0tA.
00417430 07 05 54 46 6F 6E 74 00 74 41 00 50 73 41 00 07 ..TFont.tA.PsA..
00417440 00 08 47 72 61 70 68 69 63 73 07 00 BC 70 41 00 ..Graphics...pA.
00417450 E4 89 41 00 EC 89 41 00 01 00 00 00 00 00 00 80 ..A...A.........
00417460 00 00 00 80 00 00 07 43 68 61 72 73 65 74 8C 6F .......Charset.o
00417470 41 00 18 00 00 FF E0 86 41 00 01 00 00 00 00 00 A.......A.......
00417480 00 80 00 00 00 80 01 00 05 43 6F 6C 6F 72 00 10 .........Color..
00417490 40 00 9C 88 41 00 A4 88 41 00 01 00 00 00 00 00 @...A...A.......
004174A0 00 80 00 00 00 80 02 00 06 48 65 69 67 68 74 AC .........Height.
004174B0 70 41 00 CC 88 41 00 E4 88 41 00 01 00 00 00 00 pA...A...A......
004174C0 00 00 80 00 00 00 80 03 00 04 4E 61 6D 65 68 70 ..........Namehp
004174D0 41 00 B4 89 41 00 BC 89 41 00 01 00 00 00 00 00 A...A...A.......
004174E0 00 80 00 00 00 00 04 00 05 50 69 74 63 68 00 10 .........Pitch..
004174F0 40 00 40 89 41 00 5C 89 41 00 00 00 00 00 00 00 @.@.A.\.A.......
00417500 00 80 00 00 00 80 05 00 04 53 69 7A 65 28 71 41 .........Size(qA
00417510 00 7C 89 41 00 88 89 41 00 01 00 00 00 00 00 00 .|.A...A........
00417520 80 00 00 00 80 06 00 05 53 74 79 6C 65 8D 40 00 ........Style.@.
00417530 7C 75 41 00 00 00 00 00 00 00 00 00 00 00 00 00 |uA.............
00417540 94 75 41 00 00 00 00 00 00 00 00 00 00 00 00 00 .uA.............
00417550 88 75 41 00 1C 00 00 00 E0 72 41 00 54 39 40 00 .uA......rA.T9@.
00417560 60 39 40 00 64 39 40 00 68 39 40 00 5C 39 40 00 `9@.d9@.h9@.\9@.
00417570 B8 36 40 00 D4 36 40 00 58 8A 41 00 6C 47 41 00 .6@..6@.X.A.lGA.
00417580 74 47 41 00 80 8A 41 00 04 54 50 65 6E 8D 40 00 tGA...A..TPen.@.
00417590 94 75 41 00 07 04 54 50 65 6E 7C 75 41 00 50 73 .uA...TPen|uA.Ps
004175A0 41 00 04 00 08 47 72 61 70 68 69 63 73 04 00 8C A....Graphics...
004175B0 6F 41 00 A0 8B 41 00 A8 8B 41 00 01 00 00 00 00 oA...A...A......
004175C0 00 00 80 00 00 00 00 00 00 05 43 6F 6C 6F 72 A8 ..........Color.
004175D0 71 41 00 18 00 00 FF 68 8C 41 00 01 00 00 00 00 qA.....h.A......
004175E0 00 00 80 04 00 00 00 01 00 04 4D 6F 64 65 40 71 ..........Mode@q
004175F0 41 00 7C 8C 41 00 84 8C 41 00 01 00 00 00 00 00 A.|.A...A.......
00417600 00 80 00 00 00 00 02 00 05 53 74 79 6C 65 00 10 .........Style..
00417610 40 00 AC 8C 41 00 B4 8C 41 00 01 00 00 00 00 00 @...A...A.......
00417620 00 80 01 00 00 00 03 00 05 57 69 64 74 68 8B C0 .........Width..
00417630 7C 76 41 00 00 00 00 00 00 00 00 00 00 00 00 00 |vA.............
00417640 94 76 41 00 00 00 00 00 00 00 00 00 00 00 00 00 .vA.............
00417650 88 76 41 00 18 00 00 00 E0 72 41 00 54 39 40 00 .vA......rA.T9@.
00417660 60 39 40 00 64 39 40 00 68 39 40 00 5C 39 40 00 `9@.d9@.h9@.\9@.
00417670 B8 36 40 00 D4 36 40 00 20 8D 41 00 6C 47 41 00 .6@..6@. .A.lGA.
00417680 74 47 41 00 48 8D 41 00 06 54 42 72 75 73 68 90 tGA.H.A..TBrush.
00417690 94 76 41 00 07 06 54 42 72 75 73 68 7C 76 41 00 .vA...TBrush|vA.
004176A0 50 73 41 00 02 00 08 47 72 61 70 68 69 63 73 02 PsA....Graphics.
004176B0 00 8C 6F 41 00 5C 8E 41 00 64 8E 41 00 01 00 00 ..oA.\.A.d.A....
004176C0 00 00 00 00 80 FF FF FF 00 00 00 05 43 6F 6C 6F ............Colo
004176D0 72 64 72 41 00 78 8F 41 00 80 8F 41 00 01 00 00 rdrA.x.A...A....
004176E0 00 00 00 00 80 00 00 00 00 01 00 05 53 74 79 6C ............Styl
004176F0 65 8D 40 00 40 77 41 00 00 00 00 00 00 00 00 00 e.@.@wA.........
00417700 00 00 00 00 64 77 41 00 00 00 00 00 00 00 00 00 ....dwA.........
00417710 00 00 00 00 58 77 41 00 58 00 00 00 34 36 41 00 ....XwA.X...46A.
00417720 54 39 40 00 60 39 40 00 64 39 40 00 68 39 40 00 T9@.`9@.d9@.h9@.
00417730 5C 39 40 00 B8 36 40 00 D4 36 40 00 78 90 41 00 \9@..6@..6@.x.A.
00417740 6C 47 41 00 74 47 41 00 88 46 41 00 18 94 41 00 lGA.tGA..FA...A.
00417750 04 94 41 00 38 93 41 00 07 54 43 61 6E 76 61 73 ..A.8.A..TCanvas
00417760 64 77 41 00 07 07 54 43 61 6E 76 61 73 40 77 41 dwA...TCanvas@wA
00417770 00 A8 36 41 00 04 00 08 47 72 61 70 68 69 63 73 ..6A....Graphics
00417780 04 00 90 76 41 00 14 00 00 FF 40 92 41 00 01 00 ...vA.....@.A...
00417790 00 00 00 00 00 80 00 00 00 80 00 00 05 42 72 75 .............Bru
004177A0 73 68 00 10 40 00 20 00 00 FF 20 00 00 FF 01 00 sh..@. ... .....
004177B0 00 00 00 00 00 80 20 00 CC 00 01 00 08 43 6F 70 ...... ......Cop
004177C0 79 4D 6F 64 65 2C 74 41 00 0C 00 00 FF 24 92 41 yMode,tA.....$.A
004177D0 00 01 00 00 00 00 00 00 80 00 00 00 80 02 00 04 ................
004177E0 46 6F 6E 74 90 75 41 00 10 00 00 FF 34 92 41 00 Font.uA.....4.A.
004177F0 01 00 00 00 00 00 00 80 00 00 00 80 03 00 03 50 ...............P
00417800 65 6E 8B C0 CC 83 C0 DC 50 8B 00 8B 40 54 87 04 en......P...@T..
00417810 24 C3 83 C0 DC 50 8B 00 8B 40 58 87 04 24 C3 83 $....P...@X..$..
00417820 44 24 04 DC 8B 44 24 04 8B 00 FF 60 0C 83 44 24 D$...D$....`..D$
00417830 04 DC E9 45 D0 FF FF 83 44 24 04 DC E9 5B D0 FF ...E....D$...[..
00417840 FF CC 1F 78 41 00 2D 78 41 00 37 78 41 00 05 78 ...xA.-xA.7xA..x
00417850 41 00 12 78 41 00 01 00 00 00 A3 12 CD B8 7A 26 A..xA.........z&
00417860 D4 11 83 DA 00 C0 4F 60 B2 DD 42 78 41 00 24 00 ......O`..BxA.$.
00417870 00 00 00 00 00 00 8B C0 C4 78 41 00 56 78 41 00 .........xA.VxA.
00417880 00 00 00 00 00 00 00 00 40 79 41 00 00 00 00 00 ........@yA.....
00417890 00 00 00 00 28 79 41 00 30 79 41 00 28 00 00 00 ....(yA.0yA.(...
004178A0 24 37 41 00 54 39 40 00 2C 48 41 00 64 39 40 00 $7A.T9@.,HA.d9@.
004178B0 68 39 40 00 5C 39 40 00 B8 36 40 00 D4 36 40 00 h9@.\9@..6@..6@.
004178C0 5C 46 41 00 6C 47 41 00 20 9F 41 00 88 46 41 00 \FA.lGA. .A..FA.
004178D0 BC 48 41 00 B0 9E 41 00 74 2C 40 00 6C 9F 41 00 .HA...A.t,@.l.A.
004178E0 74 2C 40 00 74 2C 40 00 B4 A0 41 00 B8 A0 41 00 t,@.t,@...A...A.
004178F0 74 2C 40 00 38 A1 41 00 74 2C 40 00 9C A1 41 00 t,@.8.A.t,@...A.
00417900 A0 A1 41 00 74 2C 40 00 B0 A1 41 00 78 9E 41 00 ..A.t,@...A.x.A.
00417910 BC A0 41 00 44 A1 41 00 74 2C 40 00 74 2C 40 00 ..A.D.A.t,@.t,@.
00417920 74 2C 40 00 74 2C 40 00 01 00 FD FF 10 A1 41 00 t,@.t,@.......A.
00417930 08 54 47 72 61 70 68 69 63 8D 40 00 40 79 41 00 .TGraphic.@.@yA.
00417940 07 08 54 47 72 61 70 68 69 63 C4 78 41 00 A8 37 ..TGraphic.xA..7
00417950 41 00 00 00 08 47 72 61 70 68 69 63 73 00 00 90 A....Graphics...
00417960 AC 79 41 00 00 00 00 00 00 00 00 00 00 00 00 00 .yA.............
00417970 00 00 00 00 00 00 00 00 00 00 00 00 00 00 00 00 ................
00417980 B0 79 41 00 08 00 00 00 60 10 40 00 54 39 40 00 .yA.....`.@.T9@.
00417990 60 39 40 00 64 39 40 00 68 39 40 00 5C 39 40 00 `9@.d9@.h9@.\9@.
004179A0 B8 36 40 00 D4 36 40 00 10 37 40 00 74 2C 40 00 .6@..6@..7@.t,@.
004179B0 0C 54 53 68 61 72 65 64 49 6D 61 67 65 8D 40 00 .TSharedImage.@.
004179C0 0C 7A 41 00 00 00 00 00 00 00 00 00 00 00 00 00 .zA.............
004179D0 00 00 00 00 00 00 00 00 00 00 00 00 00 00 00 00 ................
004179E0 10 7A 41 00 74 00 00 00 60 79 41 00 54 39 40 00 .zA.t...`yA.T9@.
004179F0 60 39 40 00 64 39 40 00 68 39 40 00 5C 39 40 00 `9@.d9@.h9@.\9@.
00417A00 B8 36 40 00 D4 36 40 00 98 A5 41 00 F4 A5 41 00 .6@..6@...A...A.
00417A10 0C 54 42 69 74 6D 61 70 49 6D 61 67 65 8D 40 00 .TBitmapImage.@.
00417A20 6C 7A 41 00 00 00 00 00 00 00 00 00 00 00 00 00 lzA.............
00417A30 E8 7A 41 00 00 00 00 00 00 00 00 00 00 00 00 00 .zA.............
00417A40 DC 7A 41 00 3C 00 00 00 78 78 41 00 54 39 40 00 .zA.<...xxA.T9@.
00417A50 2C 48 41 00 64 39 40 00 68 39 40 00 5C 39 40 00 ,HA.d9@.h9@.\9@.
00417A60 B8 36 40 00 D4 36 40 00 84 B0 41 00 6C 47 41 00 .6@..6@...A.lGA.
00417A70 20 9F 41 00 C0 B0 41 00 BC 48 41 00 9C B2 41 00  .A...A..HA...A.
00417A80 A8 B2 41 00 6C 9F 41 00 5C B5 41 00 10 B6 41 00 ..A.l.A.\.A...A.
00417A90 50 B6 41 00 B8 A0 41 00 98 B7 41 00 84 BB 41 00 P.A...A...A...A.
00417AA0 BC C2 41 00 10 C3 41 00 A0 A1 41 00 4C C5 41 00 ..A...A...A.L.A.
00417AB0 A0 C5 41 00 1C B0 41 00 BC A0 41 00 44 A1 41 00 ..A...A...A.D.A.
00417AC0 60 BA 41 00 60 C8 41 00 DC B9 41 00 68 C8 41 00 `.A.`.A...A.h.A.
00417AD0 C0 B5 41 00 20 B6 41 00 84 C1 41 00 07 54 42 69 ..A. .A...A..TBi
00417AE0 74 6D 61 70 E8 7A 41 00 07 07 54 42 69 74 6D 61 tmap.zA...TBitma
00417AF0 70 6C 7A 41 00 3C 79 41 00 00 00 08 47 72 61 70 plzA.<yA....Grap
00417B00 68 69 63 73 00 00 8B C0 85 C0 74 0E 3B 05 84 B8 hics......t.;...
00417B10 42 00 74 06 50 E8 16 EB FE FF C3 90 68 7B 41 00 B.t.P.......h{A.
00417B20 00 00 00 00 00 00 00 00 00 00 00 00 00 00 00 00 ................
00417B30 00 00 00 00 00 00 00 00 00 00 00 00 68 7B 41 00 ............h{A.
00417B40 24 00 00 00 60 10 40 00 54 39 40 00 60 39 40 00 $...`.@.T9@.`9@.
00417B50 64 39 40 00 68 39 40 00 5C 39 40 00 B8 36 40 00 d9@.h9@.\9@..6@.
00417B60 D4 36 40 00 CC 7B 41 00 10 54 52 65 73 6F 75 72 .6@..{A..TResour
00417B70 63 65 4D 61 6E 61 67 65 72 8D 40 00             ceManager.@.   

;; fn00417B7C: 00417B7C
;;   Called from:
;;     00417C1E (in fn00417C08)
fn00417B7C proc
	mov	ecx,edx
	mov	edx,eax
	xor	eax,eax

l00417B82:
	rol	ax,05
	xor	al,[edx]
	inc	edx
	dec	ecx
	jnz	00417B82

l00417B8C:
	ret
00417B8D                                        8D 40 00              .@.
00417B90 53 56 84 D2 74 08 83 C4 F0 E8 F2 BD FE FF 8B DA SV..t...........
00417BA0 8B F0 66 89 4E 20 8D 46 08 50 E8 81 E9 FE FF 8B ..f.N .F.P......
00417BB0 C6 84 DB 74 0F E8 2E BE FE FF 64 8F 05 00 00 00 ...t......d.....
00417BC0 00 83 C4 0C 8B C6 5E 5B C3 8D 40 00 53 56 E8 25 ......^[..@.SV.%
00417BD0 BE FE FF 8B DA 8B F0 8D 46 08 50 E8 30 E8 FE FF ........F.P.0...
00417BE0 84 DB 7E 07 8B C6 E8 F5 BD FE FF 5E 5B C3 8B C0 ..~........^[...

;; fn00417BF0: 00417BF0
;;   Called from:
;;     00417C28 (in fn00417C08)
;;     00417D0B (in fn00417CEC)
;;     00417DBB (in fn00417DA8)
;;     0041872E (in fn004186F4)
;;     00418BEA (in fn00418BD0)
;;     00418EB6 (in fn00418E98)
fn00417BF0 proc
	add	eax,08
	push	eax
	call	00406418
	ret
00417BFA                               8B C0                       ..   

;; fn00417BFC: 00417BFC
;;   Called from:
;;     00417CD6 (in fn00417C08)
;;     00417D79 (in fn00417CEC)
;;     00417E0E (in fn00417DA8)
;;     0041884F (in fn004186F4)
;;     00418C50 (in fn00418BD0)
;;     00418F5F (in fn00418E98)
fn00417BFC proc
	add	eax,08
	push	eax
	call	00406538
	ret
00417C06                   8B C0                               ..       

;; fn00417C08: 00417C08
;;   Called from:
;;     00417DD9 (in fn00417DA8)
;;     0041852F (in fn0041850C)
;;     00418A30 (in fn00418A14)
;;     00418CFC (in fn00418CE0)
fn00417C08 proc
	push	ebp
	mov	ebp,esp
	add	esp,F8
	push	ebx
	push	esi
	mov	ebx,edx
	mov	[ebp-04],eax
	mov	eax,[ebp-04]
	movzx	edx,word ptr [eax+20]
	mov	eax,ebx
	call	00417B7C
	mov	esi,eax
	mov	eax,[ebp-04]
	call	00417BF0
	xor	edx,edx
	push	ebp
	push	00417CDC
	push	dword ptr fs:[edx]
	mov	fs:[edx],esp
	mov	eax,[ebp-04]
	mov	eax,[eax+04]
	mov	[ebp-08],eax
	jmp	00417C4E

l00417C46:
	mov	eax,[ebp-08]
	mov	eax,[eax]
	mov	[ebp-08],eax

l00417C4E:
	cmp	dword ptr [ebp-08],00
	jz	00417C75

l00417C54:
	mov	eax,[ebp-08]
	cmp	si,[eax+0C]
	jnz	00417C46

l00417C5D:
	mov	eax,[ebp-04]
	movzx	ecx,word ptr [eax+20]
	mov	edx,ebx
	mov	eax,[ebp-08]
	add	eax,10
	call	00407810
	test	al,al
	jz	00417C46

l00417C75:
	cmp	dword ptr [ebp-08],00
	jnz	00417CC0

l00417C7B:
	mov	eax,[ebp-04]
	movzx	eax,word ptr [eax+20]
	add	eax,10
	call	00402A28
	mov	[ebp-08],eax
	mov	eax,[ebp-08]
	mov	edx,[ebp-04]
	mov	edx,[edx+04]
	mov	[eax],edx
	xor	edx,edx
	mov	[eax+04],edx
	mov	edx,[ebx]
	mov	[eax+08],edx
	mov	[eax+0C],si
	mov	edx,[ebp-04]
	movzx	ecx,word ptr [edx+20]
	lea	edx,[eax+10]
	mov	eax,ebx
	call	00402C1C
	mov	eax,[ebp-04]
	mov	edx,[ebp-08]
	mov	[eax+04],edx

l00417CC0:
	mov	eax,[ebp-08]
	inc	dword ptr [eax+04]
	xor	eax,eax
	pop	edx
	pop	ecx
	pop	ecx
	mov	fs:[eax],edx
	push	00417CE3
	mov	eax,[ebp-04]
	call	00417BFC
	ret
00417CDC                                     E9 43 BF FE             .C..
00417CE0 FF EB F0 8B 45 F8 5E 5B 59 59 5D C3             ....E.^[YY].   

;; fn00417CEC: 00417CEC
;;   Called from:
;;     00417DF9 (in fn00417DA8)
fn00417CEC proc
	push	ebp
	mov	ebp,esp
	add	esp,EC
	mov	[ebp-08],edx
	mov	[ebp-04],eax
	cmp	dword ptr [ebp-08],00
	jz	00417DA4

l00417D02:
	mov	eax,[ebp-08]
	mov	[ebp-14],eax
	mov	eax,[ebp-04]
	call	00417BF0
	xor	edx,edx
	push	ebp
	push	00417D7F
	push	dword ptr fs:[edx]
	mov	fs:[edx],esp
	mov	eax,[ebp-14]
	dec	dword ptr [eax+04]
	mov	eax,[ebp-14]
	cmp	dword ptr [eax+04],00
	setz	byte ptr [ebp-0D]
	cmp	byte ptr [ebp-0D],00
	jz	00417D69

l00417D35:
	mov	eax,[ebp-04]
	mov	eax,[eax+04]
	cmp	eax,[ebp-08]
	jnz	00417D4D

l00417D40:
	mov	eax,[ebp-08]
	mov	eax,[eax]
	mov	edx,[ebp-04]
	mov	[edx+04],eax
	jmp	00417D69

l00417D4D:
	mov	[ebp-0C],eax
	jmp	00417D55

l00417D52:
	mov	[ebp-0C],eax

l00417D55:
	mov	eax,[ebp-0C]
	mov	eax,[eax]
	cmp	eax,[ebp-08]
	jnz	00417D52

l00417D5F:
	mov	eax,[ebp-08]
	mov	eax,[eax]
	mov	edx,[ebp-0C]
	mov	[edx],eax

l00417D69:
	xor	eax,eax
	pop	edx
	pop	ecx
	pop	ecx
	mov	fs:[eax],edx
	push	00417D86
	mov	eax,[ebp-04]
	call	00417BFC
	ret
00417D7F                                              E9                .
00417D80 A0 BE FE FF EB F0 80 7D F3 00 74 18 8B 45 EC 8B .......}..t..E..
00417D90 40 08 85 C0 74 06 50 E8 94 E8 FE FF 8B 45 F8 E8 @...t.P......E..
00417DA0 B4 AC FE FF                                     ....           

l00417DA4:
	mov	esp,ebp
	pop	ebp
	ret

;; fn00417DA8: 00417DA8
;;   Called from:
;;     00418E36 (in fn00418E0C)
fn00417DA8 proc
	push	ebp
	mov	ebp,esp
	add	esp,F8
	push	ebx
	push	esi
	push	edi
	mov	edi,ecx
	mov	ebx,edx
	mov	[ebp-04],eax
	mov	eax,[ebp-04]
	call	00417BF0
	xor	eax,eax
	push	ebp
	push	00417E14
	push	dword ptr fs:[eax]
	mov	fs:[eax],esp
	mov	eax,[ebx+10]
	mov	[ebp-08],eax
	mov	edx,edi
	mov	eax,[ebp-04]
	call	00417C08
	mov	esi,eax
	mov	[ebx+10],esi
	cmp	esi,[ebp-08]
	jz	00417DF3

l00417DE8:
	mov	eax,ebx
	mov	si,FFFD
	call	00403928

l00417DF3:
	mov	edx,[ebp-08]
	mov	eax,[ebp-04]
	call	00417CEC
	xor	eax,eax
	pop	edx
	pop	ecx
	pop	ecx
	mov	fs:[eax],edx
	push	00417E1B
	mov	eax,[ebp-04]
	call	00417BFC
	ret
00417E14             E9 0B BE FE FF EB F0 5F 5E 5B 59 59     ......._^[YY
00417E20 5D C3 8B C0 55 8B EC 83 C4 F8 53 56 8B F1 8B DA ]...U.....SV....
00417E30 89 45 FC 8B 45 FC E8 B5 FD FF FF 33 C0 55 68 86 .E..E......3.Uh.
00417E40 7E 41 00 64 FF 30 64 89 20 8B 43 10 89 45 F8 3B ~A.d.0d. .C..E.;
00417E50 75 F8 74 1C FF 46 04 89 73 10 8B C3 66 BE FD FF u.t..F..s...f...
00417E60 E8 C3 BA FE FF 8B 55 F8 8B 45 FC E8 7C FE FF FF ......U..E..|...
00417E70 33 C0 5A 59 59 64 89 10 68 8D 7E 41 00 8B 45 FC 3.ZYYd..h.~A..E.
00417E80 E8 77 FD FF FF C3 E9 99 BD FE FF EB F0 5E 5B 59 .w...........^[Y
00417E90 59 5D C3 90 FF FF FF FF 07 00 00 00 63 6C 42 6C Y]..........clBl
00417EA0 61 63 6B 00 FF FF FF FF 08 00 00 00 63 6C 4D 61 ack.........clMa
00417EB0 72 6F 6F 6E 00 00 00 00 FF FF FF FF 07 00 00 00 roon............
00417EC0 63 6C 47 72 65 65 6E 00 FF FF FF FF 07 00 00 00 clGreen.........
00417ED0 63 6C 4F 6C 69 76 65 00 FF FF FF FF 06 00 00 00 clOlive.........
00417EE0 63 6C 4E 61 76 79 00 00 FF FF FF FF 08 00 00 00 clNavy..........
00417EF0 63 6C 50 75 72 70 6C 65 00 00 00 00 FF FF FF FF clPurple........
00417F00 06 00 00 00 63 6C 54 65 61 6C 00 00 FF FF FF FF ....clTeal......
00417F10 06 00 00 00 63 6C 47 72 61 79 00 00 FF FF FF FF ....clGray......
00417F20 08 00 00 00 63 6C 53 69 6C 76 65 72 00 00 00 00 ....clSilver....
00417F30 FF FF FF FF 05 00 00 00 63 6C 52 65 64 00 00 00 ........clRed...
00417F40 FF FF FF FF 06 00 00 00 63 6C 4C 69 6D 65 00 00 ........clLime..
00417F50 FF FF FF FF 08 00 00 00 63 6C 59 65 6C 6C 6F 77 ........clYellow
00417F60 00 00 00 00 FF FF FF FF 06 00 00 00 63 6C 42 6C ............clBl
00417F70 75 65 00 00 FF FF FF FF 09 00 00 00 63 6C 46 75 ue..........clFu
00417F80 63 68 73 69 61 00 00 00 FF FF FF FF 06 00 00 00 chsia...........
00417F90 63 6C 41 71 75 61 00 00 FF FF FF FF 07 00 00 00 clAqua..........
00417FA0 63 6C 57 68 69 74 65 00 FF FF FF FF 0C 00 00 00 clWhite.........
00417FB0 63 6C 4D 6F 6E 65 79 47 72 65 65 6E 00 00 00 00 clMoneyGreen....
00417FC0 FF FF FF FF 09 00 00 00 63 6C 53 6B 79 42 6C 75 ........clSkyBlu
00417FD0 65 00 00 00 FF FF FF FF 07 00 00 00 63 6C 43 72 e...........clCr
00417FE0 65 61 6D 00 FF FF FF FF 09 00 00 00 63 6C 4D 65 eam.........clMe
00417FF0 64 47 72 61 79 00 00 00 FF FF FF FF 0E 00 00 00 dGray...........
00418000 63 6C 41 63 74 69 76 65 42 6F 72 64 65 72 00 00 clActiveBorder..
00418010 FF FF FF FF 0F 00 00 00 63 6C 41 63 74 69 76 65 ........clActive
00418020 43 61 70 74 69 6F 6E 00 FF FF FF FF 0E 00 00 00 Caption.........
00418030 63 6C 41 70 70 57 6F 72 6B 53 70 61 63 65 00 00 clAppWorkSpace..
00418040 FF FF FF FF 0C 00 00 00 63 6C 42 61 63 6B 67 72 ........clBackgr
00418050 6F 75 6E 64 00 00 00 00 FF FF FF FF 09 00 00 00 ound............
00418060 63 6C 42 74 6E 46 61 63 65 00 00 00 FF FF FF FF clBtnFace.......
00418070 0E 00 00 00 63 6C 42 74 6E 48 69 67 68 6C 69 67 ....clBtnHighlig
00418080 68 74 00 00 FF FF FF FF 0B 00 00 00 63 6C 42 74 ht..........clBt
00418090 6E 53 68 61 64 6F 77 00 FF FF FF FF 09 00 00 00 nShadow.........
004180A0 63 6C 42 74 6E 54 65 78 74 00 00 00 FF FF FF FF clBtnText.......
004180B0 0D 00 00 00 63 6C 43 61 70 74 69 6F 6E 54 65 78 ....clCaptionTex
004180C0 74 00 00 00 FF FF FF FF 09 00 00 00 63 6C 44 65 t...........clDe
004180D0 66 61 75 6C 74 00 00 00 FF FF FF FF 17 00 00 00 fault...........
004180E0 63 6C 47 72 61 64 69 65 6E 74 41 63 74 69 76 65 clGradientActive
004180F0 43 61 70 74 69 6F 6E 00 FF FF FF FF 19 00 00 00 Caption.........
00418100 63 6C 47 72 61 64 69 65 6E 74 49 6E 61 63 74 69 clGradientInacti
00418110 76 65 43 61 70 74 69 6F 6E 00 00 00 FF FF FF FF veCaption.......
00418120 0A 00 00 00 63 6C 47 72 61 79 54 65 78 74 00 00 ....clGrayText..
00418130 FF FF FF FF 0B 00 00 00 63 6C 48 69 67 68 6C 69 ........clHighli
00418140 67 68 74 00 FF FF FF FF 0F 00 00 00 63 6C 48 69 ght.........clHi
00418150 67 68 6C 69 67 68 74 54 65 78 74 00 FF FF FF FF ghlightText.....
00418160 0A 00 00 00 63 6C 48 6F 74 4C 69 67 68 74 00 00 ....clHotLight..
00418170 FF FF FF FF 10 00 00 00 63 6C 49 6E 61 63 74 69 ........clInacti
00418180 76 65 42 6F 72 64 65 72 00 00 00 00 FF FF FF FF veBorder........
00418190 11 00 00 00 63 6C 49 6E 61 63 74 69 76 65 43 61 ....clInactiveCa
004181A0 70 74 69 6F 6E 00 00 00 FF FF FF FF 15 00 00 00 ption...........
004181B0 63 6C 49 6E 61 63 74 69 76 65 43 61 70 74 69 6F clInactiveCaptio
004181C0 6E 54 65 78 74 00 00 00 FF FF FF FF 08 00 00 00 nText...........
004181D0 63 6C 49 6E 66 6F 42 6B 00 00 00 00 FF FF FF FF clInfoBk........
004181E0 0A 00 00 00 63 6C 49 6E 66 6F 54 65 78 74 00 00 ....clInfoText..
004181F0 FF FF FF FF 06 00 00 00 63 6C 4D 65 6E 75 00 00 ........clMenu..
00418200 FF FF FF FF 09 00 00 00 63 6C 4D 65 6E 75 42 61 ........clMenuBa
00418210 72 00 00 00 FF FF FF FF 0F 00 00 00 63 6C 4D 65 r...........clMe
00418220 6E 75 48 69 67 68 6C 69 67 68 74 00 FF FF FF FF nuHighlight.....
00418230 0A 00 00 00 63 6C 4D 65 6E 75 54 65 78 74 00 00 ....clMenuText..
00418240 FF FF FF FF 06 00 00 00 63 6C 4E 6F 6E 65 00 00 ........clNone..
00418250 FF FF FF FF 0B 00 00 00 63 6C 53 63 72 6F 6C 6C ........clScroll
00418260 42 61 72 00 FF FF FF FF 0C 00 00 00 63 6C 33 44 Bar.........cl3D
00418270 44 6B 53 68 61 64 6F 77 00 00 00 00 FF FF FF FF DkShadow........
00418280 09 00 00 00 63 6C 33 44 4C 69 67 68 74 00 00 00 ....cl3DLight...
00418290 FF FF FF FF 08 00 00 00 63 6C 57 69 6E 64 6F 77 ........clWindow
004182A0 00 00 00 00 FF FF FF FF 0D 00 00 00 63 6C 57 69 ............clWi
004182B0 6E 64 6F 77 46 72 61 6D 65 00 00 00 FF FF FF FF ndowFrame.......
004182C0 0C 00 00 00 63 6C 57 69 6E 64 6F 77 54 65 78 74 ....clWindowText
004182D0 00 00 00 00                                     ....           

;; fn004182D4: 004182D4
;;   Called from:
;;     00418C27 (in fn00418BD0)
;;     00418F36 (in fn00418E98)
;;     00419447 (in fn0041942C)
;;     004194BF (in fn00419488)
;;     004194E3 (in fn00419488)
;;     0041AB62 (in fn0041A748)
;;     0041AB7C (in fn0041A748)
;;     0041ABA7 (in fn0041A748)
;;     0041ABBA (in fn0041A748)
;;     0041AC61 (in fn0041A748)
;;     0041AC7B (in fn0041A748)
fn004182D4 proc
	test	eax,eax
	jge	004182E3

l004182D8:
	and	eax,000000FF
	push	eax
	call	00406750

l004182E3:
	ret
004182E4             6A 33 B9 DC 83 42 00 E8 B8 BE FF FF     j3...B......
004182F0 C3 8D 40 00 6A 33 B9 DC 83 42 00 E8 68 BE FF FF ..@.j3...B..h...
00418300 C3 8D 40 00 53 66 83 78 0A 00 74 0A 8B D8 8B D0 ..@.Sf.x..t.....
00418310 8B 43 0C FF 53 08 5B C3                         .C..S.[.       

;; fn00418318: 00418318
;;   Called from:
;;     00418E19 (in fn00418E0C)
fn00418318 proc
	mov	edx,[eax+14]
	test	edx,edx
	jz	00418325

l0041831F:
	push	edx
	call	00406418

l00418325:
	ret
00418326                   8B C0                               ..       

;; fn00418328: 00418328
;;   Called from:
;;     00418E4B (in fn00418E0C)
fn00418328 proc
	mov	edx,[eax+14]
	test	edx,edx
	jz	00418335

l0041832F:
	push	edx
	call	00406538

l00418335:
	ret
00418336                   8B C0 FF FF FF FF 0C 00 00 00       ..........
00418340 41 4E 53 49 5F 43 48 41 52 53 45 54 00 00 00 00 ANSI_CHARSET....
00418350 FF FF FF FF 0F 00 00 00 44 45 46 41 55 4C 54 5F ........DEFAULT_
00418360 43 48 41 52 53 45 54 00 FF FF FF FF 0E 00 00 00 CHARSET.........
00418370 53 59 4D 42 4F 4C 5F 43 48 41 52 53 45 54 00 00 SYMBOL_CHARSET..
00418380 FF FF FF FF 0B 00 00 00 4D 41 43 5F 43 48 41 52 ........MAC_CHAR
00418390 53 45 54 00 FF FF FF FF 10 00 00 00 53 48 49 46 SET.........SHIF
004183A0 54 4A 49 53 5F 43 48 41 52 53 45 54 00 00 00 00 TJIS_CHARSET....
004183B0 FF FF FF FF 0F 00 00 00 48 41 4E 47 45 55 4C 5F ........HANGEUL_
004183C0 43 48 41 52 53 45 54 00 FF FF FF FF 0D 00 00 00 CHARSET.........
004183D0 4A 4F 48 41 42 5F 43 48 41 52 53 45 54 00 00 00 JOHAB_CHARSET...
004183E0 FF FF FF FF 0E 00 00 00 47 42 32 33 31 32 5F 43 ........GB2312_C
004183F0 48 41 52 53 45 54 00 00 FF FF FF FF 13 00 00 00 HARSET..........
00418400 43 48 49 4E 45 53 45 42 49 47 35 5F 43 48 41 52 CHINESEBIG5_CHAR
00418410 53 45 54 00 FF FF FF FF 0D 00 00 00 47 52 45 45 SET.........GREE
00418420 4B 5F 43 48 41 52 53 45 54 00 00 00 FF FF FF FF K_CHARSET.......
00418430 0F 00 00 00 54 55 52 4B 49 53 48 5F 43 48 41 52 ....TURKISH_CHAR
00418440 53 45 54 00 FF FF FF FF 0E 00 00 00 48 45 42 52 SET.........HEBR
00418450 45 57 5F 43 48 41 52 53 45 54 00 00 FF FF FF FF EW_CHARSET......
00418460 0E 00 00 00 41 52 41 42 49 43 5F 43 48 41 52 53 ....ARABIC_CHARS
00418470 45 54 00 00 FF FF FF FF 0E 00 00 00 42 41 4C 54 ET..........BALT
00418480 49 43 5F 43 48 41 52 53 45 54 00 00 FF FF FF FF IC_CHARSET......
00418490 0F 00 00 00 52 55 53 53 49 41 4E 5F 43 48 41 52 ....RUSSIAN_CHAR
004184A0 53 45 54 00 FF FF FF FF 0C 00 00 00 54 48 41 49 SET.........THAI
004184B0 5F 43 48 41 52 53 45 54 00 00 00 00 FF FF FF FF _CHARSET........
004184C0 12 00 00 00 45 41 53 54 45 55 52 4F 50 45 5F 43 ....EASTEUROPE_C
004184D0 48 41 52 53 45 54 00 00 FF FF FF FF 0B 00 00 00 HARSET..........
004184E0 4F 45 4D 5F 43 48 41 52 53 45 54 00 6A 11 B9 7C OEM_CHARSET.j..|
004184F0 85 42 00 E8 B0 BC FF FF C3 8D 40 00 6A 11 B9 7C .B........@.j..|
00418500 85 42 00 E8 60 BC FF FF C3 8D 40 00             .B..`.....@.   

;; fn0041850C: 0041850C
;;   Called from:
;;     00418FE0 (in fn00418FB4)
fn0041850C proc
	push	ebx
	push	esi
	test	dl,dl
	jz	0041851A

l00418512:
	add	esp,F0
	call	00403990

l0041851A:
	mov	ebx,edx
	mov	esi,eax
	xor	eax,eax
	mov	[004283AC],eax
	mov	edx,004283AC
	mov	eax,[0042B8D0]
	call	00417C08
	mov	[esi+10],eax
	mov	dword ptr [esi+18],FF000008
	mov	eax,[0042B88C]
	mov	[esi+1C],eax
	mov	eax,esi
	test	bl,bl
	jz	0041855B

l0041854C:
	call	004039E8
	pop	dword ptr fs:[00000000]
	add	esp,0C

l0041855B:
	mov	eax,esi
	pop	esi
	pop	ebx
	ret
00418560 53 56 E8 91 B4 FE FF 8B DA 8B F0 8B 56 10 A1 D0 SV..........V...
00418570 B8 42 00 E8 74 F7 FF FF 84 DB 7E 07 8B C6 E8 5D .B..t.....~....]
00418580 B4 FE FF 5E 5B C3 8B C0 53 8B D8 8B C3 E8 72 FD ...^[...S.....r.
00418590 FF FF 83 7B 20 00 74 08 8B 43 20 8B 10 FF 52 0C ...{ .t..C ...R.
004185A0 5B C3 8B C0 55 8B EC 83 C4 F8 53 89 55 F8 89 45 [...U.....S.U..E
004185B0 FC 8B 45 F8 8B 15 B4 73 41 00 E8 F9 B2 FE FF 84 ..E....sA.......
004185C0 C0 0F 84 9F 00 00 00 8B 45 FC E8 49 FD FF FF 33 ........E..I...3
004185D0 C0 55 68 5F 86 41 00 64 FF 30 64 89 20 8B 5D F8 .Uh_.A.d.0d. .].
004185E0 8B C3 E8 31 FD FF FF 33 C0 55 68 42 86 41 00 64 ...1...3.UhB.A.d
004185F0 FF 30 64 89 20 8B 4B 10 8B 55 FC A1 D0 B8 42 00 .0d. .K..U....B.
00418600 E8 1F F8 FF FF 8B 53 18 8B 45 FC E8 D0 00 00 00 ......S..E......
00418610 8B 45 FC 8B 40 1C 3B 43 1C 74 11 8B C3 E8 1E 03 .E..@.;C.t......
00418620 00 00 8B D0 8B 45 FC E8 30 03 00 00 33 C0 5A 59 .....E..0...3.ZY
00418630 59 64 89 10 68 49 86 41 00 8B 45 F8 E8 E7 FC FF Yd..hI.A..E.....
00418640 FF C3 E9 DD B5 FE FF EB F0 33 C0 5A 59 59 64 89 .........3.ZYYd.
00418650 10 68 71 86 41 00 8B 45 FC E8 CA FC FF FF C3 E9 .hq.A..E........
00418660 C0 B5 FE FF EB F0 8B 55 F8 8B 45 FC E8 17 C0 FF .......U..E.....
00418670 FF 5B 59 59 5D C3 8B C0 56 57 8B 40 10 8D 70 10 .[YY]...VW.@..p.
00418680 8B FA B9 0B 00 00 00 F3 A5 33 C0 89 02 5F 5E C3 .........3..._^.
00418690 55 8B EC 51 53 8B DA 89 45 FC 8B 45 FC E8 76 FC U..QS...E..E..v.
004186A0 FF FF 33 C0 55 68 D5 86 41 00 64 FF 30 64 89 20 ..3.Uh..A.d.0d. 
004186B0 8B CB 8B 55 FC A1 D0 B8 42 00 E8 E9 F6 FF FF 33 ...U....B......3
004186C0 C0 5A 59 59 64 89 10 68 DC 86 41 00 8B 45 FC E8 .ZYYd..h..A..E..
004186D0 54 FC FF FF C3 E9 4A B5 FE FF EB F0 5B 59 5D C3 T.....J.....[Y].
004186E0 56 3B 50 18 74 0C 89 50 18 66 BE FD FF E8 36 B2 V;P.t..P.f....6.
004186F0 FE FF 5E C3                                     ..^.           

;; fn004186F4: 004186F4
;;   Called from:
;;     00419432 (in fn0041942C)
fn004186F4 proc
	push	ebp
	mov	ebp,esp
	add	esp,B4
	push	ebx
	xor	edx,edx
	mov	[ebp-4C],edx
	mov	[ebp-48],edx
	mov	[ebp-44],edx
	mov	ebx,eax
	xor	eax,eax
	push	ebp
	push	0041887D
	push	dword ptr fs:[eax]
	mov	fs:[eax],esp
	mov	eax,[ebx+10]
	mov	[ebp-04],eax
	mov	eax,[ebp-04]
	cmp	dword ptr [eax+08],00
	jnz	0041885C

l00418729:
	mov	eax,[0042B8D0]
	call	00417BF0
	xor	eax,eax
	push	ebp
	push	00418855
	push	dword ptr fs:[eax]
	mov	fs:[eax],esp
	mov	eax,[ebp-04]
	cmp	dword ptr [eax+08],00
	jnz	0041883D

l0041874E:
	mov	eax,[ebp-04]
	mov	eax,[eax+14]
	mov	[ebp-40],eax
	xor	eax,eax
	mov	[ebp-3C],eax
	xor	eax,eax
	mov	[ebp-38],eax
	xor	eax,eax
	mov	[ebp-34],eax
	mov	eax,[ebp-04]
	test	byte ptr [eax+19],01
	jz	00418778

l0041876F:
	mov	dword ptr [ebp-30],000002BC
	jmp	0041877F

l00418778:
	mov	dword ptr [ebp-30],00000190

l0041877F:
	mov	eax,[ebp-04]
	test	byte ptr [eax+19],02
	setnz	al
	mov	[ebp-2C],al
	mov	eax,[ebp-04]
	test	byte ptr [eax+19],04
	setnz	al
	mov	[ebp-2B],al
	mov	eax,[ebp-04]
	test	byte ptr [eax+19],08
	setnz	al
	mov	[ebp-2A],al
	mov	eax,[ebp-04]
	mov	al,[eax+1A]
	mov	[ebp-29],al
	lea	eax,[ebp-44]
	mov	edx,[ebp-04]
	add	edx,1B
	call	004044A4
	mov	eax,[ebp-44]
	mov	edx,00418894
	call	00407914
	test	eax,eax
	jnz	004187E8

l004187CE:
	lea	eax,[ebp-48]
	mov	edx,004283B7
	call	004044A4
	mov	edx,[ebp-48]
	lea	eax,[ebp-24]
	call	0040818C
	jmp	00418801

l004187E8:
	lea	eax,[ebp-4C]
	mov	edx,[ebp-04]
	add	edx,1B
	call	004044A4
	mov	edx,[ebp-4C]
	lea	eax,[ebp-24]
	call	0040818C

l00418801:
	mov	byte ptr [ebp-26],00
	mov	byte ptr [ebp-28],00
	mov	byte ptr [ebp-27],00
	mov	eax,ebx
	call	004189B4
	dec	al
	jz	0041881E

l00418818:
	dec	al
	jz	00418824

l0041881C:
	jmp	0041882A

l0041881E:
	mov	byte ptr [ebp-25],02
	jmp	0041882E

l00418824:
	mov	byte ptr [ebp-25],01
	jmp	0041882E

l0041882A:
	mov	byte ptr [ebp-25],00

l0041882E:
	lea	eax,[ebp-40]
	push	eax
	call	00406608
	mov	edx,[ebp-04]
	mov	[edx+08],eax

l0041883D:
	xor	eax,eax
	pop	edx
	pop	ecx
	pop	ecx
	mov	fs:[eax],edx
	push	0041885C
	mov	eax,[0042B8D0]
	call	00417BFC
	ret
00418855                E9 CA B3 FE FF EB EE                  .......   

l0041885C:
	mov	eax,[ebp-04]
	mov	ebx,[eax+08]
	xor	eax,eax
	pop	edx
	pop	ecx
	pop	ecx
	mov	fs:[eax],edx
	push	00418884
	lea	eax,[ebp-4C]
	mov	edx,00000003
	call	00404264
	ret
0041887D                                        E9 A2 B3              ...
00418880 FE FF EB EB 8B C3 5B 8B E5 5D C3 00 FF FF FF FF ......[..]......
00418890 07 00 00 00 44 65 66 61 75 6C 74 00 8B 40 10 8B ....Default..@..
004188A0 40 14 C3 90 53 56 83 C4 D4 8B F2 8B D8 8B D4 8B @...SV..........
004188B0 C3 E8 C2 FD FF FF 89 74 24 04 8B D4 8B C3 E8 CD .......t$.......
004188C0 FD FF FF 83 C4 2C 5E 5B C3 8D 40 00 53 56 8B F2 .....,^[..@.SV..
004188D0 8B D8 8B C6 8B 53 10 83 C2 1B E8 C5 BB FE FF 5E .....S.........^
004188E0 5B C3 8B C0 53 56 81 C4 D4 FE FF FF 8B F2 8B D8 [...SV..........
004188F0 85 F6 74 41 8B D4 8B C3 E8 7B FD FF FF 8D 44 24 ..tA.....{....D$
00418900 0B 33 C9 BA 20 00 00 00 E8 13 A7 FE FF 8D 44 24 .3.. .........D$
00418910 2C 8B D6 B9 FF 00 00 00 E8 BF BB FE FF 8D 54 24 ,.............T$
00418920 2C 8D 44 24 0B B1 1F E8 D8 A6 FE FF 8B D4 8B C3 ,.D$............
00418930 E8 5B FD FF FF 81 C4 2C 01 00 00 5E 5B C3 8B C0 .[.....,...^[...
00418940 53 8B D8 8B 43 1C 50 6A 48 8B C3 E8 4C FF FF FF S...C.PjH...L...
00418950 50 E8 F2 DB FE FF F7 D8 5B C3 8B C0 53 56 8B F2 P.......[...SV..
00418960 8B D8 6A 48 8B 43 1C 50 56 E8 DA DB FE FF 8B D0 ..jH.C.PV.......
00418970 F7 DA 8B C3 E8 2B FF FF FF 5E 5B C3 8B 40 10 8A .....+...^[..@..
00418980 50 19 8B C2 C3 8D 40 00 53 83 C4 D0 88 14 24 8B P.....@.S.....$.
00418990 D8 8D 54 24 04 8B C3 E8 DC FC FF FF 8A 04 24 88 ..T$..........$.
004189A0 44 24 0D 8D 54 24 04 8B C3 E8 E2 FC FF FF 83 C4 D$..T$..........
004189B0 30 5B C3 90                                     0[..           

;; fn004189B4: 004189B4
;;   Called from:
;;     0041880F (in fn004186F4)
fn004189B4 proc
	mov	eax,[eax+10]
	mov	al,[eax+18]
	ret
004189BB                                  90 53 56 83 C4            .SV..
004189C0 D4 8B DA 8B F0 8B D4 8B C6 E8 AA FC FF FF 88 5C ...............\
004189D0 24 08 8B D4 8B C6 E8 B5 FC FF FF 83 C4 2C 5E 5B $............,^[
004189E0 C3 8D 40 00 8B 40 10 8A 40 1A C3 90 53 56 83 C4 ..@..@..@...SV..
004189F0 D4 8B DA 8B F0 8B D4 8B C6 E8 7A FC FF FF 88 5C ..........z....\
00418A00 24 0A 8B D4 8B C6 E8 85 FC FF FF 83 C4 2C 5E 5B $............,^[
00418A10 C3 8D 40 00                                     ..@.           

;; fn00418A14: 00418A14
;;   Called from:
;;     00419001 (in fn00418FB4)
fn00418A14 proc
	push	ebx
	push	esi
	test	dl,dl
	jz	00418A22

l00418A1A:
	add	esp,F0
	call	00403990

l00418A22:
	mov	ebx,edx
	mov	esi,eax
	mov	edx,0042860C
	mov	eax,[0042B8D4]
	call	00417C08
	mov	[esi+10],eax
	mov	byte ptr [esi+18],04
	mov	eax,esi
	test	bl,bl
	jz	00418A51

l00418A42:
	call	004039E8
	pop	dword ptr fs:[00000000]
	add	esp,0C

l00418A51:
	mov	eax,esi
	pop	esi
	pop	ebx
	ret
00418A56                   8B C0 53 56 E8 99 AF FE FF 8B       ..SV......
00418A60 DA 8B F0 8B 56 10 A1 D4 B8 42 00 E8 7C F2 FF FF ....V....B..|...
00418A70 84 DB 7E 07 8B C6 E8 65 AF FE FF 5E 5B C3 8B C0 ..~....e...^[...
00418A80 55 8B EC 83 C4 F8 53 89 55 F8 89 45 FC 8B 45 F8 U.....S.U..E..E.
00418A90 8B 15 30 75 41 00 E8 1D AE FE FF 84 C0 0F 84 83 ..0uA...........
00418AA0 00 00 00 8B 45 FC E8 6D F8 FF FF 33 C0 55 68 1F ....E..m...3.Uh.
00418AB0 8B 41 00 64 FF 30 64 89 20 8B 5D F8 8B C3 E8 55 .A.d.0d. .]....U
00418AC0 F8 FF FF 33 C0 55 68 02 8B 41 00 64 FF 30 64 89 ...3.Uh..A.d.0d.
00418AD0 20 8B 4B 10 8B 55 FC A1 D4 B8 42 00 E8 43 F3 FF  .K..U....B..C..
00418AE0 FF 8A 53 18 8B 45 FC E8 7C 01 00 00 33 C0 5A 59 ..S..E..|...3.ZY
00418AF0 59 64 89 10 68 09 8B 41 00 8B 45 F8 E8 27 F8 FF Yd..h..A..E..'..
00418B00 FF C3 E9 1D B1 FE FF EB F0 33 C0 5A 59 59 64 89 .........3.ZYYd.
00418B10 10 68 31 8B 41 00 8B 45 FC E8 0A F8 FF FF C3 E9 .h1.A..E........
00418B20 00 B1 FE FF EB F0 8B 55 F8 8B 45 FC E8 57 BB FF .......U..E..W..
00418B30 FF 5B 59 59 5D C3 8B C0 56 57 8B 40 10 8D 70 10 .[YY]...VW.@..p.
00418B40 8B FA A5 A5 A5 A5 33 C0 89 02 5F 5E C3 8D 40 00 ......3..._^..@.
00418B50 55 8B EC 51 53 8B DA 89 45 FC 8B 45 FC E8 B6 F7 U..QS...E..E....
00418B60 FF FF 33 C0 55 68 95 8B 41 00 64 FF 30 64 89 20 ..3.Uh..A.d.0d. 
00418B70 8B CB 8B 55 FC A1 D4 B8 42 00 E8 29 F2 FF FF 33 ...U....B..)...3
00418B80 C0 5A 59 59 64 89 10 68 9C 8B 41 00 8B 45 FC E8 .ZYYd..h..A..E..
00418B90 94 F7 FF FF C3 E9 8A B0 FE FF EB F0 5B 59 5D C3 ............[Y].
00418BA0 8B 40 10 8B 40 14 C3 90 53 56 83 C4 F0 8B F2 8B .@..@...SV......
00418BB0 D8 8B D4 8B C3 E8 7E FF FF FF 89 74 24 04 8B D4 ......~....t$...
00418BC0 8B C3 E8 89 FF FF FF 83 C4 10 5E 5B C3 8D 40 00 ..........^[..@.

;; fn00418BD0: 00418BD0
;;   Called from:
;;     0041945E (in fn00419458)
fn00418BD0 proc
	push	ebp
	mov	ebp,esp
	add	esp,EC
	mov	eax,[eax+10]
	mov	[ebp-04],eax
	mov	eax,[ebp-04]
	cmp	dword ptr [eax+08],00
	jnz	00418C5D

l00418BE5:
	mov	eax,[0042B8D4]
	call	00417BF0
	xor	eax,eax
	push	ebp
	push	00418C56
	push	dword ptr fs:[eax]
	mov	fs:[eax],esp
	mov	eax,[ebp-04]
	cmp	dword ptr [eax+08],00
	jnz	00418C3E

l00418C06:
	mov	eax,[ebp-04]
	movzx	eax,byte ptr [eax+1C]
	movzx	eax,word ptr [0042861C+eax*2]
	mov	[ebp-14],eax
	mov	eax,[ebp-04]
	mov	eax,[eax+18]
	mov	[ebp-10],eax
	mov	eax,[ebp-04]
	mov	eax,[eax+14]
	call	004182D4
	mov	[ebp-08],eax
	lea	eax,[ebp-14]
	push	eax
	call	00406620
	mov	edx,[ebp-04]
	mov	[edx+08],eax

l00418C3E:
	xor	eax,eax
	pop	edx
	pop	ecx
	pop	ecx
	mov	fs:[eax],edx
	push	00418C5D
	mov	eax,[0042B8D4]
	call	00417BFC
	ret
00418C56                   E9 C9 AF FE FF EB EE                .......  

l00418C5D:
	mov	eax,[ebp-04]
	mov	eax,[eax+08]
	mov	esp,ebp
	pop	ebp
	ret
00418C67                      90 56 3A 50 18 74 0C 88 50        .V:P.t..P
00418C70 18 66 BE FD FF E8 AE AC FE FF 5E C3 8B 40 10 8A .f........^..@..
00418C80 40 1C C3 90 53 56 83 C4 F0 8B DA 8B F0 8B D4 8B @...SV..........
00418C90 C6 E8 A2 FE FF FF 88 5C 24 0C 8B D4 8B C6 E8 AD .......\$.......
00418CA0 FE FF FF 83 C4 10 5E 5B C3 8D 40 00 8B 40 10 8B ......^[..@..@..
00418CB0 40 18 C3 90 53 56 83 C4 F0 8B F2 8B D8 85 F6 7C @...SV.........|
00418CC0 16 8B D4 8B C3 E8 6E FE FF FF 89 74 24 08 8B D4 ......n....t$...
00418CD0 8B C3 E8 79 FE FF FF 83 C4 10 5E 5B C3 8D 40 00 ...y......^[..@.

;; fn00418CE0: 00418CE0
;;   Called from:
;;     00419022 (in fn00418FB4)
fn00418CE0 proc
	push	ebx
	push	esi
	test	dl,dl
	jz	00418CEE

l00418CE6:
	add	esp,F0
	call	00403990

l00418CEE:
	mov	ebx,edx
	mov	esi,eax
	mov	edx,0042862C
	mov	eax,[0042B8D8]
	call	00417C08
	mov	[esi+10],eax
	mov	eax,esi
	test	bl,bl
	jz	00418D19

l00418D0A:
	call	004039E8
	pop	dword ptr fs:[00000000]
	add	esp,0C

l00418D19:
	mov	eax,esi
	pop	esi
	pop	ebx
	ret
00418D1E                                           8B C0               ..
00418D20 53 56 E8 D1 AC FE FF 8B DA 8B F0 8B 56 10 A1 D8 SV..........V...
00418D30 B8 42 00 E8 B4 EF FF FF 84 DB 7E 07 8B C6 E8 9D .B........~.....
00418D40 AC FE FF 5E 5B C3 8B C0 55 8B EC 83 C4 F8 53 89 ...^[...U.....S.
00418D50 55 F8 89 45 FC 8B 45 F8 8B 15 30 76 41 00 E8 55 U..E..E...0vA..U
00418D60 AB FE FF 84 C0 74 78 8B 45 FC E8 A9 F5 FF FF 33 .....tx.E......3
00418D70 C0 55 68 D8 8D 41 00 64 FF 30 64 89 20 8B 5D F8 .Uh..A.d.0d. .].
00418D80 8B C3 E8 91 F5 FF FF 33 C0 55 68 BB 8D 41 00 64 .......3.Uh..A.d
00418D90 FF 30 64 89 20 8B 4B 10 8B 55 FC A1 D8 B8 42 00 .0d. .K..U....B.
00418DA0 E8 7F F0 FF FF 33 C0 5A 59 59 64 89 10 68 C2 8D .....3.ZYYd..h..
00418DB0 41 00 8B 45 F8 E8 6E F5 FF FF C3 E9 64 AE FE FF A..E..n.....d...
00418DC0 EB F0 33 C0 5A 59 59 64 89 10 68 EA 8D 41 00 8B ..3.ZYYd..h..A..
00418DD0 45 FC E8 51 F5 FF FF C3 E9 47 AE FE FF EB F0 8B E..Q.....G......
00418DE0 55 F8 8B 45 FC E8 9E B8 FF FF 5B 59 59 5D C3 90 U..E......[YY]..

;; fn00418DF0: 00418DF0
;;   Called from:
;;     00418E71 (in fn00418E64)
;;     00418F8D (in fn00418F80)
fn00418DF0 proc
	push	esi
	push	edi
	mov	eax,[eax+10]
	lea	esi,[eax+10]
	mov	edi,edx
	movsd
	movsd
	movsd
	movsd
	xor	eax,eax
	mov	[edx],eax
	xor	eax,eax
	mov	[edx+08],eax
	pop	edi
	pop	esi
	ret
00418E0A                               8B C0                       ..   

;; fn00418E0C: 00418E0C
;;   Called from:
;;     00418E8A (in fn00418E64)
;;     00418FA8 (in fn00418F80)
fn00418E0C proc
	push	ebp
	mov	ebp,esp
	push	ecx
	push	ebx
	mov	ebx,edx
	mov	[ebp-04],eax
	mov	eax,[ebp-04]
	call	00418318
	xor	eax,eax
	push	ebp
	push	00418E51
	push	dword ptr fs:[eax]
	mov	fs:[eax],esp
	mov	ecx,ebx
	mov	edx,[ebp-04]
	mov	eax,[0042B8D8]
	call	00417DA8
	xor	eax,eax
	pop	edx
	pop	ecx
	pop	ecx
	mov	fs:[eax],edx
	push	00418E58
	mov	eax,[ebp-04]
	call	00418328
	ret
00418E51    E9 CE AD FE FF EB F0 5B 59 5D C3              .......[Y].   

;; fn00418E5C: 00418E5C
;;   Called from:
;;     004194BA (in fn00419488)
;;     004194DE (in fn00419488)
;;     0041AB77 (in fn0041A748)
;;     0041ABB5 (in fn0041A748)
;;     0041AC76 (in fn0041A748)
fn00418E5C proc
	mov	eax,[eax+10]
	mov	eax,[eax+14]
	ret
00418E63          90                                        .           

;; fn00418E64: 00418E64
;;   Called from:
;;     00426B2B (in fn00426AC8)
;;     00426B64 (in fn00426AC8)
;;     00427090 (in fn00426C30)
fn00418E64 proc
	push	ebx
	push	esi
	add	esp,F0
	mov	esi,edx
	mov	ebx,eax
	mov	edx,esp
	mov	eax,ebx
	call	00418DF0
	mov	[esp+04],esi
	cmp	byte ptr [esp+0C],01
	jnz	00418E86

l00418E81:
	mov	byte ptr [esp+0C],00

l00418E86:
	mov	edx,esp
	mov	eax,ebx
	call	00418E0C
	add	esp,10
	pop	esi
	pop	ebx
	ret
00418E95                8D 40 00                              .@.       

;; fn00418E98: 00418E98
;;   Called from:
;;     004190F1 (in fn004190D4)
;;     0041948E (in fn00419488)
;;     0041949C (in fn00419488)
;;     0041AB26 (in fn0041A748)
fn00418E98 proc
	push	ebp
	mov	ebp,esp
	add	esp,F0
	mov	eax,[eax+10]
	mov	[ebp-04],eax
	mov	eax,[ebp-04]
	cmp	dword ptr [eax+08],00
	jnz	00418F6C

l00418EB1:
	mov	eax,[0042B8D8]
	call	00417BF0
	xor	edx,edx
	push	ebp
	push	00418F65
	push	dword ptr fs:[edx]
	mov	fs:[edx],esp
	mov	eax,[ebp-04]
	cmp	dword ptr [eax+08],00
	jnz	00418F4D

l00418ED2:
	mov	eax,[ebp-04]
	mov	eax,[eax+18]
	test	eax,eax
	jz	00418EFA

l00418EDC:
	mov	dword ptr [ebp-10],00000003
	mov	dl,01
	mov	ecx,[eax]
	call	dword ptr [ecx+6C]
	mov	eax,[ebp-04]
	mov	eax,[eax+18]
	mov	edx,[eax]
	call	dword ptr [edx+64]
	mov	[ebp-08],eax
	jmp	00418F30

l00418EFA:
	xor	eax,eax
	mov	[ebp-08],eax
	mov	eax,[ebp-04]
	mov	al,[eax+1C]
	mov	edx,eax
	sub	dl,01
	jc	00418F10

l00418F0C:
	jz	00418F17

l00418F0E:
	jmp	00418F20

l00418F10:
	xor	eax,eax
	mov	[ebp-10],eax
	jmp	00418F30

l00418F17:
	mov	dword ptr [ebp-10],00000001
	jmp	00418F30

l00418F20:
	mov	dword ptr [ebp-10],00000002
	and	eax,7F
	sub	eax,02
	mov	[ebp-08],eax

l00418F30:
	mov	eax,[ebp-04]
	mov	eax,[eax+14]
	call	004182D4
	mov	[ebp-0C],eax
	lea	eax,[ebp-10]
	push	eax
	call	004065E0
	mov	edx,[ebp-04]
	mov	[edx+08],eax

l00418F4D:
	xor	eax,eax
	pop	edx
	pop	ecx
	pop	ecx
	mov	fs:[eax],edx
	push	00418F6C
	mov	eax,[0042B8D8]
	call	00417BFC
	ret
00418F65                E9 BA AC FE FF EB EE                  .......   

l00418F6C:
	mov	eax,[ebp-04]
	mov	eax,[eax+08]
	mov	esp,ebp
	pop	ebp
	ret
00418F76                   8B C0                               ..       

;; fn00418F78: 00418F78
;;   Called from:
;;     004194AE (in fn00419488)
fn00418F78 proc
	mov	eax,[eax+10]
	mov	al,[eax+1C]
	ret
00418F7F                                              90                .

;; fn00418F80: 00418F80
;;   Called from:
;;     00426B1E (in fn00426AC8)
;;     0042707E (in fn00426C30)
fn00418F80 proc
	push	ebx
	push	esi
	add	esp,F0
	mov	ebx,edx
	mov	esi,eax
	mov	edx,esp
	mov	eax,esi
	call	00418DF0
	mov	eax,ebx
	mov	[esp+0C],al
	cmp	al,01
	jnz	00418FA4

l00418F9C:
	mov	dword ptr [esp+04],00FFFFFF

l00418FA4:
	mov	edx,esp
	mov	eax,esi
	call	00418E0C
	add	esp,10
	pop	esi
	pop	ebx
	ret
00418FB3          90                                        .           

;; fn00418FB4: 00418FB4
;;   Called from:
;;     0041A399 (in fn0041A380)
fn00418FB4 proc
	push	ebx
	push	esi
	push	edi
	test	dl,dl
	jz	00418FC3

l00418FBB:
	add	esp,F0
	call	00403990

l00418FC3:
	mov	ebx,edx
	mov	edi,eax
	xor	edx,edx
	mov	eax,edi
	call	004036F0
	lea	eax,[edi+38]
	push	eax
	call	00406530
	mov	dl,01
	mov	eax,[004173B4]
	call	0041850C
	mov	esi,eax
	mov	[edi+0C],esi
	mov	[esi+0C],edi
	mov	dword ptr [esi+08],00419504
	lea	eax,[edi+38]
	mov	[esi+14],eax
	mov	dl,01
	mov	eax,[00417530]
	call	00418A14
	mov	esi,eax
	mov	[edi+10],esi
	mov	[esi+0C],edi
	mov	dword ptr [esi+08],00419524
	lea	eax,[edi+38]
	mov	[esi+14],eax
	mov	dl,01
	mov	eax,[00417630]
	call	00418CE0
	mov	esi,eax
	mov	[edi+14],esi
	mov	[esi+0C],edi
	mov	dword ptr [esi+08],00419544
	lea	eax,[edi+38]
	mov	[esi+14],eax
	mov	dword ptr [edi+20],00CC0020
	mov	al,[00419074]
	mov	[edi+08],al
	mov	edx,edi
	mov	eax,[0042B8DC]
	call	00414564
	mov	eax,edi
	test	bl,bl
	jz	0041906C

l0041905D:
	call	004039E8
	pop	dword ptr fs:[00000000]
	add	esp,0C

l0041906C:
	mov	eax,edi
	pop	edi
	pop	esi
	pop	ebx
	ret
00419072       00 00 00 00 00 00 53 56 E8 79 A9 FE FF 8B   ......SV.y....
00419080 DA 8B F0 8B D6 A1 DC B8 42 00 E8 71 B5 FF FF 33 ........B..q...3
00419090 D2 8B C6 E8 A4 02 00 00 8B 46 0C E8 80 A6 FE FF .........F......
004190A0 8B 46 10 E8 78 A6 FE FF 8B 46 14 E8 70 A6 FE FF .F..x....F..p...
004190B0 8D 46 38 50 E8 57 D3 FE FF 8B D3 80 E2 FC 8B C6 .F8P.W..........
004190C0 E8 97 B5 FF FF 84 DB 7E 07 8B C6 E8 10 A9 FE FF .......~........
004190D0 5E 5B C3 90                                     ^[..           

;; fn004190D4: 004190D4
;;   Called from:
;;     00426B54 (in fn00426AC8)
;;     00426B87 (in fn00426AC8)
;;     00426BBD (in fn00426AC8)
;;     004270BA (in fn00426C30)
fn004190D4 proc
	push	ebx
	push	esi
	mov	esi,edx
	mov	ebx,eax
	mov	eax,ebx
	mov	edx,[eax]
	call	dword ptr [edx+10]
	mov	dl,[0041910C]
	mov	eax,ebx
	call	00419390
	mov	eax,[ebx+14]
	call	00418E98
	push	eax
	push	esi
	mov	eax,[ebx+04]
	push	eax
	call	00406740
	mov	eax,ebx
	mov	edx,[eax]
	call	dword ptr [edx+0C]
	pop	esi
	pop	ebx
	ret
0041910B                                  00 09 00 00 00            .....

;; fn00419110: 00419110
;;   Called from:
;;     0041A400 (in fn0041A3E8)
fn00419110 proc
	push	ebx
	mov	ebx,eax
	push	0042B8B8
	call	00406418
	inc	dword ptr [ebx+50]
	push	0042B8B8
	call	00406538
	lea	eax,[ebx+38]
	push	eax
	call	00406418
	pop	ebx
	ret
00419135                8D 40 00                              .@.       

;; fn00419138: 00419138
;;   Called from:
;;     00419283 (in fn00419270)
fn00419138 proc
	push	ebx
	push	esi
	push	edi
	mov	edi,ecx
	mov	esi,edx
	mov	ebx,eax
	mov	dl,[00419160]
	mov	eax,ebx
	call	00419390
	push	00
	push	edi
	push	esi
	mov	eax,[ebx+04]
	push	eax
	call	004066A0
	pop	edi
	pop	esi
	pop	ebx
	ret
0041915F                                              00                .
00419160 01 00 00 00                                     ....           

;; fn00419164: 00419164
;;   Called from:
;;     004274F7 (in fn00427488)
fn00419164 proc
	push	ebx
	push	esi
	push	edi
	mov	esi,ecx
	mov	edi,edx
	mov	ebx,eax
	test	esi,esi
	jz	00419197

l00419171:
	mov	eax,ebx
	mov	edx,[eax]
	call	dword ptr [edx+10]
	mov	dl,[0041919C]
	mov	eax,ebx
	call	00419390
	mov	ecx,edi
	mov	edx,ebx
	mov	eax,esi
	mov	esi,[eax]
	call	dword ptr [esi+14]
	mov	eax,ebx
	mov	edx,[eax]
	call	dword ptr [edx+0C]

l00419197:
	pop	edi
	pop	esi
	pop	ebx
	ret
0041919B                                  00 0F 00 00 00            .....
004191A0 55 8B EC 51 53 8B D8 68 B8 B8 42 00 E8 67 D2 FE U..QS..h..B..g..
004191B0 FF 33 C0 55 68 EC 91 41 00 64 FF 30 64 89 20 83 .3.Uh..A.d.0d. .
004191C0 7B 50 00 0F 94 45 FF 80 7D FF 00 74 07 8B C3 E8 {P...E..}..t....
004191D0 3C FF FF FF 33 C0 5A 59 59 64 89 10 68 F3 91 41 <...3.ZYYd..h..A
004191E0 00 68 B8 B8 42 00 E8 4D D3 FE FF C3 E9 33 AA FE .h..B..M.....3..
004191F0 FF EB EE 8A 45 FF 5B 59 5D C3 8B C0             ....E.[Y]...   

;; fn004191FC: 004191FC
;;   Called from:
;;     0041A476 (in fn0041A3E8)
fn004191FC proc
	push	ebx
	mov	ebx,eax
	lea	eax,[ebx+38]
	push	eax
	call	00406538
	push	0042B8B8
	call	00406418
	dec	dword ptr [ebx+50]
	push	0042B8B8
	call	00406538
	pop	ebx
	ret
00419221    8D 40 00 56 8B F0 8B 46 0C 8B 08 FF 51 08 5E  .@.V...F....Q.^
00419230 C3 8D 40 00 8B 40 10 8B 08 FF 51 08 C3 8D 40 00 ..@..@....Q...@.
00419240 8B 40 14 8B 08 FF 51 08 C3 8D 40 00             .@....Q...@.   

;; fn0041924C: 0041924C
;;   Called from:
;;     0041935B (in fn0041933C)
fn0041924C proc
	push	ebx
	push	esi
	mov	esi,edx
	mov	ebx,eax
	mov	dl,[0041926C]
	mov	eax,ebx
	call	00419390
	push	esi
	mov	eax,[ebx+04]
	push	eax
	call	00406648
	pop	esi
	pop	ebx
	ret
0041926C                                     01 00 00 00             ....

;; fn00419270: 00419270
;;   Called from:
;;     00419386 (in fn0041933C)
fn00419270 proc
	push	esi
	push	edi
	add	esp,F8
	mov	esi,edx
	lea	edi,[esp]
	movsd
	movsd
	mov	ecx,[esp+04]
	mov	edx,[esp]
	call	00419138
	pop	ecx
	pop	edx
	pop	edi
	pop	esi
	ret
0041928D                                        8D 40 00              .@.

;; fn00419290: 00419290
;;   Called from:
;;     0042706A (in fn00426C30)
fn00419290 proc
	push	ebx
	push	esi
	push	edi
	mov	edi,ecx
	mov	esi,edx
	mov	ebx,eax
	mov	dl,[004192B8]
	mov	eax,ebx
	call	00419390
	push	edi
	push	esi
	mov	eax,[ebx+04]
	push	eax
	call	00406678
	pop	edi
	pop	esi
	pop	ebx
	ret
004192B5                00 00 00 01 00 00 00                  .......   

;; fn004192BC: 004192BC
;;   Called from:
;;     0041CF68 (in fn0041CF50)
;;     0041CF8D (in fn0041CF50)
;;     0041CFC8 (in fn0041CFB0)
;;     0041CFED (in fn0041CFB0)
;;     0041D025 (in fn0041D010)
;;     0041D048 (in fn0041D010)
;;     0041D07E (in fn0041D068)
;;     0041D0A1 (in fn0041D068)
;;     0041D0D9 (in fn0041D0C4)
;;     0041D0FC (in fn0041D0C4)
;;     0041D132 (in fn0041D11C)
;;     0041D155 (in fn0041D11C)
;;     0041D199 (in fn0041D178)
;;     0041D1B0 (in fn0041D178)
;;     0041D1E4 (in fn0041D1C8)
;;     0041D204 (in fn0041D1C8)
fn004192BC proc
	push	ebx
	mov	ebx,eax
	mov	eax,ebx
	mov	edx,[eax]
	call	dword ptr [edx+10]
	mov	dl,[004192D8]
	mov	eax,ebx
	call	00419390
	mov	eax,[ebx+04]
	pop	ebx
	ret
004192D8                         0F 00 00 00                     ....   

;; fn004192DC: 004192DC
;;   Called from:
;;     00419352 (in fn0041933C)
fn004192DC proc
	push	ebx
	push	esi
	mov	ebx,eax
	mov	esi,[ebx+04]
	test	esi,esi
	jz	0041932F

l004192E7:
	mov	al,[00419334]
	not	eax
	and	al,[ebx+08]
	mov	dl,[ebx+08]
	cmp	dl,al
	jz	0041932F

l004192F8:
	mov	eax,[0042B890]
	push	eax
	push	esi
	call	004066B8
	mov	eax,[0042B894]
	push	eax
	mov	eax,[ebx+04]
	push	eax
	call	004066B8
	mov	eax,[0042B898]
	push	eax
	mov	eax,[ebx+04]
	push	eax
	call	004066B8
	mov	al,[00419334]
	not	eax
	and	al,[ebx+08]
	mov	[ebx+08],al

l0041932F:
	pop	esi
	pop	ebx
	ret
00419332       00 00 0E 00 00 00 C3 8D 40 00               ........@.   

;; fn0041933C: 0041933C
;;   Called from:
;;     0041A44E (in fn0041A3E8)
fn0041933C proc
	push	ebx
	push	esi
	add	esp,F8
	mov	esi,edx
	mov	ebx,eax
	mov	eax,[ebx+04]
	cmp	esi,eax
	jz	0041938B

l0041934C:
	test	eax,eax
	jz	00419376

l00419350:
	mov	eax,ebx
	call	004192DC
	mov	edx,esp
	mov	eax,ebx
	call	0041924C
	mov	eax,[esp]
	mov	[ebx+18],eax
	mov	eax,[esp+04]
	mov	[ebx+1C],eax
	xor	eax,eax
	mov	[ebx+04],eax
	and	byte ptr [ebx+08],FE

l00419376:
	test	esi,esi
	jz	0041938B

l0041937A:
	or	byte ptr [ebx+08],01
	mov	[ebx+04],esi
	lea	edx,[ebx+18]
	mov	eax,ebx
	call	00419270

l0041938B:
	pop	ecx
	pop	edx
	pop	esi
	pop	ebx
	ret

;; fn00419390: 00419390
;;   Called from:
;;     004190E9 (in fn004190D4)
;;     00419149 (in fn00419138)
;;     00419180 (in fn00419164)
;;     0041925A (in fn0041924C)
;;     004192A1 (in fn00419290)
;;     004192CE (in fn004192BC)
fn00419390 proc
	push	ebx
	push	esi
	push	ecx
	mov	[esp],dl
	mov	esi,eax
	mov	bl,[esi+08]
	not	ebx
	and	bl,[esp]
	mov	al,[00419400]
	cmp	al,bl
	jz	004193FC

l004193A9:
	test	bl,01
	jz	004193D2

l004193AE:
	mov	eax,esi
	mov	edx,[eax]
	call	dword ptr [edx+14]
	cmp	dword ptr [esi+04],00
	jnz	004193D2

l004193BB:
	mov	ecx,[0042A754]
	mov	dl,01
	mov	eax,[00413518]
	call	0040B0C4
	call	00403C5C

l004193D2:
	test	bl,02
	jz	004193DE

l004193D7:
	mov	eax,esi
	call	0041942C

l004193DE:
	test	bl,04
	jz	004193EA

l004193E3:
	mov	eax,esi
	call	00419458

l004193EA:
	test	bl,08
	jz	004193F6

l004193EF:
	mov	eax,esi
	call	00419488

l004193F6:
	or	bl,[esi+08]
	mov	[esi+08],bl

l004193FC:
	pop	edx
	pop	esi
	pop	ebx
	ret
00419400 00 00 00 00 53 66 83 78 32 00 74 0A 8B D8 8B D0 ....Sf.x2.t.....
00419410 8B 43 34 FF 53 30 5B C3 53 66 83 78 2A 00 74 0A .C4.S0[.Sf.x*.t.
00419420 8B D8 8B D0 8B 43 2C FF 53 28 5B C3             .....C,.S([.   

;; fn0041942C: 0041942C
;;   Called from:
;;     004193D9 (in fn00419390)
fn0041942C proc
	push	ebx
	mov	ebx,eax
	mov	eax,[ebx+0C]
	call	004186F4
	push	eax
	mov	eax,[ebx+04]
	push	eax
	call	004066B8
	mov	eax,[ebx+0C]
	mov	eax,[eax+18]
	call	004182D4
	push	eax
	mov	eax,[ebx+04]
	push	eax
	call	004066F8
	pop	ebx
	ret

;; fn00419458: 00419458
;;   Called from:
;;     004193E5 (in fn00419390)
fn00419458 proc
	push	ebx
	mov	ebx,eax
	mov	eax,[ebx+10]
	call	00418BD0
	push	eax
	mov	eax,[ebx+04]
	push	eax
	call	004066B8
	mov	eax,[ebx+10]
	movzx	eax,byte ptr [eax+18]
	movzx	eax,word ptr [0042863C+eax*2]
	push	eax
	mov	eax,[ebx+04]
	push	eax
	call	004066E8
	pop	ebx
	ret

;; fn00419488: 00419488
;;   Called from:
;;     004193F1 (in fn00419390)
fn00419488 proc
	push	ebx
	mov	ebx,eax
	mov	eax,[ebx+14]
	call	00418E98
	push	eax
	call	00406708
	mov	eax,[ebx+14]
	call	00418E98
	push	eax
	mov	eax,[ebx+04]
	push	eax
	call	004066B8
	mov	eax,[ebx+14]
	call	00418F78
	test	al,al
	jnz	004194DB

l004194B7:
	mov	eax,[ebx+14]
	call	00418E5C
	call	004182D4
	push	eax
	mov	eax,[ebx+04]
	push	eax
	call	004066C8
	push	02
	mov	eax,[ebx+04]
	push	eax
	call	004066D0
	pop	ebx
	ret

l004194DB:
	mov	eax,[ebx+14]
	call	00418E5C
	call	004182D4
	not	eax
	push	eax
	mov	eax,[ebx+04]
	push	eax
	call	004066C8
	push	01
	mov	eax,[ebx+04]
	push	eax
	call	004066D0
	pop	ebx
	ret
00419501    8D 40 00 53 8B D8 F6 43 08 02 74 13 80 63 08  .@.S...C..t..c.
00419510 FD A1 98 B8 42 00 50 8B 43 04 50 E8 98 D1 FE FF ....B.P.C.P.....
00419520 5B C3 8B C0 53 8B D8 F6 43 08 04 74 13 80 63 08 [...S...C..t..c.
00419530 FB A1 90 B8 42 00 50 8B 43 04 50 E8 78 D1 FE FF ....B.P.C.P.x...
00419540 5B C3 8B C0 53 8B D8 F6 43 08 08 74 13 80 63 08 [...S...C..t..c.
00419550 F7 A1 94 B8 42 00 50 8B 43 04 50 E8 58 D1 FE FF ....B.P.C.P.X...
00419560 5B C3 8B C0                                     [...           

;; fn00419564: 00419564
;;   Called from:
;;     0041B712 (in fn0041B6E8)
fn00419564 proc
	push	ebx
	mov	ebx,eax
	mov	ecx,ebx
	mov	dl,01
	mov	eax,[00417000]
	call	0040B0C4
	call	00403C5C
	pop	ebx
	ret

;; fn0041957C: 0041957C
;;   Called from:
;;     00419599 (in fn00419594)
;;     0041C422 (in fn0041C3E4)
fn0041957C proc
	push	ebx
	mov	ebx,eax
	mov	ecx,ebx
	mov	dl,01
	mov	eax,[00416FA4]
	call	0040B0C4
	call	00403C5C
	pop	ebx
	ret

;; fn00419594: 00419594
;;   Called from:
;;     0041A7D2 (in fn0041A748)
fn00419594 proc
	mov	eax,[0042A734]
	call	0041957C
	ret
0041959F                                              90                .

;; fn004195A0: 004195A0
;;   Called from:
;;     00419672 (in fn004195F4)
fn004195A0 proc
	push	ebp
	mov	ebp,esp
	push	00
	xor	eax,eax
	push	ebp
	push	004195EA
	push	dword ptr fs:[eax]
	mov	fs:[eax],esp
	lea	edx,[ebp-04]
	mov	eax,[0042A67C]
	call	00406050
	mov	ecx,[ebp-04]
	mov	dl,01
	mov	eax,[004134BC]
	call	0040B008
	call	00403C5C
	xor	eax,eax
	pop	edx
	pop	ecx
	pop	ecx
	mov	fs:[eax],edx
	push	004195F1
	lea	eax,[ebp-04]
	call	00404240
	ret
004195EA                               E9 35 A6 FE FF EB           .5....
004195F0 F0 59 5D C3                                     .Y].           

;; fn004195F4: 004195F4
;;   Called from:
;;     004196A3 (in fn0041969C)
;;     0041AA28 (in fn0041A748)
;;     0041B549 (in fn0041B4F8)
fn004195F4 proc
	push	ebp
	mov	ebp,esp
	add	esp,FFFFFEFC
	push	ebx
	xor	eax,eax
	mov	[ebp-00000104],eax
	xor	eax,eax
	push	ebp
	push	00419690
	push	dword ptr fs:[eax]
	mov	fs:[eax],esp
	call	004064A0
	mov	ebx,eax
	test	ebx,ebx
	jz	00419672

l0041961F:
	push	00
	push	00000100
	lea	eax,[ebp-00000100]
	push	eax
	push	00000400
	push	ebx
	push	00
	push	00001000
	call	00406450
	test	eax,eax
	jz	00419672

l00419643:
	lea	eax,[ebp-00000104]
	lea	edx,[ebp-00000100]
	mov	ecx,00000100
	call	004044B0
	mov	ecx,[ebp-00000104]
	mov	dl,01
	mov	eax,[004134BC]
	call	0040B008
	call	00403C5C
	jmp	00419677

l00419672:
	call	004195A0

l00419677:
	xor	eax,eax
	pop	edx
	pop	ecx
	pop	ecx
	mov	fs:[eax],edx
	push	00419697
	lea	eax,[ebp-00000104]
	call	00404240
	ret
00419690 E9 8F A5 FE FF EB ED 5B 8B E5 5D C3             .......[..].   

;; fn0041969C: 0041969C
;;   Called from:
;;     0041A7DE (in fn0041A748)
;;     0041A7EF (in fn0041A748)
;;     0041A83B (in fn0041A748)
;;     0041A85F (in fn0041A748)
;;     0041AA1A (in fn0041A748)
;;     0041AAAA (in fn0041A748)
;;     0041AABC (in fn0041A748)
;;     0041AC08 (in fn0041A748)
;;     0041AC2B (in fn0041A748)
;;     0041ACCE (in fn0041A748)
;;     0041B97F (in fn0041B924)
;;     0041C4A6 (in fn0041C3E4)
fn0041969C proc
	push	ebx
	mov	ebx,eax
	test	ebx,ebx
	jnz	004196A8

l004196A3:
	call	004195F4

l004196A8:
	mov	eax,ebx
	pop	ebx
	ret
004196AC                                     8B D0 66 FF             ..f.
004196B0 CA 74 0C 66 83 EA 03 74 06 66 83 EA 04 75 0A 8B .t.f...t.f...u..
004196C0 C8 B8 01 00 00 00 D3 E0 C3 33 C0 C3             .........3..   

;; fn004196CC: 004196CC
;;   Called from:
;;     0041B73B (in fn0041B6E8)
fn004196CC proc
	dec	ecx
	imul	edx
	add	eax,ecx
	not	ecx
	and	eax,ecx
	test	eax,eax
	jns	004196DC

l004196D9:
	add	eax,07

l004196DC:
	sar	eax,03
	ret
004196E0 55 8B EC 83 C4 DC 53 56 57 89 4D F8 89 55 FC 8B U.....SVW.M..U..
004196F0 F8 8B 75 14 8B 5D 18 C6 45 F7 01 A1 D8 A9 42 00 ..u..]..E.....B.
00419700 83 38 02 0F 85 B1 00 00 00 3B 5D 2C 0F 85 A8 00 .8.......;],....
00419710 00 00 3B 75 28 0F 85 9F 00 00 00 6A 01 6A 01 8B ..;u(......j.j..
00419720 45 24 50 E8 C0 CE FE FF E8 6F FF FF FF 89 45 EC E$P......o....E.
00419730 8B 45 EC 50 8B 45 10 50 E8 7B CF FE FF 89 45 EC .E.P.E.P.{....E.
00419740 33 C0 55 68 B3 97 41 00 64 FF 30 64 89 20 BA 20 3.Uh..A.d.0d. . 
00419750 00 CC 00 B8 29 00 AA 00 E8 63 D0 FE FF 50 8B 45 ....)....c...P.E
00419760 08 50 8B 45 0C 50 8B 45 EC 50 8B 45 1C 50 8B 45 .P.E.P.E.P.E.P.E
00419770 20 50 8B 45 24 50 8B 45 28 50 8B 45 2C 50 8B 45  P.E$P.E(P.E,P.E
00419780 F8 50 8B 45 FC 50 57 E8 0C CF FE FF 33 C0 5A 59 .P.E.PW.....3.ZY
00419790 59 64 89 10 68 67 99 41 00 8B 45 EC 50 8B 45 10 Yd..hg.A..E.P.E.
004197A0 50 E8 12 CF FE FF 89 45 EC 8B 45 EC 50 E8 7E CE P......E..E.P.~.
004197B0 FE FF C3 E9 6C A4 FE FF EB DF 33 C0 89 45 DC 6A ....l.....3..E.j
004197C0 00 E8 2A CE FE FF E8 D1 FE FF FF 89 45 F0 33 C0 ..*.........E.3.
004197D0 55 68 60 99 41 00 64 FF 30 64 89 20 56 53 8B 45 Uh`.A.d.0d. VS.E
004197E0 24 50 E8 01 CE FE FF E8 B0 FE FF FF 89 45 EC 8B $P...........E..
004197F0 45 EC 50 8B 45 F0 50 E8 BC CE FE FF 89 45 E8 6A E.P.E.P......E.j
00419800 00 A1 84 B8 42 00 50 8B 45 24 50 E8 B0 CE FE FF ....B.P.E$P.....
00419810 89 45 DC 6A 00 8B 45 DC 50 8B 45 24 50 E8 9E CE .E.j..E.P.E$P...
00419820 FE FF 83 7D DC 00 74 14 6A FF 8B 45 DC 50 8B 45 ...}..t.j..E.P.E
00419830 F0 50 E8 89 CE FE FF 89 45 DC EB 14 6A FF A1 84 .P......E...j...
00419840 B8 42 00 50 8B 45 F0 50 E8 73 CE FE FF 89 45 DC .B.P.E.P.s....E.
00419850 8B 45 F0 50 E8 57 CE FE FF 68 20 00 CC 00 56 53 .E.P.W...h ...VS
00419860 8B 45 08 50 8B 45 0C 50 8B 45 10 50 56 53 6A 00 .E.P.E.P.E.PVSj.
00419870 6A 00 8B 45 F0 50 E8 85 CE FE FF 68 28 03 44 00 j..E.P.....h(.D.
00419880 56 53 8B 45 1C 50 8B 45 20 50 8B 45 24 50 56 53 VS.E.P.E P.E$PVS
00419890 6A 00 6A 00 8B 45 F0 50 E8 63 CE FE FF 6A 00 57 j.j..E.P.c...j.W
004198A0 E8 53 CE FE FF 89 45 E4 68 FF FF FF 00 57 E8 15 .S....E.h....W..
004198B0 CE FE FF 89 45 E0 68 C6 00 88 00 56 53 8B 45 08 ....E.h....VS.E.
004198C0 50 8B 45 0C 50 8B 45 10 50 8B 45 28 50 8B 45 2C P.E.P.E.P.E(P.E,
004198D0 50 8B 45 F8 50 8B 45 FC 50 57 E8 21 CE FE FF 68 P.E.P.E.PW.!...h
004198E0 46 00 66 00 56 53 6A 00 6A 00 8B 45 F0 50 8B 45 F.f.VSj.j..E.P.E
004198F0 28 50 8B 45 2C 50 8B 45 F8 50 8B 45 FC 50 57 E8 (P.E,P.E.P.E.PW.
00419900 FC CD FE FF 8B 45 E4 50 57 E8 EA CD FE FF 8B 45 .....E.PW......E
00419910 E0 50 57 E8 B0 CD FE FF 83 7D E8 00 74 0D 8B 45 .PW......}..t..E
00419920 E8 50 8B 45 F0 50 E8 8D CD FE FF 8B 45 EC 50 E8 .P.E.P......E.P.
00419930 FC CC FE FF 33 C0 5A 59 59 64 89 10 68 67 99 41 ....3.ZYYd..hg.A
00419940 00 83 7D DC 00 74 0F 6A 00 8B 45 DC 50 8B 45 F0 ..}..t.j..E.P.E.
00419950 50 E8 6A CD FE FF 8B 45 F0 50 E8 C9 CC FE FF C3 P.j....E.P......
00419960 E9 BF A2 FE FF EB DA 8A 45 F7 5F 5E 5B 8B E5 5D ........E._^[..]
00419970 C2 28 00 90 53 83 C4 F8 89 04 24 8B 04 24 89 44 .(..S.....$..$.D
00419980 24 04 BA FF 00 00 00 8B 44 24 04 8D 04 90 8D 0C $.......D$......
00419990 52 8B 1C 24 8D 0C 0B 8A 59 02 88 58 02 8A 59 01 R..$....Y..X..Y.
004199A0 88 58 01 8A 09 88 08 C6 40 03 00 4A 85 D2 75 D7 .X......@..J..u.
004199B0 8B 44 24 04 C6 40 03 00 59 5A 5B C3 53 56 57 83 .D$..@..YZ[.SVW.
004199C0 C4 F8 8B F2 89 04 24 8B 04 24 89 44 24 04 8B 3E ......$..$.D$..>
004199D0 4F 85 FF 7E 29 B9 01 00 00 00 8B 44 24 04 8D 04 O..~)......D$...
004199E0 88 8D 14 49 8B 1C 24 8D 14 13 8A 58 02 88 5A 02 ...I..$....X..Z.
004199F0 8A 58 01 88 5A 01 8A 00 88 02 41 4F 75 DC 81 3E .X..Z.....AOu..>
00419A00 00 01 00 00 7D 22 B8 00 01 00 00 2B 06 8D 14 40 ....}".....+...@
00419A10 8B 06 8D 04 40 8B 0C 24 8D 04 01 33 C9 E8 FE 95 ....@..$...3....
00419A20 FE FF C7 06 00 01 00 00 59 5A 5F 5E 5B C3 8B C0 ........YZ_^[...

;; fn00419A30: 00419A30
;;   Called from:
;;     00419CBE (in fn00419C38)
;;     00419D20 (in fn00419CDC)
fn00419A30 proc
	push	ebp
	mov	ebp,esp
	add	esp,D4
	mov	[ebp-08],edx
	mov	[ebp-04],eax
	lea	eax,[ebp-2C]
	push	eax
	call	004064E8
	mov	edx,[ebp-04]
	mov	ecx,[ebp-08]
	dec	ecx
	js	00419A81

l00419A4E:
	lea	eax,[ebp-2C]
	cmp	word ptr [eax+20],03
	jz	00419A68

l00419A58:
	mov	eax,[edx+ecx*4]
	bswap	eax
	shr	eax,08
	mov	[edx+ecx*4],eax
	dec	ecx
	jns	00419A58

l00419A66:
	jmp	00419A81

l00419A68:
	push	ebx

l00419A69:
	xor	ebx,ebx
	mov	eax,[edx+ecx*4]
	mov	bh,al
	mov	bl,ah
	shr	eax,10
	shl	ebx,08
	mov	bl,al
	mov	[edx+ecx*4],ebx
	dec	ecx
	jns	00419A69

l00419A80:
	pop	ebx

l00419A81:
	mov	esp,ebp
	pop	ebp
	ret
00419A85                8D 40 00 55 8B EC 81 C4 F8 FB FF      .@.U.......
00419A90 FF 53 66 C7 85 F8 FB FF FF 00 03 66 C7 85 FA FB .Sf........f....
00419AA0 FF FF 10 00 8D 95 FC FB FF FF B9 40 00 00 00 E8 ...........@....
00419AB0 68 91 FE FF 6A 00 E8 8D CC FE FF 89 45 FC 33 C0 h...j.......E.3.
00419AC0 55 68 85 9B 41 00 64 FF 30 64 89 20 6A 68 8B 45 Uh..A.d.0d. jh.E
00419AD0 FC 50 E8 89 CB FE FF 8B D8 83 FB 10 0F 8C 8A 00 .P..............
00419AE0 00 00 8D 85 FC FB FF FF 50 6A 08 6A 00 8B 45 FC ........Pj.j..E.
00419AF0 50 E8 92 CB FE FF 81 BD 18 FC FF FF C0 C0 C0 00 P...............
00419B00 75 4C 8D 85 18 FC FF FF 50 6A 01 8B C3 83 E8 08 uL......Pj......
00419B10 50 8B 45 FC 50 E8 6E CB FE FF 0F B7 85 FA FB FF P.E.P.n.........
00419B20 FF 8D 84 85 E0 FB FF FF 50 6A 07 83 EB 07 53 8B ........Pj....S.
00419B30 45 FC 50 E8 50 CB FE FF 8D 85 1C FC FF FF 50 6A E.P.P.........Pj
00419B40 01 6A 07 8B 45 FC 50 E8 3C CB FE FF EB 1E 0F B7 .j..E.P.<.......
00419B50 85 FA FB FF FF 8D 84 85 DC FB FF FF 50 6A 08 83 ............Pj..
00419B60 EB 08 53 8B 45 FC 50 E8 1C CB FE FF 33 C0 5A 59 ..S.E.P.....3.ZY
00419B70 59 64 89 10 68 8C 9B 41 00 8B 45 FC 50 6A 00 E8 Yd..h..A..E.Pj..
00419B80 F4 CB FE FF C3 E9 9A A0 FE FF EB ED 8D 85 F8 FB ................
00419B90 FF FF 50 E8 80 CA FE FF 5B 8B E5 5D C3 8D 40 00 ..P.....[..]..@.

;; fn00419BA0: 00419BA0
;;   Called from:
;;     00419CAC (in fn00419C38)
fn00419BA0 proc
	push	ebp
	mov	ebp,esp
	add	esp,F8
	push	ebx
	mov	ebx,eax
	mov	byte ptr [ebp-01],00
	cmp	dword ptr [0042B884],00
	jz	00419C2D

l00419BB6:
	push	00
	call	00406748
	mov	[ebp-08],eax
	xor	edx,edx
	push	ebp
	push	00419C26
	push	dword ptr fs:[edx]
	mov	fs:[edx],esp
	push	68
	mov	eax,[ebp-08]
	push	eax
	call	00406660
	cmp	eax,10
	jl	00419C0D

l00419BDE:
	lea	eax,[ebx+04]
	push	eax
	push	08
	push	00
	mov	eax,[0042B884]
	push	eax
	call	00406670
	movzx	eax,word ptr [ebx+02]
	lea	eax,[ebx+eax*4-1C]
	push	eax
	push	08
	push	08
	mov	eax,[0042B884]
	push	eax
	call	00406670
	mov	byte ptr [ebp-01],01

l00419C0D:
	xor	eax,eax
	pop	edx
	pop	ecx
	pop	ecx
	mov	fs:[eax],edx
	push	00419C2D
	mov	eax,[ebp-08]
	push	eax
	push	00
	call	00406778
	ret
00419C26                   E9 F9 9F FE FF EB ED                .......  

l00419C2D:
	mov	al,[ebp-01]
	pop	ebx
	pop	ecx
	pop	ecx
	pop	ebp
	ret
00419C35                8D 40 00                              .@.       

;; fn00419C38: 00419C38
;;   Called from:
;;     0041B96A (in fn0041B924)
fn00419C38 proc
	push	ebx
	push	esi
	push	edi
	add	esp,FFFFFBFC
	mov	edi,eax
	xor	esi,esi
	mov	word ptr [esp],0300
	test	edi,edi
	jz	00419C87

l00419C4F:
	push	00
	call	004065F0
	mov	ebx,eax
	push	edi
	push	ebx
	call	004066B8
	mov	edi,eax
	lea	eax,[esp+04]
	push	eax
	push	00000100
	push	00
	push	ebx
	call	00406650
	mov	[esp+02],ax
	push	edi
	push	ebx
	call	004066B8
	push	ebx
	call	00406628
	jmp	00419C9A

l00419C87:
	mov	[esp+02],cx
	mov	eax,edx
	lea	edx,[esp+04]
	shl	ecx,02
	call	00402C1C

l00419C9A:
	cmp	word ptr [esp+02],00
	jz	00419CCD

l00419CA2:
	cmp	word ptr [esp+02],10
	jnz	00419CB5

l00419CAA:
	mov	eax,esp
	call	00419BA0
	test	al,al
	jnz	00419CC3

l00419CB5:
	movzx	edx,word ptr [esp+02]
	lea	eax,[esp+04]
	call	00419A30

l00419CC3:
	mov	eax,esp
	push	eax
	call	00406618
	mov	esi,eax

l00419CCD:
	mov	eax,esi
	add	esp,00000404
	pop	edi
	pop	esi
	pop	ebx
	ret
00419CD9                            8D 40 00                      .@.   

;; fn00419CDC: 00419CDC
;;   Called from:
;;     0041A945 (in fn0041A748)
fn00419CDC proc
	push	ebx
	push	esi
	push	edi
	push	ecx
	mov	edi,ecx
	mov	esi,edx
	mov	ebx,eax
	xor	eax,eax
	mov	[esp],eax
	test	ebx,ebx
	jz	00419D25

l00419CEF:
	push	esp
	push	04
	push	ebx
	call	00406668
	test	eax,eax
	jz	00419D25

l00419CFC:
	cmp	dword ptr [esp],00
	jz	00419D25

l00419D02:
	lea	eax,[edi+01]
	cmp	eax,[esp]
	jge	00419D0D

l00419D0A:
	mov	[esp],eax

l00419D0D:
	push	esi
	mov	eax,[esp+04]
	push	eax
	push	00
	push	ebx
	call	00406670
	mov	eax,esi
	mov	edx,[esp]
	call	00419A30

l00419D25:
	mov	eax,[esp]
	pop	edx
	pop	edi
	pop	esi
	pop	ebx
	ret
00419D2D                                        8D 40 00              .@.
00419D30 53 56 57 83 C4 AC 8B F1 8B DA 33 D2 89 54 24 18 SVW.......3..T$.
00419D40 54 6A 54 50 E8 1F C9 FE FF 85 C0 75 07 E8 42 F8 TjTP.......u..B.
00419D50 FF FF EB 3F 83 F8 40 7C 18 83 7C 24 18 28 72 11 ...?..@|..|$.(r.
00419D60 56 8B FB 8D 74 24 1C B9 0A 00 00 00 F3 A5 5E EB V...t$........^.
00419D70 22 8B C3 33 C9 BA 28 00 00 00 E8 A1 92 FE FF C7 "..3..(.........
00419D80 03 28 00 00 00 8B 44 24 04 89 43 04 8B 44 24 08 .(....D$..C..D$.
00419D90 89 43 08 8B C6 83 E8 02 74 0F 48 83 E8 0E 72 11 .C......t.H...r.
00419DA0 2D F0 00 00 00 72 15 EB 1E 66 C7 43 0E 01 00 EB -....r...f.C....
00419DB0 24 66 C7 43 0E 04 00 89 73 20 EB 19 66 C7 43 0E $f.C....s ..f.C.
00419DC0 08 00 89 73 20 EB 0E 66 8B 44 24 12 66 F7 6C 24 ...s ..f.D$.f.l$
00419DD0 10 66 89 43 0E 66 C7 43 0C 01 00 8B 43 20 3B 43 .f.C.f.C....C ;C
00419DE0 24 73 03 89 43 24 83 7B 14 00 75 21 0F B7 53 0E $s..C$.{..u!..S.
00419DF0 8B 43 04 B9 20 00 00 00 E8 CF F8 FF FF 8B C8 8B .C.. ...........
00419E00 43 08 99 33 C2 2B C2 0F AF C8 89 4B 14 83 C4 54 C..3.+.....K...T
00419E10 5F 5E 5B C3 55 8B EC 83 C4 D8 53 56 8B F1 8B DA _^[.U.....SV....
00419E20 8D 55 D8 8B 4D 08 E8 05 FF FF FF 66 8B 45 E6 66 .U..M......f.E.f
00419E30 83 F8 08 76 11 C7 03 28 00 00 00 F6 45 E8 03 74 ...v...(....E..t
00419E40 29 83 03 0C EB 24 8B 55 F8 85 D2 75 13 8B C8 B8 )....$.U...u....
00419E50 01 00 00 00 D3 E0 C1 E0 02 83 C0 28 89 03 EB 0A ...........(....
00419E60 8B C2 C1 E0 02 83 C0 28 89 03 8B 45 EC 89 06 5E .......(...E...^
00419E70 5B 8B E5 5D C2 04 00 90                         [..]....       

;; fn00419E78: 00419E78
;;   Called from:
;;     0041B033 (in fn0041B01C)
fn00419E78 proc
	push	ebx
	push	esi
	test	dl,dl
	jz	00419E86

l00419E7E:
	add	esp,F0
	call	00403990

l00419E86:
	mov	ebx,edx
	mov	esi,eax
	xor	edx,edx
	mov	eax,esi
	call	004036F0
	mov	eax,esi
	test	bl,bl
	jz	00419EA8

l00419E99:
	call	004039E8
	pop	dword ptr fs:[00000000]
	add	esp,0C

l00419EA8:
	mov	eax,esi
	pop	esi
	pop	ebx
	ret
00419EAD                                        8D 40 00              .@.
00419EB0 53 C6 40 20 01 66 83 78 12 00 74 0A 8B D8 8B D0 S.@ .f.x..t.....
00419EC0 8B 43 14 FF 53 10 5B C3 55 8B EC 53 8B 45 08 8B .C..S.[.U..S.E..
00419ED0 40 FC 83 78 20 00 74 37 8B 45 08 8B 40 FC 8B 58 @..x .t7.E..@..X
00419EE0 20 8B C3 8B 15 78 78 41 00 E8 CA 99 FE FF 84 C0  ....xxA........
00419EF0 74 18 8B 45 08 8B D3 8B 45 08 8B 40 F8 8B 08 FF t..E....E..@....
00419F00 51 18 84 C0 74 04 33 C0 EB 12 B0 01 5B 5D C3 8B Q...t.3.....[]..
00419F10 45 08 8B 40 F8 8B 10 FF 52 1C 34 01 5B 5D C3 90 E..@....R.4.[]..
00419F20 55 8B EC 83 C4 F8 53 89 55 FC 89 45 F8 8B 45 F8 U.....S.U..E..E.
00419F30 50 8B 00 8B 40 30 50 8B 45 F8 50 8B 00 8B 40 44 P...@0P.E.P...@D
00419F40 50 55 E8 81 FF FF FF 59 8B C8 BA 64 9F 41 00 8B PU.....Y...d.A..
00419F50 45 FC 8B 18 FF 53 08 5B 59 59 5D C3 FF FF FF FF E....S.[YY].....
00419F60 04 00 00 00 44 61 74 61 00 00 00 00 55 8B EC 83 ....Data....U...
00419F70 C4 F4 53 56 57 8B F2 8B D8 85 F6 74 14 8B C3 E8 ..SVW......t....
00419F80 08 97 FE FF 8B F8 8B C6 E8 FF 96 FE FF 3B F8 74 .............;.t
00419F90 04 33 C0 EB 02 B0 01 88 45 FF 8B C3 8B 10 FF 52 .3......E......R
00419FA0 1C 84 C0 75 0B 8B C6 8B 10 FF 52 1C 84 C0 74 24 ...u......R...t$
00419FB0 8B C3 8B 10 FF 52 1C 84 C0 74 0B 8B C6 8B 10 FF .....R...t......
00419FC0 52 1C 84 C0 75 04 33 C0 EB 02 B0 01 88 45 FF E9 R...u.3......E..
00419FD0 D6 00 00 00 80 7D FF 00 0F 84 CC 00 00 00 B2 01 .....}..........
00419FE0 A1 30 3C 41 00 E8 06 97 FE FF 89 45 F8 33 C0 55 .0<A.......E.3.U
00419FF0 68 A3 A0 41 00 64 FF 30 64 89 20 8B 55 F8 8B C3 h..A.d.0d. .U...
0041A000 8B 08 FF 51 44 B2 01 A1 30 3C 41 00 E8 DF 96 FE ...QD...0<A.....
0041A010 FF 89 45 F4 33 C0 55 68 86 A0 41 00 64 FF 30 64 ..E.3.Uh..A.d.0d
0041A020 89 20 8B 55 F4 8B C6 8B 08 FF 51 44 8B 45 F8 8B . .U......QD.E..
0041A030 10 FF 12 52 50 8B 45 F4 8B 10 FF 12 3B 54 24 04 ...RP.E.....;T$.
0041A040 75 03 3B 04 24 5A 58 75 1E 8B 45 F8 8B 10 FF 12 u.;.$ZXu..E.....
0041A050 8B C8 8B 45 F4 8B 50 04 8B 45 F8 8B 40 04 E8 AD ...E..P..E..@...
0041A060 D7 FE FF 84 C0 75 04 33 C0 EB 02 B0 01 88 45 FF .....u.3......E.
0041A070 33 C0 5A 59 59 64 89 10 68 8D A0 41 00 8B 45 F4 3.ZYYd..h..A..E.
0041A080 E8 9B 96 FE FF C3 E9 99 9B FE FF EB F0 33 C0 5A .............3.Z
0041A090 59 59 64 89 10 68 AA A0 41 00 8B 45 F8 E8 7E 96 YYd..h..A..E..~.
0041A0A0 FE FF C3 E9 7C 9B FE FF EB F0 8A 45 FF 5F 5E 5B ....|......E._^[
0041A0B0 8B E5 5D C3 33 C0 C3 90 8A 40 21 C3 55 8B EC 51 ..].3....@!.U..Q
0041A0C0 56 8B F0 6A 20 8B CA A1 40 3B 41 00 B2 01 E8 E9 V..j ...@;A.....
0041A0D0 BF FF FF 89 45 FC 33 C0 55 68 04 A1 41 00 64 FF ....E.3.Uh..A.d.
0041A0E0 30 64 89 20 8B 55 FC 8B C6 8B 08 FF 51 54 33 C0 0d. .U......QT3.
0041A0F0 5A 59 59 64 89 10 68 0B A1 41 00 8B 45 FC E8 1D ZYYd..h..A..E...
0041A100 96 FE FF C3 E9 1B 9B FE FF EB F0 5E 59 5D C3 90 ...........^Y]..
0041A110 55 8B EC 53 66 83 78 1A 00 74 18 8A 5D 14 53 8A U..Sf.x..t..].S.
0041A120 5D 10 53 8B 5D 0C 53 8B 5D 08 53 8B D8 8B 43 1C ].S.].S.].S...C.
0041A130 FF 53 18 5B 5D C2 10 00 56 8B F0 8B C6 8B 08 FF .S.[]...V.......
0041A140 51 54 5E C3 55 8B EC 51 56 8B F0 68 FF FF 00 00 QT^.U..QV..h....
0041A150 8B CA A1 40 3B 41 00 B2 01 E8 5E BF FF FF 89 45 ...@;A....^....E
0041A160 FC 33 C0 55 68 8F A1 41 00 64 FF 30 64 89 20 8B .3.Uh..A.d.0d. .
0041A170 55 FC 8B C6 8B 08 FF 51 58 33 C0 5A 59 59 64 89 U......QX3.ZYYd.
0041A180 10 68 96 A1 41 00 8B 45 FC E8 92 95 FE FF C3 E9 .h..A..E........
0041A190 90 9A FE FF EB F0 5E 59 5D C3 8B C0 C3 8D 40 00 ......^Y].....@.
0041A1A0 3A 50 21 74 0A 88 50 21 8B D0 8B 08 FF 51 10 C3 :P!t..P!.....Q..
0041A1B0 56 8B F0 8B C6 8B 08 FF 51 58 5E C3 08 A2 41 00 V.......QX^...A.
0041A1C0 00 00 00 00 00 00 00 00 00 00 00 00 34 A2 41 00 ............4.A.
0041A1D0 00 00 00 00 00 00 00 00 00 00 00 00 20 A2 41 00 ............ .A.
0041A1E0 64 00 00 00 F4 76 41 00 54 39 40 00 60 39 40 00 d....vA.T9@.`9@.
0041A1F0 64 39 40 00 68 39 40 00 5C 39 40 00 B8 36 40 00 d9@.h9@.\9@..6@.
0041A200 D4 36 40 00 BC A3 41 00 6C 47 41 00 74 47 41 00 .6@...A.lGA.tGA.
0041A210 88 46 41 00 18 94 41 00 04 94 41 00 88 A4 41 00 .FA...A...A...A.
0041A220 0D 54 42 69 74 6D 61 70 43 61 6E 76 61 73 8B C0 .TBitmapCanvas..
0041A230 34 A2 41 00 07 0D 54 42 69 74 6D 61 70 43 61 6E 4.A...TBitmapCan
0041A240 76 61 73 08 A2 41 00 60 77 41 00 04 00 08 47 72 vas..A.`wA....Gr
0041A250 61 70 68 69 63 73 00 00 55 8B EC 83 C4 F4 A1 64 aphics..U......d
0041A260 86 42 00 E8 84 A3 FF FF 89 45 F8 33 C0 55 68 F6 .B.......E.3.Uh.
0041A270 A2 41 00 64 FF 30 64 89 20 8B 45 F8 8B 40 08 48 .A.d.0d. .E..@.H
0041A280 83 F8 00 7C 59 89 45 FC 8B 55 FC 8B 45 F8 E8 B5 ...|Y.E..U..E...
0041A290 A0 FF FF 89 45 F4 8B 45 F4 E8 02 EF FF FF 84 C0 ....E..E........
0041A2A0 74 33 33 C0 55 68 CE A2 41 00 64 FF 30 64 89 20 t33.Uh..A.d.0d. 
0041A2B0 8B 45 F4 E8 30 01 00 00 33 C0 5A 59 59 64 89 10 .E..0...3.ZYYd..
0041A2C0 68 D5 A2 41 00 8B 45 F4 E8 2F EF FF FF C3 E9 51 h..A..E../.....Q
0041A2D0 99 FE FF EB F0 FF 4D FC 83 7D FC FF 75 AA 33 C0 ......M..}..u.3.
0041A2E0 5A 59 59 64 89 10 68 FD A2 41 00 A1 64 86 42 00 ZYYd..h..A..d.B.
0041A2F0 E8 5B A3 FF FF C3 E9 29 99 FE FF EB EE 8B E5 5D .[.....).......]
0041A300 C3 8D 40 00                                     ..@.           

;; fn0041A304: 0041A304
;;   Called from:
;;     0041A7AB (in fn0041A748)
;;     0041B953 (in fn0041B924)
fn0041A304 proc
	push	ebp
	mov	ebp,esp
	push	ecx
	push	ebx
	push	esi
	mov	[ebp-04],eax
	cmp	dword ptr [ebp-04],00
	jz	0041A37B

l0041A313:
	mov	eax,[00428664]
	call	004145EC
	mov	esi,eax
	xor	ecx,ecx
	push	ebp
	push	0041A374
	push	dword ptr fs:[ecx]
	mov	fs:[ecx],esp
	mov	ebx,[esi+08]
	dec	ebx
	cmp	ebx,00
	jl	0041A35C

l0041A336:
	mov	edx,ebx
	mov	eax,esi
	call	00414348
	mov	edx,[eax+58]
	test	edx,edx
	jz	0041A356

l0041A346:
	mov	edx,[edx+28]
	mov	edx,[edx+08]
	cmp	edx,[ebp-04]
	jnz	0041A356

l0041A351:
	call	0041A3E8

l0041A356:
	dec	ebx
	cmp	ebx,FF
	jnz	0041A336

l0041A35C:
	xor	eax,eax
	pop	edx
	pop	ecx
	pop	ecx
	mov	fs:[eax],edx
	push	0041A37B
	mov	eax,[00428664]
	call	00414650
	ret
0041A374             E9 AB 98 FE FF EB EE                    .......    

l0041A37B:
	pop	esi
	pop	ebx
	pop	ecx
	pop	ebp
	ret

;; fn0041A380: 0041A380
;;   Called from:
;;     0041B598 (in fn0041B578)
fn0041A380 proc
	push	ebx
	push	esi
	push	edi
	test	dl,dl
	jz	0041A38F

l0041A387:
	add	esp,F0
	call	00403990

l0041A38F:
	mov	esi,ecx
	mov	ebx,edx
	mov	edi,eax
	xor	edx,edx
	mov	eax,edi
	call	00418FB4
	mov	[edi+58],esi
	mov	eax,edi
	test	bl,bl
	jz	0041A3B6

l0041A3A7:
	call	004039E8
	pop	dword ptr fs:[00000000]
	add	esp,0C

l0041A3B6:
	mov	eax,edi
	pop	edi
	pop	esi
	pop	ebx
	ret
0041A3BC                                     53 56 E8 35             SV.5
0041A3C0 96 FE FF 8B DA 8B F0 8B C6 E8 1A 00 00 00 8B D3 ................
0041A3D0 80 E2 FC 8B C6 E8 9E EC FF FF 84 DB 7E 07 8B C6 ............~...
0041A3E0 E8 FB 95 FE FF 5E 5B C3                         .....^[.       

;; fn0041A3E8: 0041A3E8
;;   Called from:
;;     0041A351 (in fn0041A304)
;;     0041B81D (in fn0041B814)
fn0041A3E8 proc
	push	ebp
	mov	ebp,esp
	push	ecx
	push	ebx
	mov	[ebp-04],eax
	mov	eax,[ebp-04]
	cmp	dword ptr [eax+04],00
	jz	0041A483

l0041A3FD:
	mov	eax,[ebp-04]
	call	00419110
	xor	edx,edx
	push	ebp
	push	0041A47C
	push	dword ptr fs:[edx]
	mov	fs:[edx],esp
	mov	eax,[ebp-04]
	mov	eax,[eax+5C]
	test	eax,eax
	jz	0041A42A

l0041A41D:
	push	eax
	mov	eax,[ebp-04]
	mov	eax,[eax+04]
	push	eax
	call	004066B8

l0041A42A:
	mov	eax,[ebp-04]
	mov	eax,[eax+60]
	test	eax,eax
	jz	0041A443

l0041A434:
	push	FF
	push	eax
	mov	eax,[ebp-04]
	mov	eax,[eax+04]
	push	eax
	call	004066C0

l0041A443:
	mov	eax,[ebp-04]
	mov	ebx,[eax+04]
	xor	edx,edx
	mov	eax,[ebp-04]
	call	0041933C
	push	ebx
	call	00406628
	mov	edx,[ebp-04]
	mov	eax,[00428664]
	call	00414600
	xor	eax,eax
	pop	edx
	pop	ecx
	pop	ecx
	mov	fs:[eax],edx
	push	0041A483
	mov	eax,[ebp-04]
	call	004191FC
	ret
0041A47C                                     E9 A3 97 FE             ....
0041A480 FF EB F0                                        ...            

l0041A483:
	pop	ebx
	pop	ecx
	pop	ebp
	ret
0041A487                      90 55 8B EC 51 53 56 89 45        .U..QSV.E
0041A490 FC 8B 45 FC 83 78 58 00 0F 84 D0 00 00 00 8B 45 ..E..xX........E
0041A4A0 FC E8 6A EC FF FF 33 C0 55 68 67 A5 41 00 64 FF ..j...3.Uhg.A.d.
0041A4B0 30 64 89 20 8B 45 FC 8B 40 58 E8 65 13 00 00 8B 0d. .E..@X.e....
0041A4C0 45 FC 8B 40 58 8B 40 28 8B 40 08 E8 34 FE FF FF E..@X.@(.@..4...
0041A4D0 8B 45 FC 8B 40 58 E8 49 14 00 00 6A 00 E8 0E C1 .E..@X.I...j....
0041A4E0 FE FF 8B D8 8B 45 FC 8B 40 58 8B 40 28 8B 70 08 .....E..@X.@(.p.
0041A4F0 85 F6 74 0F 56 53 E8 BD C1 FE FF 8B 55 FC 89 42 ..t.VS......U..B
0041A500 5C EB 08 8B 45 FC 33 D2 89 50 5C 8B 45 FC 8B 40 \...E.3..P\.E..@
0041A510 58 8B 40 28 8B 70 10 85 F6 74 17 6A FF 56 53 E8 X.@(.p...t.j.VS.
0041A520 9C C1 FE FF 8B 55 FC 89 42 60 53 E8 80 C1 FE FF .....U..B`S.....
0041A530 EB 08 8B 45 FC 33 D2 89 50 60 8B D3 8B 45 FC E8 ...E.3..P`...E..
0041A540 F8 ED FF FF 8B 55 FC A1 64 86 42 00 E8 13 A0 FF .....U..d.B.....
0041A550 FF 33 C0 5A 59 59 64 89 10 68 6E A5 41 00 8B 45 .3.ZYYd..hn.A..E
0041A560 FC E8 96 EC FF FF C3 E9 B8 96 FE FF EB F0 5E 5B ..............^[
0041A570 59 5D C3 90                                     Y]..           

;; fn0041A574: 0041A574
;;   Called from:
;;     0041B052 (in fn0041B01C)
;;     0041BB4E (in fn0041BA84)
fn0041A574 proc
	inc	dword ptr [eax+04]
	ret

;; fn0041A578: 0041A578
;;   Called from:
;;     0041BB40 (in fn0041BA84)
fn0041A578 proc
	push	ebx
	mov	ebx,eax
	test	ebx,ebx
	jz	0041A595

l0041A57F:
	dec	dword ptr [ebx+04]
	cmp	dword ptr [ebx+04],00
	jnz	0041A595

l0041A588:
	mov	eax,ebx
	mov	edx,[eax]
	call	dword ptr [edx]
	mov	eax,ebx
	call	00403720

l0041A595:
	pop	ebx
	ret
0041A597                      90 53 56 E8 59 94 FE FF 8B        .SV.Y....
0041A5A0 DA 8B F0 8B 46 14 85 C0 74 13 E8 55 FD FF FF 8B ....F...t..U....
0041A5B0 46 14 50 E8 78 C0 FE FF 33 C0 89 46 14 8B C6 8B F.P.x...3..F....
0041A5C0 10 FF 12 8B 46 64 85 C0 74 06 50 E8 08 BE FE FF ....Fd..t.P.....
0041A5D0 8D 46 6C E8 68 23 FF FF 8B D3 80 E2 FC 8B C6 E8 .Fl.h#..........
0041A5E0 2C 91 FE FF 84 DB 7E 07 8B C6 E8 F1 93 FE FF 5E ,.....~........^
0041A5F0 5B C3 8B C0 53 8B D8 8B 43 08 85 C0 74 13 3B 43 [...S...C...t.;C
0041A600 14 74 0E E8 FC FC FF FF 8B 43 08 50 E8 1F C0 FE .t.......C.P....
0041A610 FF 8B 43 0C 85 C0 74 13 E8 E7 FC FF FF 8B 43 0C ..C...t.......C.
0041A620 50 E8 0A C0 FE FF 33 C0 89 43 0C 8B 43 10 E8 D5 P.....3..C..C...
0041A630 D4 FF FF 33 C0 89 43 08 33 C0 89 43 10 5B C3 90 ...3..C.3..C.[..
0041A640 55 8B EC 81 C4 F0 FB FF FF 53 56 89 55 FC 8B F0 U........SV.U...
0041A650 85 F6 0F 84 9E 00 00 00 66 83 79 26 08 0F 87 93 ........f.y&....
0041A660 00 00 00 8D 95 F0 FB FF FF B9 FF 00 00 00 8B 45 ...............E
0041A670 FC E8 66 F6 FF FF 8B D8 85 DB 74 7A 6A 00 E8 C5 ..f.......tzj...
0041A680 C0 FE FF 89 45 F8 8B 45 F8 50 E8 61 BF FE FF 89 ....E..E.P.a....
0041A690 45 F4 56 8B 45 F4 50 E8 1C C0 FE FF 89 45 F0 33 E.V.E.P......E.3
0041A6A0 C0 55 68 EF A6 41 00 64 FF 30 64 89 20 8D 85 F0 .Uh..A.d.0d. ...
0041A6B0 FB FF FF 50 53 6A 00 8B 45 F4 50 E8 20 C0 FE FF ...PSj..E.P. ...
0041A6C0 33 C0 5A 59 59 64 89 10 68 F6 A6 41 00 8B 45 F0 3.ZYYd..h..A..E.
0041A6D0 50 8B 45 F4 50 E8 DE BF FE FF 8B 45 F4 50 E8 45 P.E.P......E.P.E
0041A6E0 BF FE FF 8B 45 F8 50 6A 00 E8 8A C0 FE FF C3 E9 ....E.Pj........
0041A6F0 30 95 FE FF EB D7 5E 5B 8B E5 5D C3             0.....^[..].   

;; fn0041A6FC: 0041A6FC
;;   Called from:
;;     0041A9E8 (in fn0041A748)
fn0041A6FC proc
	test	byte ptr [eax+28],03
	jz	0041A744

l0041A702:
	cmp	dword ptr [eax+40],00
	jnz	0041A744

l0041A708:
	mov	dx,[eax+26]
	cmp	dx,10
	jnz	0041A729

l0041A712:
	mov	dword ptr [eax+40],0000F800
	mov	dword ptr [eax+44],000007E0
	mov	dword ptr [eax+48],0000001F
	jmp	0041A744

l0041A729:
	cmp	dx,20
	jnz	0041A744

l0041A72F:
	mov	dword ptr [eax+40],00FF0000
	mov	dword ptr [eax+44],0000FF00
	mov	dword ptr [eax+48],000000FF

l0041A744:
	ret
0041A745                8D 40 00                              .@.       

;; fn0041A748: 0041A748
;;   Called from:
;;     0041B21B (in fn0041B1B8)
;;     0041B808 (in fn0041B7A0)
fn0041A748 proc
	push	ebp
	mov	ebp,esp
	add	esp,FFFFFF68
	push	ebx
	push	esi
	push	edi
	mov	[ebp-0C],ecx
	mov	[ebp-08],edx
	mov	[ebp-04],eax
	xor	eax,eax
	mov	[ebp-10],eax
	mov	eax,[ebp+0C]
	cmp	dword ptr [eax+18],00
	jz	0041A785

l0041A76B:
	mov	eax,[ebp+0C]
	cmp	dword ptr [eax+1C],00
	jz	0041AD9D

l0041A778:
	mov	eax,[ebp+0C]
	cmp	dword ptr [eax+20],00
	jz	0041AD9D

l0041A785:
	mov	eax,[ebp+0C]
	cmp	dword ptr [eax+18],00
	jnz	0041A7A8

l0041A78E:
	mov	eax,[ebp+0C]
	cmp	dword ptr [eax+04],00
	jz	0041AD9D

l0041A79B:
	mov	eax,[ebp+0C]
	cmp	dword ptr [eax+08],00
	jz	0041AD9D

l0041A7A8:
	mov	eax,[ebp-04]
	call	0041A304
	xor	eax,eax
	mov	[ebp-70],eax
	cmp	dword ptr [ebp-04],00
	jz	0041A7D7

l0041A7BB:
	lea	eax,[ebp-00000088]
	push	eax
	push	54
	mov	eax,[ebp-04]
	push	eax
	call	00406668
	cmp	eax,18
	jge	0041A7D7

l0041A7D2:
	call	00419594

l0041A7D7:
	push	00
	call	00406748
	call	0041969C
	mov	[ebp-18],eax
	mov	eax,[ebp-18]
	push	eax
	call	004065F0
	call	0041969C
	mov	[ebp-1C],eax
	xor	edx,edx
	push	ebp
	push	0041AD96
	push	dword ptr fs:[edx]
	mov	fs:[edx],esp
	mov	eax,[ebp+0C]
	cmp	dword ptr [eax+18],28
	jnc	0041A86C

l0041A80E:
	mov	eax,[ebp+0C]
	mov	ax,[eax+10]
	mov	edx,[ebp+0C]
	or	ax,[edx+12]
	cmp	ax,01
	jnz	0041A848

l0041A822:
	push	00
	push	01
	push	01
	mov	eax,[ebp+0C]
	mov	eax,[eax+08]
	push	eax
	mov	eax,[ebp+0C]
	mov	eax,[eax+04]
	push	eax
	call	004065D8
	call	0041969C
	mov	[ebp-10],eax
	jmp	0041AAA7

l0041A848:
	mov	eax,[ebp+0C]
	mov	eax,[eax+08]
	push	eax
	mov	eax,[ebp+0C]
	mov	eax,[eax+04]
	push	eax
	mov	eax,[ebp-18]
	push	eax
	call	004065E8
	call	0041969C
	mov	[ebp-10],eax
	jmp	0041AAA7

l0041A86C:
	mov	eax,0000042C
	call	00402A28
	mov	[ebp-24],eax
	xor	edx,edx
	push	ebp
	push	0041AAA0
	push	dword ptr fs:[edx]
	mov	fs:[edx],esp
	mov	eax,[ebp+0C]
	mov	dword ptr [eax+18],00000028
	mov	eax,[ebp+0C]
	mov	word ptr [eax+24],0001
	mov	eax,[ebp+0C]
	cmp	word ptr [eax+26],00
	jnz	0041A8C7

l0041A8A4:
	push	0C
	mov	eax,[ebp-18]
	push	eax
	call	00406660
	mov	ebx,eax
	push	0E
	mov	eax,[ebp-18]
	push	eax
	call	00406660
	imul	bx,ax
	mov	eax,[ebp+0C]
	mov	[eax+26],bx

l0041A8C7:
	mov	eax,[ebp+0C]
	mov	edx,[ebp-24]
	lea	esi,[eax+18]
	mov	edi,edx
	mov	ecx,0000000A

l0041A8D7:
	rep movsd

l0041A8D9:
	mov	eax,[ebp+0C]
	mov	eax,[eax+1C]
	mov	edx,[ebp+0C]
	mov	[edx+04],eax
	mov	eax,[ebp+0C]
	mov	eax,[eax+20]
	mov	edx,[ebp+0C]
	mov	[edx+08],eax
	mov	eax,[ebp+0C]
	cmp	word ptr [eax+26],08
	ja	0041A9C6

l0041A8FF:
	mov	eax,[ebp+0C]
	cmp	word ptr [eax+26],01
	jnz	0041A931

l0041A909:
	cmp	dword ptr [ebp-04],00
	jz	0041A915

l0041A90F:
	cmp	dword ptr [ebp-74],00
	jnz	0041A931

l0041A915:
	mov	eax,[ebp-24]
	xor	edx,edx
	mov	[eax+28],edx
	mov	eax,[ebp-24]
	add	eax,28
	add	eax,04
	mov	dword ptr [eax],00FFFFFF
	jmp	0041AA03

l0041A931:
	cmp	dword ptr [ebp-0C],00
	jz	0041A94F

l0041A937:
	mov	eax,[ebp-24]
	lea	edx,[eax+28]
	mov	ecx,000000FF
	mov	eax,[ebp-0C]
	call	00419CDC
	jmp	0041AA03

l0041A94F:
	cmp	dword ptr [ebp-04],00
	jz	0041AA03

l0041A959:
	mov	eax,[ebp-04]
	push	eax
	mov	eax,[ebp-1C]
	push	eax
	call	004066B8
	mov	[ebp-14],eax
	cmp	dword ptr [ebp-70],00
	jbe	0041A994

l0041A96F:
	cmp	dword ptr [ebp-74],00
	jz	0041A994

l0041A975:
	mov	eax,[ebp-24]
	add	eax,28
	push	eax
	push	00000100
	push	00
	mov	eax,[ebp-1C]
	push	eax
	call	00406650
	mov	edx,[ebp+0C]
	mov	[edx+38],eax
	jmp	0041A9B7

l0041A994:
	push	00
	mov	eax,[ebp-24]
	push	eax
	push	00
	mov	eax,[ebp+0C]
	mov	eax,[eax+20]
	cdq
	xor	eax,edx
	sub	eax,edx
	push	eax
	push	00
	mov	eax,[ebp-04]
	push	eax
	mov	eax,[ebp-1C]
	push	eax
	call	00406658

l0041A9B7:
	mov	eax,[ebp-14]
	push	eax
	mov	eax,[ebp-1C]
	push	eax
	call	004066B8
	jmp	0041AA03

l0041A9C6:
	mov	eax,[ebp+0C]
	mov	ax,[eax+26]
	cmp	ax,10
	jz	0041A9DC

l0041A9D3:
	mov	edx,[ebp+0C]
	cmp	ax,20
	jnz	0041AA03

l0041A9DC:
	mov	eax,[ebp+0C]
	test	byte ptr [eax+28],03
	jz	0041AA03

l0041A9E5:
	mov	eax,[ebp+0C]
	call	0041A6FC
	mov	eax,[ebp-24]
	lea	edx,[eax+28]
	mov	eax,[ebp+0C]
	add	eax,40
	mov	ecx,0000000C
	call	00402C1C

l0041AA03:
	push	00
	push	00
	lea	eax,[ebp-28]
	push	eax
	push	00
	mov	eax,[ebp-24]
	push	eax
	mov	eax,[ebp-18]
	push	eax
	call	004065F8
	call	0041969C
	mov	[ebp-10],eax
	cmp	dword ptr [ebp-28],00
	jnz	0041AA2D

l0041AA28:
	call	004195F4

l0041AA2D:
	cmp	dword ptr [ebp-04],00
	jz	0041AA8A

l0041AA33:
	mov	eax,[ebp+0C]
	mov	eax,[eax+1C]
	cmp	eax,[ebp-00000084]
	jnz	0041AA8A

l0041AA41:
	mov	eax,[ebp+0C]
	mov	eax,[eax+20]
	cmp	eax,[ebp-80]
	jnz	0041AA8A

l0041AA4C:
	mov	eax,[ebp+0C]
	cmp	word ptr [eax+26],08
	jbe	0041AA8A

l0041AA56:
	push	00
	mov	eax,[ebp-24]
	push	eax
	mov	eax,[ebp-28]
	push	eax
	mov	eax,[ebp+0C]
	mov	eax,[eax+20]
	cdq
	xor	eax,edx
	sub	eax,edx
	push	eax
	push	00
	mov	eax,[ebp-04]
	push	eax
	mov	eax,[ebp-1C]
	push	eax
	call	00406658
	call	00403D08
	call	00403D08
	jmp	0041AD9D

l0041AA8A:
	xor	eax,eax
	pop	edx
	pop	ecx
	pop	ecx
	mov	fs:[eax],edx
	push	0041AAA7
	mov	eax,[ebp-24]
	call	00402A58
	ret
0041AAA0 E9 7F 91 FE FF EB F0                            .......        

l0041AAA7:
	mov	eax,[ebp-10]
	call	0041969C
	mov	eax,[ebp-10]
	push	eax
	mov	eax,[ebp-1C]
	push	eax
	call	004066B8
	call	0041969C
	mov	[ebp-14],eax
	xor	eax,eax
	push	ebp
	push	0041AD47
	push	dword ptr fs:[eax]
	mov	fs:[eax],esp
	xor	eax,eax
	push	ebp
	push	0041AD36
	push	dword ptr fs:[eax]
	mov	fs:[eax],esp
	xor	eax,eax
	mov	[ebp-34],eax
	xor	ebx,ebx
	cmp	dword ptr [ebp-0C],00
	jz	0041AB08

l0041AAED:
	push	00
	mov	eax,[ebp-0C]
	push	eax
	mov	eax,[ebp-1C]
	push	eax
	call	004066C0
	mov	[ebp-34],eax
	mov	eax,[ebp-1C]
	push	eax
	call	004066B0

l0041AB08:
	xor	eax,eax
	push	ebp
	push	0041AD14
	push	dword ptr fs:[eax]
	mov	fs:[eax],esp
	cmp	dword ptr [ebp+08],00
	jz	0041ABD5

l0041AB20:
	mov	eax,[ebp+08]
	mov	eax,[eax+14]
	call	00418E98
	push	eax
	mov	eax,[ebp+0C]
	mov	eax,[eax+08]
	push	eax
	lea	eax,[ebp-00000098]
	push	eax
	mov	ecx,[ebp+0C]
	mov	ecx,[ecx+04]
	xor	edx,edx
	xor	eax,eax
	call	00413CD0
	lea	eax,[ebp-00000098]
	push	eax
	mov	eax,[ebp-1C]
	push	eax
	call	00406740
	mov	eax,[ebp+08]
	mov	eax,[eax+0C]
	mov	eax,[eax+18]
	call	004182D4
	push	eax
	mov	eax,[ebp-1C]
	push	eax
	call	004066F8
	mov	eax,[ebp+08]
	mov	eax,[eax+14]
	call	00418E5C
	call	004182D4
	push	eax
	mov	eax,[ebp-1C]
	push	eax
	call	004066C8
	mov	eax,[ebp+0C]
	cmp	word ptr [eax+26],01
	jnz	0041ABF5

l0041AB95:
	mov	eax,[ebp+0C]
	cmp	dword ptr [eax+14],00
	jz	0041ABF5

l0041AB9E:
	mov	eax,[ebp+08]
	mov	eax,[eax+0C]
	mov	eax,[eax+18]
	call	004182D4
	mov	[ebp-30],eax
	mov	eax,[ebp+08]
	mov	eax,[eax+14]
	call	00418E5C
	call	004182D4
	mov	[ebp-2C],eax
	lea	eax,[ebp-30]
	push	eax
	push	02
	push	00
	mov	eax,[ebp-1C]
	push	eax
	call	004066E0
	jmp	0041ABF5

l0041ABD5:
	push	00FF0062
	mov	eax,[ebp+0C]
	mov	eax,[eax+08]
	push	eax
	mov	eax,[ebp+0C]
	mov	eax,[eax+04]
	push	eax
	push	00
	push	00
	mov	eax,[ebp-1C]
	push	eax
	call	004066A8

l0041ABF5:
	cmp	dword ptr [ebp-04],00
	jz	0041ACF1

l0041ABFF:
	mov	eax,[ebp-18]
	push	eax
	call	004065F0
	call	0041969C
	mov	[ebp-20],eax
	xor	eax,eax
	push	ebp
	push	0041ACEA
	push	dword ptr fs:[eax]
	mov	fs:[eax],esp
	mov	eax,[ebp-04]
	push	eax
	mov	eax,[ebp-20]
	push	eax
	call	004066B8
	call	0041969C
	mov	esi,eax
	cmp	dword ptr [ebp-08],00
	jz	0041AC52

l0041AC38:
	push	00
	mov	eax,[ebp-08]
	push	eax
	mov	eax,[ebp-20]
	push	eax
	call	004066C0
	mov	ebx,eax
	mov	eax,[ebp-20]
	push	eax
	call	004066B0

l0041AC52:
	cmp	dword ptr [ebp+08],00
	jz	0041AC8A

l0041AC58:
	mov	eax,[ebp+08]
	mov	eax,[eax+0C]
	mov	eax,[eax+18]
	call	004182D4
	push	eax
	mov	eax,[ebp-20]
	push	eax
	call	004066F8
	mov	eax,[ebp+08]
	mov	eax,[eax+14]
	call	00418E5C
	call	004182D4
	push	eax
	mov	eax,[ebp-20]
	push	eax
	call	004066C8

l0041AC8A:
	push	00CC0020
	push	00
	push	00
	mov	eax,[ebp-20]
	push	eax
	mov	eax,[ebp+0C]
	mov	eax,[eax+08]
	push	eax
	mov	eax,[ebp+0C]
	mov	eax,[eax+04]
	push	eax
	push	00
	push	00
	mov	eax,[ebp-1C]
	push	eax
	call	004065D0
	cmp	dword ptr [ebp-08],00
	jz	0041ACC4

l0041ACB8:
	push	FF
	push	ebx
	mov	eax,[ebp-20]
	push	eax
	call	004066C0

l0041ACC4:
	push	esi
	mov	eax,[ebp-20]
	push	eax
	call	004066B8
	call	0041969C
	xor	eax,eax
	pop	edx
	pop	ecx
	pop	ecx
	mov	fs:[eax],edx
	push	0041ACF1
	mov	eax,[ebp-20]
	push	eax
	call	00406628
	ret
0041ACEA                               E9 35 8F FE FF EB           .5....
0041ACF0 EF                                              .              

l0041ACF1:
	xor	eax,eax
	pop	edx
	pop	ecx
	pop	ecx
	mov	fs:[eax],edx
	push	0041AD1B
	cmp	dword ptr [ebp-0C],00
	jz	0041AD13

l0041AD04:
	push	FF
	mov	eax,[ebp-34]
	push	eax
	mov	eax,[ebp-1C]
	push	eax
	call	004066C0

l0041AD13:
	ret
0041AD14             E9 0B 8F FE FF EB E3 33 C0 5A 59 59     .......3.ZYY
0041AD20 64 89 10 68 3D AD 41 00 8B 45 EC 50 8B 45 E4 50 d..h=.A..E.P.E.P
0041AD30 E8 83 B9 FE FF C3 E9 E9 8E FE FF EB EB 33 C0 5A .............3.Z
0041AD40 59 59 64 89 10 EB 18 E9 AC 8D FE FF 8B 45 F0 50 YYd..........E.P
0041AD50 E8 DB B8 FE FF E8 2A 8F FE FF E8 79 8F FE FF 33 ......*....y...3
0041AD60 C0 5A 59 59 64 89 10 68 9D AD 41 00 8B 45 E4 50 .ZYYd..h..A..E.P
0041AD70 E8 B3 B8 FE FF 8B 45 E8 50 6A 00 E8 F8 B9 FE FF ......E.Pj......
0041AD80 83 7D F0 00 74 0F 8B 45 0C 50 6A 54 8B 45 F0 50 .}..t..E.PjT.E.P
0041AD90 E8 D3 B8 FE FF C3 E9 89 8E FE FF EB CF          .............  

l0041AD9D:
	mov	eax,[ebp-10]
	pop	edi
	pop	esi
	pop	ebx
	mov	esp,ebp
	pop	ebp
	ret	0008
0041ADA9                            8D 40 00                      .@.   

;; fn0041ADAC: 0041ADAC
;;   Called from:
;;     0041B204 (in fn0041B1B8)
fn0041ADAC proc
	push	ebx
	push	esi
	add	esp,FFFFFBF8
	mov	ebx,eax
	xor	esi,esi
	test	ebx,ebx
	jz	0041AE02

l0041ADBC:
	xor	eax,eax
	mov	[esp],eax
	push	esp
	push	04
	push	ebx
	call	00406668
	test	eax,eax
	jz	0041AE02

l0041ADCE:
	cmp	dword ptr [esp],00
	jz	0041AE02

l0041ADD4:
	mov	word ptr [esp+04],0300
	mov	ax,[esp]
	mov	[esp+06],ax
	lea	eax,[esp+08]
	push	eax
	mov	eax,[esp+04]
	push	eax
	push	00
	push	ebx
	call	00406670
	lea	eax,[esp+04]
	push	eax
	call	00406618
	mov	esi,eax

l0041AE02:
	mov	eax,esi
	add	esp,00000408
	pop	esi
	pop	ebx
	ret
0041AE0D                                        8D 40 00              .@.
0041AE10 55 8B EC 83 C4 90 53 56 57 8B F9 8B F2 8B D8 33 U.....SVW......3
0041AE20 C0 89 45 FC 85 DB 0F 84 E6 01 00 00 8D 45 90 50 ..E..........E.P
0041AE30 6A 54 53 E8 30 B8 FE FF 85 C0 0F 84 D2 01 00 00 jTS.0...........
0041AE40 8B C3 E8 BD F4 FF FF 33 C0 89 45 F8 33 C0 89 45 .......3..E.3..E
0041AE50 F0 33 C0 55 68 0B B0 41 00 64 FF 30 64 89 20 6A .3.Uh..A.d.0d. j
0041AE60 00 E8 E2 B8 FE FF E8 31 E8 FF FF 89 45 F8 8B 45 .......1....E..E
0041AE70 F8 50 E8 79 B7 FE FF E8 20 E8 FF FF 89 45 F0 6A .P.y.... ....E.j
0041AE80 00 6A 01 6A 01 8B 45 98 50 8B 45 94 50 E8 46 B7 .j.j..E.P.E.P.F.
0041AE90 FE FF 89 45 FC 83 7D FC 00 0F 84 3E 01 00 00 8B ...E..}....>....
0041AEA0 45 FC 50 8B 45 F0 50 E8 0C B8 FE FF 89 45 E4 81 E.P.E.P......E..
0041AEB0 FF FF FF FF 1F 75 1C 6A 42 8B 45 98 50 8B 45 94 .....u.jB.E.P.E.
0041AEC0 50 6A 00 6A 00 8B 45 F0 50 E8 DA B7 FE FF E9 F7 Pj.j..E.P.......
0041AED0 00 00 00 8B 45 F8 50 E8 14 B7 FE FF E8 BB E7 FF ....E.P.........
0041AEE0 FF 89 45 F4 33 C0 55 68 C3 AF 41 00 64 FF 30 64 ..E.3.Uh..A.d.0d
0041AEF0 89 20 83 7D A4 00 74 1E C6 45 EF 01 33 C0 89 45 . .}..t..E..3..E
0041AF00 A8 8D 45 90 50 6A 00 8B CE 8B D6 8B C3 E8 36 F8 ..E.Pj........6.
0041AF10 FF FF 8B D8 EB 04 C6 45 EF 00 53 8B 45 F4 50 E8 .......E..S.E.P.
0041AF20 94 B7 FE FF 89 45 E8 85 F6 74 2A 6A 00 56 8B 45 .....E...t*j.V.E
0041AF30 F4 50 E8 89 B7 FE FF 8B 45 F4 50 E8 70 B7 FE FF .P......E.P.p...
0041AF40 6A 00 56 8B 45 F0 50 E8 74 B7 FE FF 8B 45 F0 50 j.V.E.P.t....E.P
0041AF50 E8 5B B7 FE FF 57 8B 45 F4 50 E8 69 B7 FE FF 8B .[...W.E.P.i....
0041AF60 F0 68 20 00 CC 00 6A 00 6A 00 8B 45 F4 50 8B 45 .h ...j.j..E.P.E
0041AF70 98 50 8B 45 94 50 6A 00 6A 00 8B 45 F0 50 E8 4D .P.E.Pj.j..E.P.M
0041AF80 B6 FE FF 56 8B 45 F4 50 E8 3B B7 FE FF 83 7D E8 ...V.E.P.;....}.
0041AF90 00 74 0D 8B 45 E8 50 8B 45 F4 50 E8 18 B7 FE FF .t..E.P.E.P.....
0041AFA0 80 7D EF 00 74 06 53 E8 84 B6 FE FF 33 C0 5A 59 .}..t.S.....3.ZY
0041AFB0 59 64 89 10 68 CA AF 41 00 8B 45 F4 50 E8 66 B6 Yd..h..A..E.P.f.
0041AFC0 FE FF C3 E9 5C 8C FE FF EB EF 83 7D E4 00 74 0D ....\......}..t.
0041AFD0 8B 45 E4 50 8B 45 F0 50 E8 DB B6 FE FF 33 C0 5A .E.P.E.P.....3.Z
0041AFE0 59 59 64 89 10 68 12 B0 41 00 83 7D F0 00 74 09 YYd..h..A..}..t.
0041AFF0 8B 45 F0 50 E8 2F B6 FE FF 83 7D F8 00 74 0B 8B .E.P./....}..t..
0041B000 45 F8 50 6A 00 E8 6E B7 FE FF C3 E9 14 8C FE FF E.Pj..n.........
0041B010 EB D8 8B 45 FC 5F 5E 5B 8B E5 5D C3             ...E._^[..].   

;; fn0041B01C: 0041B01C
;;   Called from:
;;     00426ADC (in fn00426AC8)
;;     00426C5B (in fn00426C30)
;;     00426C6A (in fn00426C30)
;;     00426C79 (in fn00426C30)
;;     00426E21 (in fn00426C30)
;;     004271D0 (in fn0042718C)
;;     004272FC (in fn0042718C)
;;     00427512 (in fn00427488)
;;     0042763E (in fn00427488)
;;     004277B8 (in fn004277A4)
fn0041B01C proc
	push	ebx
	push	esi
	push	edi
	test	dl,dl
	jz	0041B02B

l0041B023:
	add	esp,F0
	call	00403990

l0041B02B:
	mov	ebx,edx
	mov	edi,eax
	xor	edx,edx
	mov	eax,edi
	call	00419E78
	mov	dword ptr [edi+34],20000000
	mov	dl,01
	mov	eax,[004179C0]
	call	004036F0
	mov	esi,eax
	mov	[edi+28],esi
	mov	eax,esi
	call	0041A574
	cmp	byte ptr [004283D8],00
	jz	0041B069

l0041B060:
	mov	dl,01
	mov	eax,edi
	mov	ecx,[eax]
	call	dword ptr [ecx+6C]

l0041B069:
	mov	eax,edi
	test	bl,bl
	jz	0041B07E

l0041B06F:
	call	004039E8
	pop	dword ptr fs:[00000000]
	add	esp,0C

l0041B07E:
	mov	eax,edi
	pop	edi
	pop	esi
	pop	ebx
	ret
0041B084             53 56 E8 6D 89 FE FF 8B DA 8B F0 8B     SV.m........
0041B090 C6 E8 7E 07 00 00 8B 46 28 E8 DA F4 FF FF 8B 46 ..~....F(......F
0041B0A0 2C E8 7A 86 FE FF 8B D3 80 E2 FC 8B C6 E8 AA 95 ,.z.............
0041B0B0 FF FF 84 DB 7E 07 8B C6 E8 23 89 FE FF 5E 5B C3 ....~....#...^[.
0041B0C0 55 8B EC 83 C4 A8 53 56 8B DA 89 45 FC 85 DB 74 U.....SV...E...t
0041B0D0 15 8B C3 8B 15 20 7A 41 00 E8 DA 87 FE FF 84 C0 ..... zA........
0041B0E0 0F 84 C1 00 00 00 8B 45 FC E8 26 07 00 00 68 A0 .......E..&...h.
0041B0F0 B8 42 00 E8 20 B3 FE FF 33 C0 55 68 80 B1 41 00 .B.. ...3.Uh..A.
0041B100 64 FF 30 64 89 20 85 DB 74 3B 8B F3 8B 46 28 E8 d.0d. ..t;...F(.
0041B110 60 F4 FF FF 8B 45 FC 8B 40 28 E8 59 F4 FF FF 8B `....E..@(.Y....
0041B120 46 28 8B 55 FC 89 42 28 8A 46 21 8B 55 FC 88 42 F(.U..B(.F!.U..B
0041B130 21 8B 46 34 8B 55 FC 89 42 34 8A 46 38 8B 55 FC !.F4.U..B4.F8.U.
0041B140 88 42 38 EB 23 8D 45 A8 33 C9 BA 54 00 00 00 E8 .B8.#.E.3..T....
0041B150 CC 7E FE FF 8D 45 A8 50 6A 00 6A 00 33 C9 33 D2 .~...E.Pj.j.3.3.
0041B160 8B 45 FC E8 1C 09 00 00 33 C0 5A 59 59 64 89 10 .E......3.ZYYd..
0041B170 68 87 B1 41 00 68 A0 B8 42 00 E8 B9 B3 FE FF C3 h..A.h..B.......
0041B180 E9 9F 8A FE FF EB EE 8B 45 FC 8B 10 FF 52 24 85 ........E....R$.
0041B190 C0 0F 95 C0 8B 55 FC 88 42 22 8B 55 FC 8B 45 FC .....U..B".U..E.
0041B1A0 8B 08 FF 51 10 EB 0A 8B D3 8B 45 FC E8 D7 94 FF ...Q......E.....
0041B1B0 FF 5E 5B 8B E5 5D C3 90                         .^[..]..       

;; fn0041B1B8: 0041B1B8
;;   Called from:
;;     0041B524 (in fn0041B4F8)
;;     0041C502 (in fn0041C3E4)
fn0041B1B8 proc
	push	ebp
	mov	ebp,esp
	add	esp,A4
	push	ebx
	push	esi
	push	edi
	mov	esi,[ebp+08]
	lea	edi,[ebp-5C]
	push	ecx
	mov	ecx,00000015

l0041B1CD:
	rep movsd

l0041B1CF:
	pop	ecx
	mov	esi,ecx
	mov	edi,edx
	mov	ebx,eax
	mov	eax,ebx
	call	0041B814
	xor	eax,eax
	mov	[ebp-04],eax
	xor	eax,eax
	mov	[ebp-08],eax
	xor	eax,eax
	push	ebp
	push	0041B247
	push	dword ptr fs:[eax]
	mov	fs:[eax],esp
	cmp	esi,[0042B884]
	jnz	0041B202

l0041B1FD:
	mov	[ebp-08],esi
	jmp	0041B20C

l0041B202:
	mov	eax,esi
	call	0041ADAC
	mov	[ebp-08],eax

l0041B20C:
	lea	eax,[ebp-5C]
	push	eax
	mov	eax,[ebx+2C]
	push	eax
	mov	ecx,[ebp-08]
	mov	edx,esi
	mov	eax,edi
	call	0041A748
	mov	[ebp-04],eax
	lea	eax,[ebp-5C]
	push	eax
	mov	eax,[ebx+28]
	mov	al,[eax+70]
	push	eax
	push	00
	mov	ecx,[ebp-08]
	mov	edx,[ebp-04]
	mov	eax,ebx
	call	0041BA84
	xor	eax,eax
	pop	edx
	pop	ecx
	pop	ecx
	mov	fs:[eax],edx
	jmp	0041B26D
0041B247                      E9 AC 88 FE FF 8B 45 F8 E8        ......E..
0041B250 B4 C8 FF FF 83 7D FC 00 74 09 8B 45 FC 50 E8 CD .....}..t..E.P..
0041B260 B3 FE FF E8 1C 8A FE FF E8 6B 8A FE FF          .........k...  

l0041B26D:
	pop	edi
	pop	esi
	pop	ebx
	mov	esp,ebp
	pop	ebp
	ret	0004
0041B276                   8B C0                               ..       

;; fn0041B278: 0041B278
;;   Called from:
;;     0041B6F4 (in fn0041B6E8)
fn0041B278 proc
	push	ebx
	mov	ebx,eax
	mov	eax,ebx
	call	0041B4F8
	mov	eax,[ebx+28]
	xor	edx,edx
	mov	[eax+50],edx
	xor	edx,edx
	mov	[eax+54],edx
	add	eax,6C
	call	0040C940
	pop	ebx
	ret
0041B299                            8D 40 00 C6 40 31 00          .@..@1.
0041B2A0 E8 0B EC FF FF C3 8B C0 55 8B EC 83 C4 E4 53 56 ........U.....SV
0041B2B0 57 8B F9 89 55 FC 8B D8 8B 73 28 8A 15 F4 B4 41 W...U....s(....A
0041B2C0 00 8B 45 FC E8 C7 E0 FF FF 8B C3 E8 54 06 00 00 ..E.........T...
0041B2D0 33 C0 89 45 F8 C6 45 F7 00 8B 46 10 85 C0 74 22 3..E..E...F...t"
0041B2E0 6A FF 50 8B 45 FC 8B 40 04 50 E8 D1 B3 FE FF 89 j.P.E..@.P......
0041B2F0 45 F8 8B 45 FC 8B 40 04 50 E8 B2 B3 FE FF C6 45 E..E..@.P......E
0041B300 F7 01 6A 0C 8B 45 FC 8B 40 04 50 E8 50 B3 FE FF ..j..E..@.P.P...
0041B310 50 6A 0E 8B 45 FC 8B 40 04 50 E8 41 B3 FE FF 8B Pj..E..@.P.A....
0041B320 D0 58 F7 EA 83 F8 08 7F 0F 0F B7 56 2A 0F B7 4E .X.........V*..N
0041B330 28 0F AF D1 3B C2 7C 04 33 C0 EB 02 B0 01 84 C0 (...;.|.3.......
0041B340 74 38 8D 45 EF 50 8B 45 FC 8B 40 04 50 E8 EE B2 t8.E.P.E..@.P...
0041B350 FE FF 6A 04 8B 45 FC 8B 40 04 50 E8 90 B3 FE FF ..j..E..@.P.....
0041B360 8D 45 EF 50 8B 45 F3 50 8B 45 EF 50 8B 45 FC 8B .E.P.E.P.E.P.E..
0041B370 40 04 50 E8 60 B3 FE FF EB 1B 8B C3 E8 B3 02 00 @.P.`...........
0041B380 00 84 C0 75 10 6A 03 8B 45 FC E8 2D DF FF FF 50 ...u.j..E..-...P
0041B390 E8 5B B3 FE FF 33 C0 55 68 E4 B4 41 00 64 FF 30 .[...3.Uh..A.d.0
0041B3A0 64 89 20 8B C3 8B 10 FF 52 28 84 C0 74 07 8B C3 d. .....R(..t...
0041B3B0 E8 0F 05 00 00 8B C3 E8 BC 01 00 00 8A 15 F4 B4 ................
0041B3C0 41 00 E8 C9 DF FF FF 8B C3 8B 10 FF 52 28 84 C0 A...........R(..
0041B3D0 0F 84 AA 00 00 00 33 C0 89 45 E4 33 C0 89 45 E8 ......3..E.3..E.
0041B3E0 33 C0 55 68 79 B4 41 00 64 FF 30 64 89 20 6A 00 3.Uhy.A.d.0d. j.
0041B3F0 E8 FB B1 FE FF E8 A2 E2 FF FF 89 45 E8 8B 46 0C ...........E..F.
0041B400 50 8B 45 E8 50 E8 AE B2 FE FF 89 45 E4 8B 47 08 P.E.P......E..G.
0041B410 2B 07 50 8B 47 0C 2B 47 04 50 8B C3 E8 57 01 00 +.P.G.+G.P...W..
0041B420 00 8B 40 04 50 6A 00 6A 00 8B 46 1C 50 8B 46 20 ..@.Pj.j..F.P.F 
0041B430 50 8B 45 E8 50 6A 00 6A 00 8B 4F 04 8B 17 8B 45 P.E.Pj.j..O....E
0041B440 FC 8B 40 04 E8 97 E2 FF FF 33 C0 5A 59 59 64 89 ..@......3.ZYYd.
0041B450 10 68 BE B4 41 00 83 7D E4 00 74 0D 8B 45 E4 50 .h..A..}..t..E.P
0041B460 8B 45 E8 50 E8 4F B2 FE FF 83 7D E8 00 74 09 8B .E.P.O....}..t..
0041B470 45 E8 50 E8 B0 B1 FE FF C3 E9 A6 87 FE FF EB D6 E.P.............
0041B480 8B 45 FC 8B 40 20 50 8B 46 20 50 8B 46 1C 50 6A .E..@ P.F P.F.Pj
0041B490 00 6A 00 8B C3 E8 DE 00 00 00 8B 40 04 50 8B 47 .j.........@.P.G
0041B4A0 0C 2B 47 04 50 8B 47 08 2B 07 50 8B 47 04 50 8B .+G.P.G.+.P.G.P.
0041B4B0 07 50 8B 45 FC 8B 40 04 50 E8 42 B2 FE FF 33 C0 .P.E..@.P.B...3.
0041B4C0 5A 59 59 64 89 10 68 EB B4 41 00 80 7D F7 00 74 ZYYd..h..A..}..t
0041B4D0 12 6A FF 8B 45 F8 50 8B 45 FC 8B 40 04 50 E8 DD .j..E.P.E..@.P..
0041B4E0 B1 FE FF C3 E9 3B 87 FE FF EB E0 5F 5E 5B 8B E5 .....;....._^[..
0041B4F0 5D C3 00 00 0F 00 00 00                         ].......       

;; fn0041B4F8: 0041B4F8
;;   Called from:
;;     0041B27D (in fn0041B278)
fn0041B4F8 proc
	push	ebx
	push	esi
	mov	esi,eax
	mov	ebx,[esi+28]
	cmp	dword ptr [ebx+04],01
	jle	0041B52C

l0041B505:
	mov	eax,esi
	call	0041B824
	cmp	byte ptr [ebx+71],00
	jz	0041B516

l0041B512:
	xor	eax,eax
	jmp	0041B519

l0041B516:
	mov	eax,[ebx+10]

l0041B519:
	lea	edx,[ebx+18]
	push	edx
	mov	ecx,eax
	mov	edx,[ebx+08]
	mov	eax,esi
	call	0041B1B8
	pop	esi
	pop	ebx
	ret

l0041B52C:
	mov	eax,[ebx+08]
	test	eax,eax
	jz	0041B558

l0041B533:
	cmp	eax,[ebx+14]
	jz	0041B558

l0041B538:
	mov	esi,[ebx+14]
	test	esi,esi
	jz	0041B54E

l0041B53F:
	push	esi
	call	00406630
	test	eax,eax
	jnz	0041B54E

l0041B549:
	call	004195F4

l0041B54E:
	xor	eax,eax
	mov	[ebx+14],eax
	xor	eax,eax
	mov	[ebx+2C],eax

l0041B558:
	pop	esi
	pop	ebx
	ret
0041B55B                                  90 8B 40 28 83            ..@(.
0041B560 78 08 00 75 0C 83 78 14 00 75 06 83 78 6C 00 74 x..u..x..u..xl.t
0041B570 03 33 C0 C3 B0 01 C3 90                         .3......       

;; fn0041B578: 0041B578
;;   Called from:
;;     0041CF63 (in fn0041CF50)
;;     0041CF88 (in fn0041CF50)
;;     0041CFC3 (in fn0041CFB0)
;;     0041CFE8 (in fn0041CFB0)
;;     0041D020 (in fn0041D010)
;;     0041D043 (in fn0041D010)
;;     0041D079 (in fn0041D068)
;;     0041D09C (in fn0041D068)
;;     0041D0D4 (in fn0041D0C4)
;;     0041D0F7 (in fn0041D0C4)
;;     0041D12D (in fn0041D11C)
;;     0041D150 (in fn0041D11C)
;;     0041D194 (in fn0041D178)
;;     0041D1AB (in fn0041D178)
;;     0041D1DF (in fn0041D1C8)
;;     0041D1FF (in fn0041D1C8)
;;     00426AE5 (in fn00426AC8)
;;     0042705B (in fn00426C30)
;;     00427074 (in fn00426C30)
;;     00427086 (in fn00426C30)
;;     004270B4 (in fn00426C30)
;;     004274EE (in fn00427488)
fn0041B578 proc
	push	ebx
	push	esi
	mov	ebx,eax
	cmp	dword ptr [ebx+2C],00
	jnz	0041B5B7

l0041B582:
	mov	eax,ebx
	call	0041B824
	cmp	dword ptr [ebx+2C],00
	jnz	0041B5B7

l0041B58F:
	mov	ecx,ebx
	mov	dl,01
	mov	eax,[0041A1BC]
	call	0041A380
	mov	esi,eax
	mov	[ebx+2C],esi
	mov	[esi+2C],ebx
	mov	eax,[ebx]
	mov	eax,[eax+10]
	mov	[esi+28],eax
	mov	[esi+34],ebx
	mov	dword ptr [esi+30],0041B278

l0041B5B7:
	mov	eax,[ebx+2C]
	pop	esi
	pop	ebx
	ret
0041B5BD                                        8D 40 00              .@.
0041B5C0 53 8B D8 8B C3 E8 4A 02 00 00 8B C3 E8 53 02 00 S.....J......S..
0041B5D0 00 8B D3 8B C3 E8 9E FC FF FF 8B 43 28 8B 40 08 ...........C(.@.
0041B5E0 5B C3 8B C0                                     [...           

;; fn0041B5E4: 0041B5E4
;;   Called from:
;;     0041B66C (in fn0041B664)
fn0041B5E4 proc
	mov	eax,[eax+28]
	mov	edx,[eax+08]
	test	edx,edx
	jz	0041B5F3

l0041B5EE:
	cmp	edx,[eax+14]
	jnz	0041B60A

l0041B5F3:
	cmp	dword ptr [eax+14],00
	jnz	0041B607

l0041B5F9:
	cmp	dword ptr [eax+30],00
	jnz	0041B603

l0041B5FF:
	mov	al,01
	jmp	0041B60C

l0041B603:
	xor	eax,eax
	jmp	0041B60C

l0041B607:
	xor	eax,eax
	ret

l0041B60A:
	mov	al,01

l0041B60C:
	ret
0041B60D                                        8D 40 00              .@.
0041B610 8B C8 8B 41 28 8B 40 20 99 33 C2 2B C2 C3 8B C0 ...A(.@ .3.+....
0041B620 53 8B D8 8B C3 E8 9A 02 00 00 8B 43 28 8B 40 0C S..........C(.@.
0041B630 5B C3 8B C0 8B 40 28 83 C0 18 66 83 78 10 01 75 [....@(...f.x..u
0041B640 07 66 83 78 12 01 74 03 33 C0 C3 B0 01 C3 8B C0 .f.x..t.3.......
0041B650 53 8B D8 8B C3 E8 CA 02 00 00 8B 43 28 8B 40 10 S..........C(.@.
0041B660 5B C3 8B C0                                     [...           

;; fn0041B664: 0041B664
;;   Called from:
;;     0041C3F5 (in fn0041C3E4)
;;     00426CD5 (in fn00426C30)
;;     00427206 (in fn0042718C)
;;     00427547 (in fn00427488)
fn0041B664 proc
	push	ebx
	push	esi
	mov	esi,eax
	mov	bl,08
	mov	eax,esi
	call	0041B5E4
	cmp	al,01
	jnz	0041B679

l0041B675:
	xor	ebx,ebx
	jmp	0041B6E0

l0041B679:
	mov	eax,[esi+28]
	lea	edx,[eax+18]
	lea	eax,[edx+18]
	movzx	ecx,word ptr [eax+0E]
	cmp	ecx,10
	jg	0041B69C

l0041B68B:
	jz	0041B6B4

l0041B68D:
	dec	ecx
	jz	0041B6A8

l0041B690:
	sub	ecx,03
	jz	0041B6AC

l0041B695:
	sub	ecx,04
	jz	0041B6B0

l0041B69A:
	jmp	0041B6E0

l0041B69C:
	sub	ecx,18
	jz	0041B6D4

l0041B6A1:
	sub	ecx,08
	jz	0041B6D8

l0041B6A6:
	jmp	0041B6E0

l0041B6A8:
	mov	bl,01
	jmp	0041B6E0

l0041B6AC:
	mov	bl,02
	jmp	0041B6E0

l0041B6B0:
	mov	bl,03
	jmp	0041B6E0

l0041B6B4:
	mov	eax,[eax+10]
	sub	eax,01
	jc	0041B6C3

l0041B6BC:
	sub	eax,02
	jz	0041B6C7

l0041B6C1:
	jmp	0041B6E0

l0041B6C3:
	mov	bl,04
	jmp	0041B6E0

l0041B6C7:
	cmp	dword ptr [edx+44],000007E0
	jnz	0041B6E0

l0041B6D0:
	mov	bl,05
	jmp	0041B6E0

l0041B6D4:
	mov	bl,06
	jmp	0041B6E0

l0041B6D8:
	cmp	dword ptr [eax+10],00
	jnz	0041B6E0

l0041B6DE:
	mov	bl,07

l0041B6E0:
	mov	eax,ebx
	pop	esi
	pop	ebx
	ret
0041B6E5                8D 40 00                              .@.       

;; fn0041B6E8: 0041B6E8
;;   Called from:
;;     0041CE39 (in fn0041CE08)
;;     0041CE45 (in fn0041CE08)
;;     0041CEF2 (in fn0041CEC0)
;;     0041CF07 (in fn0041CEC0)
fn0041B6E8 proc
	push	ebx
	push	esi
	push	edi
	push	ebp
	mov	edi,edx
	mov	ebx,eax
	mov	edx,ebx
	mov	eax,ebx
	call	0041B278
	mov	eax,[ebx+28]
	add	eax,18
	mov	ebp,eax
	lea	esi,[eax+18]
	test	edi,edi
	jl	0041B70D

l0041B708:
	cmp	edi,[ebp+08]
	jl	0041B717

l0041B70D:
	mov	eax,[0042A8DC]
	call	00419564

l0041B717:
	mov	eax,ebx
	call	0041B7A0
	call	00406638
	mov	eax,[esi+08]
	test	eax,eax
	jle	0041B72F

l0041B72A:
	sub	eax,edi
	dec	eax
	mov	edi,eax

l0041B72F:
	movzx	edx,word ptr [esi+0E]
	mov	ecx,00000020
	mov	eax,[esi+04]
	call	004196CC
	imul	edi
	add	eax,[ebp+14]
	mov	ebx,eax
	mov	eax,ebx
	pop	ebp
	pop	edi
	pop	esi
	pop	ebx
	ret
0041B74E                                           8B C0               ..
0041B750 53 8B D8 8B 43 34 3D 00 00 00 20 75 2C 8B C3 E8 S...C4=... u,...
0041B760 D0 FE FF FF 84 C0 74 07 B8 FF FF FF 00 EB 1F 8B ......t.........
0041B770 C3 8B 10 FF 52 20 48 50 8B C3 E8 F9 FD FF FF 33 ....R HP.......3
0041B780 D2 59 E8 09 DB FF FF EB 05 E8 46 CB FF FF 0D 00 .Y........F.....
0041B790 00 00 02 5B C3 8D 40 00 8B 40 28 8B 40 1C C3 90 ...[..@..@(.@...

;; fn0041B7A0: 0041B7A0
;;   Called from:
;;     0041B719 (in fn0041B6E8)
fn0041B7A0 proc
	push	ebx
	push	esi
	mov	ebx,[eax+28]
	cmp	dword ptr [ebx+08],00
	jz	0041B810

l0041B7AB:
	cmp	dword ptr [ebx+14],00
	jnz	0041B810

l0041B7B1:
	call	0041B924
	cmp	dword ptr [ebx+30],00
	jnz	0041B7F8

l0041B7BC:
	lea	eax,[ebx+18]
	push	eax
	push	54
	mov	eax,[ebx+08]
	push	eax
	call	00406668
	lea	eax,[ebx+18]
	mov	edx,eax
	add	eax,18
	mov	dword ptr [eax],00000028
	mov	ecx,[edx+04]
	mov	[eax+04],ecx
	mov	ecx,[edx+08]
	mov	[eax+08],ecx
	mov	word ptr [eax+0C],0001
	mov	cx,[edx+10]
	imul	cx,[edx+12]
	mov	[eax+0E],cx

l0041B7F8:
	lea	eax,[ebx+18]
	push	eax
	push	00
	mov	esi,[ebx+10]
	mov	ecx,esi
	mov	edx,esi
	mov	eax,[ebx+08]
	call	0041A748
	mov	[ebx+14],eax

l0041B810:
	pop	esi
	pop	ebx
	ret
0041B813          90                                        .           

;; fn0041B814: 0041B814
;;   Called from:
;;     0041B1D8 (in fn0041B1B8)
fn0041B814 proc
	mov	edx,[eax+2C]
	test	edx,edx
	jz	0041B822

l0041B81B:
	mov	eax,edx
	call	0041A3E8

l0041B822:
	ret
0041B823          90                                        .           

;; fn0041B824: 0041B824
;;   Called from:
;;     0041B507 (in fn0041B4F8)
;;     0041B584 (in fn0041B578)
fn0041B824 proc
	push	ebp
	mov	ebp,esp
	add	esp,F0
	mov	[ebp-04],eax
	mov	eax,[ebp-04]
	mov	eax,[eax+28]
	cmp	dword ptr [eax+08],00
	jnz	0041B8AE

l0041B839:
	cmp	dword ptr [eax+14],00
	jnz	0041B8AE

l0041B83F:
	cmp	dword ptr [eax+6C],00
	jz	0041B8AE

l0041B845:
	push	00
	push	00
	mov	eax,[eax+6C]
	call	00415C9C
	mov	eax,[ebp-04]
	mov	edx,[eax+10]
	mov	[ebp-10],edx
	mov	edx,[eax+14]
	mov	[ebp-0C],edx
	xor	eax,eax
	push	ebp
	push	0041B8A7
	push	dword ptr fs:[eax]
	mov	fs:[eax],esp
	mov	eax,[ebp-04]
	xor	edx,edx
	mov	[eax+10],edx
	mov	[eax+14],edx
	mov	eax,[ebp-04]
	mov	eax,[eax+28]
	mov	edx,[eax+6C]
	mov	eax,[ebp-04]
	mov	ecx,[eax]
	call	dword ptr [ecx+54]
	xor	eax,eax
	pop	edx
	pop	ecx
	pop	ecx
	mov	fs:[eax],edx
	push	0041B8AE
	mov	eax,[ebp-04]
	mov	edx,[ebp-10]
	mov	[eax+10],edx
	mov	edx,[ebp-0C]
	mov	[eax+14],edx
	ret
0041B8A7                      E9 78 83 FE FF EB E9              .x..... 

l0041B8AE:
	mov	eax,[ebp-04]
	mov	eax,[eax+28]
	cmp	dword ptr [eax+08],00
	jnz	0041B8C0

l0041B8BA:
	mov	edx,[eax+14]
	mov	[eax+08],edx

l0041B8C0:
	mov	esp,ebp
	pop	ebp
	ret
0041B8C4             53 56 8B D8 80 7B 32 00 74 06 80 7B     SV...{2.t..{
0041B8D0 31 00 75 4D 8B 73 28 8B 46 0C 85 C0 74 13 E8 21 1.uM.s(.F...t..!
0041B8E0 EA FF FF 8B 46 0C 50 E8 44 AD FE FF 33 C0 89 46 ....F.P.D...3..F
0041B8F0 0C 8B C3 E8 1C FF FF FF 8B C3 E8 25 FF FF FF 8B ...........%....
0041B900 73 28 8B C3 E8 47 FE FF FF 8B C8 8B 56 10 8B 46 s(...G......V..F
0041B910 08 E8 FA F4 FF FF 89 46 0C C6 43 32 01 C6 43 31 .......F..C2..C1
0041B920 01 5E 5B C3                                     .^[.           

;; fn0041B924: 0041B924
;;   Called from:
;;     0041B7B1 (in fn0041B7A0)
fn0041B924 proc
	push	ebx
	push	esi
	push	edi
	push	ebp
	mov	edi,eax
	mov	ebp,[edi+28]
	cmp	byte ptr [edi+30],00
	jnz	0041B9D7

l0041B937:
	cmp	dword ptr [ebp+10],00
	jnz	0041B9D7

l0041B941:
	cmp	dword ptr [ebp+14],00
	jz	0041B9D7

l0041B94B:
	mov	eax,[ebp+14]
	cmp	eax,[ebp+08]
	jnz	0041B958

l0041B953:
	call	0041A304

l0041B958:
	mov	cx,[ebp+3E]
	mov	eax,00000001
	shl	eax,cl
	mov	ecx,eax
	xor	edx,edx
	mov	eax,[ebp+14]
	call	00419C38
	mov	esi,eax
	mov	[ebp+10],esi
	test	esi,esi
	jnz	0041B9D7

l0041B978:
	push	00
	call	00406748
	call	0041969C
	mov	esi,eax
	cmp	byte ptr [ebp+71],00
	jnz	0041B9B3

l0041B98C:
	push	0C
	push	esi
	call	00406660
	mov	ebx,eax
	push	0E
	push	esi
	call	00406660
	imul	ebx,eax
	movzx	eax,word ptr [ebp+2A]
	movzx	edx,word ptr [ebp+28]
	imul	edx
	cmp	ebx,eax
	jl	0041B9B3

l0041B9AF:
	xor	ebx,ebx
	jmp	0041B9B5

l0041B9B3:
	mov	bl,01

l0041B9B5:
	mov	[ebp+71],bl
	test	bl,bl
	jz	0041B9C5

l0041B9BC:
	push	esi
	call	00406610
	mov	[ebp+10],eax

l0041B9C5:
	push	esi
	push	00
	call	00406778
	cmp	dword ptr [ebp+10],00
	jnz	0041B9D7

l0041B9D3:
	mov	byte ptr [edi+30],01

l0041B9D7:
	pop	ebp
	pop	edi
	pop	esi
	pop	ebx
	ret
0041B9DC                                     55 8B EC 83             U...
0041B9E0 C4 AC 53 56 8B D9 8B F0 66 83 FA 02 75 04 85 DB ..SV....f...u...
0041B9F0 75 0A A1 68 A8 42 00 E8 80 DB FF FF 8B C6 E8 11 u..h.B..........
0041BA00 FE FF FF 8D 45 AC 33 C9 BA 54 00 00 00 E8 0E 76 ....E.3..T.....v
0041BA10 FE FF 8D 45 AC 50 6A 54 53 E8 4A AC FE FF 83 7D ...E.PjTS.J....}
0041BA20 C0 00 75 05 33 C0 89 45 C4 8D 45 AC 50 8B 4D 08 ..u.3..E..E.P.M.
0041BA30 8B D3 8B C6 E8 7F F7 FF FF 8B 46 28 C6 40 70 00 ..........F(.@p.
0041BA40 8B C6 8B 10 FF 52 24 85 C0 0F 95 C0 88 46 22 8B .....R$......F".
0041BA50 D6 8B C6 8B 08 FF 51 10 5E 5B 8B E5 5D C2 04 00 ......Q.^[..]...
0041BA60 53 56 8B DA 8B F0 8B C3 8B 10 FF 12 50 8B C3 E8 SV..........P...
0041BA70 08 A2 FF FF 59 2B C8 8B D3 8B C6 E8 94 06 00 00 ....Y+..........
0041BA80 5E 5B C3 90                                     ^[..           

;; fn0041BA84: 0041BA84
;;   Called from:
;;     0041B238 (in fn0041B1B8)
fn0041BA84 proc
	push	ebp
	mov	ebp,esp
	add	esp,F8
	push	ebx
	push	esi
	push	edi
	mov	esi,ecx
	mov	ebx,edx
	mov	[ebp-04],eax
	mov	dl,01
	mov	eax,[004179C0]
	call	004036F0
	mov	[ebp-08],eax
	xor	eax,eax
	push	ebp
	push	0041BB0B
	push	dword ptr fs:[eax]
	mov	fs:[eax],esp
	mov	eax,[ebp-08]
	mov	[eax+08],ebx
	mov	eax,[ebp-08]
	mov	[eax+10],esi
	mov	eax,[ebp+10]
	mov	edx,[ebp-08]
	mov	esi,eax
	lea	edi,[edx+18]
	mov	ecx,00000015

l0041BACD:
	rep movsd

l0041BACF:
	mov	eax,[ebp-08]
	mov	dl,[ebp+0C]
	mov	[eax+70],dl
	mov	eax,[ebp-08]
	cmp	dword ptr [eax+2C],00
	jz	0041BAED

l0041BAE1:
	mov	eax,[ebp-08]
	mov	eax,[eax+08]
	mov	edx,[ebp-08]
	mov	[edx+14],eax

l0041BAED:
	mov	eax,[ebp+08]
	mov	edx,[00413C30]
	call	004038DC
	mov	edx,[ebp-08]
	mov	[edx+6C],eax
	xor	eax,eax
	pop	edx
	pop	ecx
	pop	ecx
	mov	fs:[eax],edx
	jmp	0041BB22
0041BB0B                                  E9 E8 7F FE FF            .....
0041BB10 8B 45 F8 E8 08 7C FE FF E8 67 81 FE FF E8 B6 81 .E...|...g......
0041BB20 FE FF                                           ..             

l0041BB22:
	push	0042B8A0
	call	00406418
	xor	edx,edx
	push	ebp
	push	0041BB6B
	push	dword ptr fs:[edx]
	mov	fs:[edx],esp
	mov	eax,[ebp-04]
	mov	eax,[eax+28]
	call	0041A578
	mov	edx,[ebp-04]
	mov	eax,[ebp-08]
	mov	[edx+28],eax
	call	0041A574
	xor	eax,eax
	pop	edx
	pop	ecx
	pop	ecx
	mov	fs:[eax],edx
	push	0041BB72
	push	0042B8A0
	call	00406538
	ret
0041BB6B                                  E9 B4 80 FE FF            .....
0041BB70 EB EE 8B 45 FC C6 40 32 00 5F 5E 5B 59 59 5D C2 ...E..@2._^[YY].
0041BB80 0C 00 8B C0 53 56 57 51 8B F2 8B D8 8B D4 B9 04 ....SVWQ........
0041BB90 00 00 00 8B C6 8B 38 FF 57 0C 8B 0C 24 8B D6 8B ......8.W...$...
0041BBA0 C3 E8 6E 05 00 00 5A 5F 5E 5B C3 90 55 8B EC 81 ..n...Z_^[..U...
0041BBB0 C4 54 FF FF FF 53 56 57 8B F1 89 55 F8 89 45 FC .T...SVW...U..E.
0041BBC0 33 C0 89 45 D0 33 C0 89 45 D8 33 C0 89 45 C8 8D 3..E.3..E.3..E..
0041BBD0 55 E0 B9 04 00 00 00 8B 45 F8 8B 18 FF 53 0C 83 U.......E....S..
0041BBE0 7D E0 0C 0F 94 45 DF 80 7D DF 00 74 07 C7 45 E0 }....E..}..t..E.
0041BBF0 28 00 00 00 8B 45 E0 83 C0 0C 05 00 04 00 00 E8 (....E..........
0041BC00 24 6E FE FF 89 45 E8 8B 45 E8 89 45 C4 33 D2 55 $n...E..E..E.3.U
0041BC10 68 C9 C0 41 00 64 FF 32 64 89 22 33 D2 55 68 9C h..A.d.2d."3.Uh.
0041BC20 C0 41 00 64 FF 32 64 89 22 80 7D DF 00 74 4C 8D .A.d.2d.".}..tL.
0041BC30 55 B8 83 C2 04 B9 08 00 00 00 8B 45 F8 8B 18 FF U..........E....
0041BC40 53 0C 8B 5D C4 8B C3 33 C9 BA 28 00 00 00 E8 CD S..]...3..(.....
0041BC50 73 FE FF 8B C3 0F B7 55 BC 89 50 04 0F B7 55 BE s......U..P...U.
0041BC60 89 50 08 66 8B 55 C0 66 89 50 0C 66 8B 55 C2 66 .P.f.U.f.P.f.U.f
0041BC70 89 50 0E 83 EE 0C E9 CD 00 00 00 8B 4D E0 83 E9 .P..........M...
0041BC80 04 8B 55 E8 83 C2 04 8B 45 F8 8B 18 FF 53 0C 2B ..U.....E....S.+
0041BC90 75 E0 8B 45 C4 8B 40 10 83 F8 03 0F 84 A7 00 00 u..E..@.........
0041BCA0 00 85 C0 0F 84 9F 00 00 00 B2 01 A1 30 3C 41 00 ............0<A.
0041BCB0 E8 3B 7A FE FF 89 45 C8 83 7D 08 00 75 2F 8D 85 .;z...E..}..u/..
0041BCC0 56 FF FF FF 33 C9 BA 0E 00 00 00 E8 50 73 FE FF V...3.......Ps..
0041BCD0 66 C7 85 56 FF FF FF 42 4D 8B 45 E0 03 C6 89 85 f..V...BM.E.....
0041BCE0 58 FF FF FF 8D 85 56 FF FF FF 89 45 08 8B 55 08 X.....V....E..U.
0041BCF0 B9 0E 00 00 00 8B 45 C8 8B 18 FF 53 10 8D 55 E0 ......E....S..U.
0041BD00 B9 04 00 00 00 8B 45 C8 8B 18 FF 53 10 8B 4D E0 ......E....S..M.
0041BD10 83 E9 04 8B 55 E8 83 C2 04 8B 45 C8 8B 18 FF 53 ....U.....E....S
0041BD20 10 8B C6 33 D2 52 50 8B 55 F8 8B 45 C8 E8 D2 A1 ...3.RP.U..E....
0041BD30 FF FF 8B D6 F7 DA 66 B9 02 00 8B 45 C8 8B 18 FF ......f....E....
0041BD40 53 14 8B 45 C8 89 45 F8 8B 5D C4 8B 45 E0 89 03 S..E..E..]..E...
0041BD50 8B 45 E8 03 45 E0 89 45 E4 66 83 7B 0C 01 74 05 .E..E..E.f.{..t.
0041BD60 E8 2F D8 FF FF 83 7D E0 28 75 2D 66 8B 43 0E 66 ./....}.(u-f.C.f
0041BD70 83 F8 10 74 06 66 83 F8 20 75 1D 83 7B 10 03 75 ...t.f.. u..{..u
0041BD80 17 8B 55 E4 B9 0C 00 00 00 8B 45 F8 E8 03 A1 FF ..U.......E.....
0041BD90 FF 83 45 E4 0C 83 EE 0C 83 7B 20 00 75 0C 66 8B ..E......{ .u.f.
0041BDA0 43 0E E8 05 D9 FF FF 89 43 20 8B 4B 20 0F B6 7D C.......C .K ..}
0041BDB0 DF 33 C0 8A 87 68 86 42 00 0F AF C8 8B 55 E4 8B .3...h.B.....U..
0041BDC0 45 F8 E8 CD A0 FF FF 8B 43 20 33 D2 8A 97 68 86 E.......C 3...h.
0041BDD0 42 00 F7 EA 2B F0 83 7B 14 00 75 21 0F B7 53 0E B...+..{..u!..S.
0041BDE0 8B 43 04 B9 20 00 00 00 E8 DF D8 FF FF 8B C8 8B .C.. ...........
0041BDF0 43 08 99 33 C2 2B C2 0F AF C8 89 4B 14 8B 43 14 C..3.+.....K..C.
0041BE00 3B F0 76 02 8B F0 80 7D DF 00 74 08 8B 45 E4 E8 ;.v....}..t..E..
0041BE10 60 DB FF FF 6A 00 E8 2D A9 FE FF E8 7C D8 FF FF `...j..-....|...
0041BE20 89 45 F4 33 D2 55 68 17 C0 41 00 64 FF 32 64 89 .E.3.Uh..A.d.2d.
0041BE30 22 8B 45 C4 8B 40 10 85 C0 74 05 83 F8 03 75 0D ".E..@...t....u.
0041BE40 80 3D D8 83 42 00 00 0F 84 39 01 00 00 33 C0 89 .=..B....9...3..
0041BE50 45 F0 8B C6 E8 CF 6B FE FF 89 45 EC 33 D2 55 68 E.....k...E.3.Uh
0041BE60 7F BF 41 00 64 FF 32 64 89 22 8B 55 EC 8B CE 8B ..A.d.2d.".U....
0041BE70 45 F8 E8 1D A0 FF FF 8B 45 F4 50 E8 70 A7 FE FF E.......E.P.p...
0041BE80 E8 17 D8 FF FF 89 45 F0 6A 01 6A 01 8B 45 F4 50 ......E.j.j..E.P
0041BE90 E8 53 A7 FE FF 50 8B 45 F0 50 E8 19 A8 FE FF 89 .S...P.E.P......
0041BEA0 45 D4 33 C0 89 45 CC 8B 45 C4 8B 40 20 85 C0 76 E.3..E..E..@ ..v
0041BEB0 2A 8B C8 8B 55 E4 33 C0 E8 7B DD FF FF 89 45 D0 *...U.3..{....E.
0041BEC0 6A 00 8B 45 D0 50 8B 45 F0 50 E8 F1 A7 FE FF 89 j..E.P.E.P......
0041BED0 45 CC 8B 45 F0 50 E8 D5 A7 FE FF 33 D2 55 68 53 E..E.P.....3.UhS
0041BEE0 BF 41 00 64 FF 32 64 89 22 6A 00 8B 45 E8 50 8B .A.d.2d."j..E.P.
0041BEF0 55 EC 52 6A 04 50 8B 45 F0 50 E8 01 A7 FE FF 89 U.Rj.P.E.P......
0041BF00 45 D8 83 7D D8 00 75 15 E8 93 A5 FE FF 85 C0 75 E..}..u........u
0041BF10 07 E8 7E D6 FF FF EB 05 E8 77 04 FF FF 33 C0 5A ..~......w...3.Z
0041BF20 59 59 64 89 10 68 5A BF 41 00 83 7D CC 00 74 0F YYd..hZ.A..}..t.
0041BF30 6A FF 8B 45 CC 50 8B 45 F0 50 E8 81 A7 FE FF 8B j..E.P.E.P......
0041BF40 45 D4 50 8B 45 F0 50 E8 6C A7 FE FF 50 E8 DE A6 E.P.E.P.l...P...
0041BF50 FE FF C3 E9 CC 7C FE FF EB D0 33 C0 5A 59 59 64 .....|....3.ZYYd
0041BF60 89 10 68 FE BF 41 00 83 7D F0 00 74 09 8B 45 F0 ..h..A..}..t..E.
0041BF70 50 E8 B2 A6 FE FF 8B 45 EC E8 DA 6A FE FF C3 E9 P......E...j....
0041BF80 A0 7C FE FF EB E1 6A 00 6A 00 8D 45 EC 50 6A 00 .|....j.j..E.Pj.
0041BF90 8B 45 E8 50 8B 45 F4 50 E8 5B A6 FE FF 89 45 D8 .E.P.E.P.[....E.
0041BFA0 83 7D D8 00 74 06 83 7D EC 00 75 15 E8 EF A4 FE .}..t..}..u.....
0041BFB0 FF 85 C0 75 07 E8 DA D5 FF FF EB 05 E8 D3 03 FF ...u............
0041BFC0 FF 33 C0 55 68 E6 BF 41 00 64 FF 30 64 89 20 8B .3.Uh..A.d.0d. .
0041BFD0 55 EC 8B CE 8B 45 F8 E8 B8 9E FF FF 33 C0 5A 59 U....E......3.ZY
0041BFE0 59 64 89 10 EB 18 E9 0D 7B FE FF 8B 45 D8 50 E8 Yd......{...E.P.
0041BFF0 3C A6 FE FF E8 8B 7C FE FF E8 DA 7C FE FF 33 C0 <.....|....|..3.
0041C000 5A 59 59 64 89 10 68 1E C0 41 00 8B 45 F4 50 6A ZYYd..h..A..E.Pj
0041C010 00 E8 62 A7 FE FF C3 E9 08 7C FE FF EB ED 8B 45 ..b......|.....E
0041C020 C4 66 83 78 0E 08 76 22 8B 45 C4 83 78 20 00 76 .f.x..v".E..x .v
0041C030 19 83 7D D0 00 75 13 8B 45 C4 8B 48 20 8B 55 E4 ..}..u..E..H .U.
0041C040 33 C0 E8 F1 DB FF FF 89 45 D0 8D 85 64 FF FF FF 3.......E...d...
0041C050 33 C9 BA 54 00 00 00 E8 C4 6F FE FF 8D 85 64 FF 3..T.....o....d.
0041C060 FF FF 50 6A 54 8B 45 D8 50 E8 FA A5 FE FF 8B 45 ..PjT.E.P......E
0041C070 C4 8B 40 18 89 45 94 8B 45 C4 8B 40 1C 89 45 98 ..@..E..E..@..E.
0041C080 8B 45 C4 8B 40 20 89 45 9C 8B 45 C4 8B 40 24 89 .E..@ .E..E..@$.
0041C090 45 A0 33 C0 5A 59 59 64 89 10 EB 17 E9 57 7A FE E.3.ZYYd.....Wz.
0041C0A0 FF 8B 45 C8 E8 77 76 FE FF E8 D6 7B FE FF E8 25 ..E..wv....{...%
0041C0B0 7C FE FF 33 C0 5A 59 59 64 89 10 68 D0 C0 41 00 |..3.ZYYd..h..A.
0041C0C0 8B 45 E8 E8 90 69 FE FF C3 E9 56 7B FE FF EB F0 .E...i....V{....
0041C0D0 8D 85 64 FF FF FF 50 8A 45 DF 50 8B 45 C8 50 8B ..d...P.E.P.E.P.
0041C0E0 4D D0 8B 55 D8 8B 45 FC E8 97 F9 FF FF 8B 45 FC M..U..E.......E.
0041C0F0 8B 10 FF 52 24 85 C0 0F 95 C0 8B 55 FC 88 42 22 ...R$......U..B"
0041C100 8B 55 FC 8B 45 FC 8B 08 FF 51 10 5F 5E 5B 8B E5 .U..E....Q._^[..
0041C110 5D C2 04 00 53 56 57 83 C4 9C 8B F1 8B FA 8B D8 ]...SVW.........
0041C120 8B C3 E8 ED F6 FF FF 85 F6 75 26 8D 44 24 0E 33 .........u&.D$.3
0041C130 C9 BA 54 00 00 00 E8 E5 6E FE FF 8D 44 24 0E 50 ..T.....n...D$.P
0041C140 6A 00 6A 00 33 C9 33 D2 8B C3 E8 35 F9 FF FF EB j.j.3.3....5....
0041C150 2A 8B D4 B9 0E 00 00 00 8B C7 E8 35 9D FF FF 66 *..........5...f
0041C160 81 3C 24 42 4D 74 05 E8 28 D4 FF FF 54 8B CE 83 .<$BMt..(...T...
0041C170 E9 0E 8B D7 8B C3 E8 31 FA FF FF 83 C4 64 5F 5E .......1.....d_^
0041C180 5B C3 8B C0 53 56 57 55 83 C4 AC 8B DA 8B F0 8B [...SVWU........
0041C190 C6 E8 4E F4 FF FF 3A D8 0F 84 16 01 00 00 8B 7E ..N...:........~
0041C1A0 28 83 7F 08 00 75 21 83 7F 14 00 75 1B 80 FB 01 (....u!....u....
0041C1B0 75 0A 33 C0 89 47 30 E9 F8 00 00 00 C7 47 30 28 u.3..G0......G0(
0041C1C0 00 00 00 E9 EC 00 00 00 84 DB 75 68 8B 47 14 85 ..........uh.G..
0041C1D0 C0 74 09 3B 47 08 0F 84 D8 00 00 00 8B C6 E8 31 .t.;G..........1
0041C1E0 F6 FF FF 8B C6 E8 3A F7 FF FF 8B C6 E8 AF F5 FF ......:.........
0041C1F0 FF 83 7F 04 01 75 2A 8B 47 14 33 D2 89 57 14 8B .....u*.G.3..W..
0041C200 6F 10 33 D2 89 57 10 8D 57 18 52 8A 57 70 52 6A o.3..W..W.R.WpRj
0041C210 00 8B CD 8B D0 8B C6 E8 68 F8 FF FF E9 8A 00 00 ........h.......
0041C220 00 8D 47 18 50 8B 4F 10 8B 57 14 8B C6 E8 86 EF ..G.P.O..W......
0041C230 FF FF EB 77 8B 47 08 85 C0 74 05 3B 47 14 75 74 ...w.G...t.;G.ut
0041C240 8B C6 E8 CD F5 FF FF 8B C6 E8 D6 F6 FF FF 56 57 ..............VW
0041C250 8D 77 18 8D 7C 24 08 B9 15 00 00 00 F3 A5 5F 5E .w..|$........_^
0041C260 33 C0 89 44 24 18 83 7F 04 01 0F 94 C3 84 DB 74 3..D$..........t
0041C270 05 8B 6F 10 EB 0A 8B 47 10 E8 2E EB FF FF 8B E8 ..o....G........
0041C280 54 6A 00 8B CD 8B 57 10 8B 47 14 E8 B8 E4 FF FF Tj....W..G......
0041C290 84 DB 74 05 89 47 08 EB 12 54 8A 57 70 52 6A 00 ..t..G...T.WpRj.
0041C2A0 8B CD 8B D0 8B C6 E8 D9 F7 FF FF 8B D6 8B C6 8B ................
0041C2B0 08 FF 51 10 83 C4 54 5D 5F 5E 5B C3 53 56 57 83 ..Q...T]_^[.SVW.
0041C2C0 C4 AC 8B FA 8B D8 8B 73 28 3B 7E 20 74 38 8B C3 .......s(;~ t8..
0041C2D0 E8 4F F5 FF FF 56 57 83 C6 18 8D 7C 24 08 B9 15 .O...VW....|$...
0041C2E0 00 00 00 F3 A5 5F 5E 89 7C 24 08 89 7C 24 20 54 ....._^.|$..|$ T
0041C2F0 8B 4E 10 8B 56 08 8B C3 E8 BB EE FF FF 8B D3 8B .N..V...........
0041C300 C3 8B 08 FF 51 10 83 C4 54 5F 5E 5B C3 8D 40 00 ....Q...T_^[..@.
0041C310 55 8B EC 83 C4 A8 53 56 57 8B FA 8B D8 8B 43 28 U.....SVW.....C(
0041C320 3B 78 10 0F 84 B3 00 00 00 8B F0 85 FF 75 15 83 ;x...........u..
0041C330 7E 04 01 75 0F 8B 46 10 E8 CB B7 FF FF 33 C0 89 ~..u..F......3..
0041C340 46 10 EB 7B 8B C3 E8 C9 F4 FF FF 8B C3 E8 D2 F4 F..{............
0041C350 FF FF 56 57 83 C6 18 8D 7D A8 B9 15 00 00 00 F3 ..VW....}.......
0041C360 A5 5F 5E 8D 45 A8 50 6A 00 8B 56 10 8B 46 08 8B ._^.E.Pj..V..F..
0041C370 CF E8 D2 E3 FF FF 89 45 FC 33 C0 55 68 A7 C3 41 .......E.3.Uh..A
0041C380 00 64 FF 30 64 89 20 8D 45 A8 50 8A 46 70 50 6A .d.0d. .E.P.FpPj
0041C390 00 8B CF 8B 55 FC 8B C3 E8 E7 F6 FF FF 33 C0 5A ....U........3.Z
0041C3A0 59 59 64 89 10 EB 18 E9 4C 77 FE FF 8B 45 FC 50 YYd.....Lw...E.P
0041C3B0 E8 7B A2 FE FF E8 CA 78 FE FF E8 19 79 FE FF 8B .{.....x....y...
0041C3C0 43 28 8D 48 18 8B 40 14 8B D7 E8 71 E2 FF FF C6 C(.H..@....q....
0041C3D0 43 22 01 8B D3 8B C3 8B 08 FF 51 10 5F 5E 5B 8B C"........Q._^[.
0041C3E0 E5 5D C3 90                                     .]..           

;; fn0041C3E4: 0041C3E4
;;   Called from:
;;     0041CE19 (in fn0041CE08)
;;     0041CECF (in fn0041CEC0)
;;     00426AFF (in fn00426AC8)
;;     00426CDF (in fn00426C30)
;;     00427210 (in fn0042718C)
;;     00427551 (in fn00427488)
fn0041C3E4 proc
	push	ebp
	mov	ebp,esp
	add	esp,A0
	push	ebx
	push	esi
	push	edi
	mov	ebx,edx
	mov	[ebp-04],eax
	mov	eax,[ebp-04]
	call	0041B664
	cmp	bl,al
	jz	0041C543

l0041C402:
	mov	eax,ebx
	sub	al,01
	jc	0041C40E

l0041C408:
	sub	al,07
	jz	0041C41D

l0041C40C:
	jmp	0041C42C

l0041C40E:
	mov	dl,01
	mov	eax,[ebp-04]
	mov	ecx,[eax]
	call	dword ptr [ecx+6C]
	jmp	0041C543

l0041C41D:
	mov	eax,[0042A724]
	call	0041957C
	jmp	0041C543

l0041C42C:
	lea	eax,[ebp-5D]
	xor	ecx,ecx
	mov	edx,00000054
	call	00403020
	mov	eax,[ebp-04]
	mov	eax,[eax+28]
	lea	esi,[eax+18]
	lea	edi,[ebp-5D]
	mov	ecx,00000006

l0041C44C:
	rep movsd

l0041C44E:
	mov	byte ptr [ebp-09],00
	xor	edx,edx
	mov	[ebp-49],edx
	mov	dword ptr [ebp-45],00000028
	mov	edx,[ebp-59]
	mov	[ebp-41],edx
	mov	edx,[ebp-55]
	mov	[ebp-3D],edx
	mov	word ptr [ebp-39],0001
	xor	edx,edx
	mov	dl,bl
	movzx	edx,byte ptr [edx+0042866B]
	mov	[ebp-37],dx
	mov	eax,[eax+10]
	mov	[ebp-08],eax
	sub	bl,02
	jz	0041C495

l0041C48A:
	dec	bl
	jz	0041C49F

l0041C48E:
	sub	bl,02
	jz	0041C4C4

l0041C493:
	jmp	0041C4E0

l0041C495:
	mov	eax,[0042B884]
	mov	[ebp-08],eax
	jmp	0041C4E0

l0041C49F:
	push	00
	call	00406748
	call	0041969C
	mov	ebx,eax
	push	ebx
	call	00406610
	mov	[ebp-08],eax
	mov	byte ptr [ebp-09],01
	push	ebx
	push	00
	call	00406778
	jmp	0041C4E0

l0041C4C4:
	mov	dword ptr [ebp-35],00000003
	mov	dword ptr [ebp-1D],0000F800
	mov	dword ptr [ebp-19],000007E0
	mov	dword ptr [ebp-15],0000001F

l0041C4E0:
	xor	eax,eax
	push	ebp
	push	0041C531
	push	dword ptr fs:[eax]
	mov	fs:[eax],esp
	lea	eax,[ebp-5D]
	push	eax
	mov	eax,[ebp-04]
	mov	edx,[eax]
	call	dword ptr [edx+64]
	mov	edx,eax
	mov	ecx,[ebp-08]
	mov	eax,[ebp-04]
	call	0041B1B8
	cmp	dword ptr [ebp-08],00
	setnz	al
	mov	edx,[ebp-04]
	mov	[edx+22],al
	xor	eax,eax
	pop	edx
	pop	ecx
	pop	ecx
	mov	fs:[eax],edx
	push	0041C538
	cmp	byte ptr [ebp-09],00
	jz	0041C530

l0041C527:
	mov	eax,[ebp-08]
	push	eax
	call	00406630

l0041C530:
	ret
0041C531    E9 EE 76 FE FF EB E9 8B 55 FC 8B 45 FC 8B 08  ..v.....U..E...
0041C540 FF 51 10                                        .Q.            

l0041C543:
	pop	edi
	pop	esi
	pop	ebx
	mov	esp,ebp
	pop	ebp
	ret
0041C54A                               8B C0 53 56 57 83           ..SVW.
0041C550 C4 AC 8B FA 8B D8 8B 73 28 3B 7E 1C 74 38 8B C3 .......s(;~.t8..
0041C560 E8 BF F2 FF FF 56 57 83 C6 18 8D 7C 24 08 B9 15 .....VW....|$...
0041C570 00 00 00 F3 A5 5F 5E 89 7C 24 04 89 7C 24 1C 54 ....._^.|$..|$.T
0041C580 8B 4E 10 8B 56 08 8B C3 E8 2B EC FF FF 8B D3 8B .N..V....+......
0041C590 C3 8B 08 FF 51 10 83 C4 54 5F 5E 5B C3 8D 40 00 ....Q...T_^[..@.
0041C5A0 B1 01 E8 01 00 00 00 C3 53 56 57 55 81 C4 D4 FB ........SVWU....
0041C5B0 FF FF 8B D9 8B FA 8B F0 8D 44 24 10 33 C9 BA 0E .........D$.3...
0041C5C0 00 00 00 E8 58 6A FE FF 66 C7 44 24 10 42 4D 8B ....Xj..f.D$.BM.
0041C5D0 46 28 8B 68 6C 85 ED 74 38 8B C5 8B 10 FF 12 89 F(.hl..t8.......
0041C5E0 04 24 84 DB 74 0E 8B D4 B9 04 00 00 00 8B C7 E8 .$..t...........
0041C5F0 D8 98 FF FF 8B 46 28 8B 58 6C 8B C3 8B 10 FF 12 .....F(.Xl......
0041C600 8B C8 8B 53 04 8B C7 8B 18 FF 53 10 E9 3E 02 00 ...S......S..>..
0041C610 00 8B C6 E8 88 F1 FF FF 8B 6E 28 33 C0 89 04 24 .........n(3...$
0041C620 8B 45 14 85 C0 0F 84 18 01 00 00 8B 55 50 52 8D .E..........UPR.
0041C630 4C 24 04 8D 54 24 0C E8 D8 D7 FF FF 80 7D 70 00 L$..T$.......}p.
0041C640 74 22 C7 44 24 08 0C 00 00 00 66 8B 45 3E 66 83 t".D$.....f.E>f.
0041C650 F8 08 77 10 8B C8 B8 01 00 00 00 D3 E0 8D 04 40 ..w............@
0041C660 01 44 24 08 8B 44 24 08 83 C0 0E 01 04 24 8D 44 .D$..D$......$.D
0041C670 24 10 33 C9 BA 0E 00 00 00 E8 A2 69 FE FF 66 C7 $.3........i..f.
0041C680 44 24 10 42 4D 8B C6 E8 EC EE FF FF 8A 15 5C C8 D$.BM.........\.
0041C690 41 00 E8 F9 CC FF FF 8B 45 14 50 8B 46 2C 8B 40 A.......E.P.F,.@
0041C6A0 04 50 E8 11 A0 FE FF E8 F0 CF FF FF 89 44 24 0C .P...........D$.
0041C6B0 8D 44 24 2A 50 68 00 01 00 00 6A 00 8B 46 2C 8B .D$*Ph....j..F,.
0041C6C0 40 04 50 E8 88 9F FE FF 89 44 24 04 8B 44 24 0C @.P......D$..D$.
0041C6D0 50 8B 46 2C 8B 40 04 50 E8 DB 9F FE FF 8B 45 50 P.F,.@.P......EP
0041C6E0 85 C0 76 0A 3B 44 24 04 73 04 89 44 24 04 80 7D ..v.;D$.s..D$..}
0041C6F0 70 00 75 3D 83 7C 24 04 00 75 36 83 7D 10 00 74 p.u=.|$..u6.}..t
0041C700 30 80 7D 71 00 75 2A 8D 54 24 2A B9 FF 00 00 00 0.}q.u*.T$*.....
0041C710 8B 45 10 E8 C4 D5 FF FF 89 44 24 04 66 83 7D 3E .E.......D$.f.}>
0041C720 08 76 0E 8B 44 24 04 C1 E0 02 01 04 24 01 44 24 .v..D$......$.D$
0041C730 08 8B 04 24 89 44 24 12 8B 44 24 08 83 C0 0E 89 ...$.D$..D$.....
0041C740 44 24 1A 84 DB 74 0E 8B D4 B9 04 00 00 00 8B C7 D$...t..........
0041C750 E8 77 97 FF FF 83 3C 24 00 0F 84 F0 00 00 00 8D .w....<$........
0041C760 45 18 E8 95 DF FF FF 83 7C 24 04 00 74 27 8B 45 E.......|$..t'.E
0041C770 50 85 C0 74 06 3B 44 24 04 74 07 8B 44 24 04 89 P..t.;D$.t..D$..
0041C780 45 50 80 7D 70 00 74 0D 8D 54 24 04 8D 44 24 2A EP.}p.t..T$..D$*
0041C790 E8 27 D2 FF FF 80 7D 70 00 74 4F 8D 45 30 C7 44 .'....}p.tO.E0.D
0041C7A0 24 1E 0C 00 00 00 66 8B 50 04 66 89 54 24 22 66 $.....f.P.f.T$"f
0041C7B0 8B 50 08 66 89 54 24 24 66 C7 44 24 26 01 00 66 .P.f.T$$f.D$&..f
0041C7C0 8B 40 0E 66 89 44 24 28 8D 54 24 10 B9 0E 00 00 .@.f.D$(.T$.....
0041C7D0 00 8B C7 E8 F4 96 FF FF 8D 54 24 1E B9 0C 00 00 .........T$.....
0041C7E0 00 8B C7 E8 E4 96 FF FF EB 3B 8D 54 24 10 B9 0E .........;.T$...
0041C7F0 00 00 00 8B C7 E8 D2 96 FF FF 8D 55 30 B9 28 00 ...........U0.(.
0041C800 00 00 8B C7 E8 C3 96 FF FF 66 83 7D 3E 08 76 15 .........f.}>.v.
0041C810 F6 45 40 03 74 0F 8D 55 58 B9 0C 00 00 00 8B C7 .E@.t..UX.......
0041C820 E8 A7 96 FF FF 33 C0 8A 45 70 33 C9 8A 88 74 86 .....3..Ep3...t.
0041C830 42 00 0F AF 4C 24 04 8D 54 24 2A 8B C7 E8 8A 96 B...L$..T$*.....
0041C840 FF FF 8B 55 2C 8B 4D 44 8B C7 E8 7D 96 FF FF 81 ...U,.MD...}....
0041C850 C4 2C 04 00 00 5D 5F 5E 5B C3 00 00 01 00 00 00 .,...]_^[.......
0041C860 33 C9 E8 41 FD FF FF C3 55 8B EC 83 C4 A8 53 56 3..A....U.....SV
0041C870 57 89 4D FC 8B D8 66 C7 02 02 00 8B C3 E8 A2 EF W.M...f.........
0041C880 FF FF 8B 73 28 56 83 C6 18 8D 7D A8 B9 15 00 00 ...s(V....}.....
0041C890 00 F3 A5 5E 33 C0 89 45 C0 33 C0 89 45 BC 8D 45 ...^3..E.3..E..E
0041C8A0 A8 50 8B 43 2C 50 8B 7E 10 8B CF 8B D7 8B 46 08 .P.C,P.~......F.
0041C8B0 E8 93 DE FF FF 8B 55 FC 89 02 33 C0 55 68 E2 C8 ......U...3.Uh..
0041C8C0 41 00 64 FF 30 64 89 20 8B 43 28 8B 40 10 E8 D9 A.d.0d. .C(.@...
0041C8D0 E4 FF FF 8B 55 08 89 02 33 C0 5A 59 59 64 89 10 ....U...3.ZYYd..
0041C8E0 EB 1A E9 11 72 FE FF 8B 45 FC 8B 00 50 E8 3E 9D ....r...E...P.>.
0041C8F0 FE FF E8 8D 73 FE FF E8 DC 73 FE FF 5F 5E 5B 8B ....s....s.._^[.
0041C900 E5 5D C2 04 00 8D 40 00 53 6A 00 E8 38 9E FE FF .]....@.Sj..8...
0041C910 8B D8 6A 5A 53 E8 46 9D FE FF A3 8C B8 42 00 53 ..jZS.F......B.S
0041C920 6A 00 E8 51 9E FE FF B8 78 86 42 00 BA 0F 00 00 j..Q....x.B.....
0041C930 00 E8 52 D1 FF FF A3 84 B8 42 00 5B C3 8D 40 00 ..R......B.[..@.
0041C940 53 56 83 C4 C8 B3 01 6A 00 E8 FA 9D FE FF 8B F0 SV.....j........
0041C950 85 F6 74 27 A1 98 B8 42 00 50 56 E8 58 9D FE FF ..t'...B.PV.X...
0041C960 85 C0 74 0F 54 56 E8 25 9D FE FF 85 C0 74 04 8A ..t.TV.%.....t..
0041C970 5C 24 34 56 6A 00 E8 FD 9D FE FF 8B C3 83 C4 38 \$4Vj..........8
0041C980 5E 5B C3 90 53 56 57 6A 48 A1 8C B8 42 00 50 6A ^[..SVWjH...B.Pj
0041C990 08 E8 B2 9B FE FF F7 D8 A3 B0 83 42 00 A1 E4 A9 ...........B....
0041C9A0 42 00 80 78 0C 00 74 37 E8 93 FF FF FF 8B D8 8B B..x..t7........
0041C9B0 C3 2C 80 75 2A BE E4 C9 41 00 BF B7 83 42 00 A5 .,.u*...A....B..
0041C9C0 A5 A5 A5 6A 48 A1 8C B8 42 00 50 6A 09 E8 76 9B ...jH...B.Pj..v.
0041C9D0 FE FF F7 D8 A3 B0 83 42 00 88 1D B6 83 42 00 5F .......B.....B._
0041C9E0 5E 5B C3 00 0F 82 6C 82 72 20 82 6F 83 53 83 56 ^[....l.r .o.S.V
0041C9F0 83 62 83 4E 40 CA 41 00 00 00 00 00 00 00 00 00 .b.N@.A.........
0041CA00 00 00 00 00 00 00 00 00 00 00 00 00 00 00 00 00 ................
0041CA10 00 00 00 00 40 CA 41 00 20 00 00 00 60 10 40 00 ....@.A. ...`.@.
0041CA20 54 39 40 00 60 39 40 00 64 39 40 00 68 39 40 00 T9@.`9@.d9@.h9@.
0041CA30 5C 39 40 00 B8 36 40 00 D4 36 40 00 88 CA 41 00 \9@..6@..6@...A.
0041CA40 0F 54 50 61 74 74 65 72 6E 4D 61 6E 61 67 65 72 .TPatternManager
0041CA50 53 56 84 D2 74 08 83 C4 F0 E8 32 6F FE FF 8B DA SV..t.....2o....
0041CA60 8B F0 8D 46 08 50 E8 C5 9A FE FF 8B C6 84 DB 74 ...F.P.........t
0041CA70 0F E8 72 6F FE FF 64 8F 05 00 00 00 00 83 C4 0C ..ro..d.........
0041CA80 8B C6 5E 5B C3 8D 40 00 53 56 E8 69 6F FE FF 8B ..^[..@.SV.io...
0041CA90 DA 8B F0 8B C6 E8 32 00 00 00 8D 46 08 50 E8 6D ......2....F.P.m
0041CAA0 99 FE FF 84 DB 7E 07 8B C6 E8 32 6F FE FF 5E 5B .....~....2o..^[
0041CAB0 C3 8D 40 00 83 C0 08 50 E8 5B 99 FE FF C3 8B C0 ..@....P.[......
0041CAC0 83 C0 08 50 E8 6F 9A FE FF C3 8B C0 55 8B EC 83 ...P.o......U...
0041CAD0 C4 F4 53 56 89 45 FC EB 60 89 5D F8 8B 45 F8 89 ..SV.E..`.]..E..
0041CAE0 45 F4 8B 45 FC E8 CA FF FF FF 33 C0 55 68 19 CB E..E......3.Uh..
0041CAF0 41 00 64 FF 30 64 89 20 8B 45 F4 8B 00 8B 55 FC A.d.0d. .E....U.
0041CB00 89 42 04 33 C0 5A 59 59 64 89 10 68 20 CB 41 00 .B.3.ZYYd..h .A.
0041CB10 8B 45 FC E8 A8 FF FF FF C3 E9 06 71 FE FF EB F0 .E.........q....
0041CB20 8B 45 F4 8B 70 04 85 F6 74 07 8B C6 E8 EF 6B FE .E..p...t.....k.
0041CB30 FF 8B 45 F8 E8 1F 5F FE FF 8B 45 FC 8B 58 04 85 ..E..._...E..X..
0041CB40 DB 75 96 5E 5B 8B E5 5D C3 8D 40 00 55 8B EC 33 .u.^[..]..@.U..3
0041CB50 C0 55 68 15 CC 41 00 64 FF 30 64 89 20 FF 05 88 .Uh..A.d.0d. ...
0041CB60 B8 42 00 0F 85 9E 00 00 00 A1 E0 B8 42 00 E8 AD .B..........B...
0041CB70 6B FE FF A1 60 86 42 00 E8 A3 6B FE FF A1 5C 86 k...`.B...k...\.
0041CB80 42 00 E8 99 6B FE FF E8 CC D6 FF FF A1 64 86 42 B...k........d.B
0041CB90 00 E8 8A 6B FE FF A1 DC B8 42 00 E8 80 6B FE FF ...k.....B...k..
0041CBA0 A1 D0 B8 42 00 E8 76 6B FE FF A1 D4 B8 42 00 E8 ...B..vk.....B..
0041CBB0 6C 6B FE FF A1 D8 B8 42 00 E8 62 6B FE FF A1 84 lk.....B..bk....
0041CBC0 B8 42 00 50 E8 67 9A FE FF 68 A0 B8 42 00 E8 3D .B.P.g...h..B..=
0041CBD0 98 FE FF 68 B8 B8 42 00 E8 33 98 FE FF B8 7C 85 ...h..B..3....|.
0041CBE0 42 00 B9 12 00 00 00 8B 15 AC 3C 41 00 E8 BA 80 B.........<A....
0041CBF0 FE FF B8 DC 83 42 00 B9 34 00 00 00 8B 15 AC 3C .....B..4......<
0041CC00 41 00 E8 A5 80 FE FF 33 C0 5A 59 59 64 89 10 68 A......3.ZYYd..h
0041CC10 1C CC 41 00 C3 E9 0A 70 FE FF EB F8 5D C3 8B C0 ..A....p....]...
0041CC20 83 2D 88 B8 42 00 01 0F 83 ED 00 00 00 E8 D6 FC .-..B...........
0041CC30 FF FF 68 A0 B8 42 00 E8 F4 98 FE FF 68 B8 B8 42 ..h..B......h..B
0041CC40 00 E8 EA 98 FE FF 6A 07 E8 33 9A FE FF A3 90 B8 ......j..3......
0041CC50 42 00 6A 05 E8 27 9A FE FF A3 94 B8 42 00 6A 0D B.j..'......B.j.
0041CC60 E8 1B 9A FE FF A3 98 B8 42 00 68 00 7F 00 00 6A ........B.h....j
0041CC70 00 E8 EA 9A FE FF A3 9C B8 42 00 E8 04 FD FF FF .........B......
0041CC80 66 B9 2C 00 B2 01 A1 1C 7B 41 00 E8 00 AF FF FF f.,.....{A......
0041CC90 A3 D0 B8 42 00 66 B9 10 00 B2 01 A1 1C 7B 41 00 ...B.f.......{A.
0041CCA0 E8 EB AE FF FF A3 D4 B8 42 00 66 B9 10 00 B2 01 ........B.f.....
0041CCB0 A1 1C 7B 41 00 E8 D6 AE FF FF A3 D8 B8 42 00 B2 ..{A.........B..
0041CCC0 01 A1 F4 C9 41 00 E8 85 FD FF FF A3 E0 B8 42 00 ....A.........B.
0041CCD0 B2 01 A1 DC 35 41 00 E8 B8 77 FF FF A3 64 86 42 ....5A...w...d.B
0041CCE0 00 B2 01 A1 DC 35 41 00 E8 A7 77 FF FF A3 DC B8 .....5A...w.....
0041CCF0 42 00 B9 E4 82 41 00 BA F4 82 41 00 A1 8C 6F 41 B....A....A...oA
0041CD00 00 E8 36 74 FF FF B9 EC 84 41 00 BA FC 84 41 00 ..6t.....A....A.
0041CD10 A1 BC 70 41 00 E8 22 74 FF FF C3 90 68 CD 41 00 ..pA.."t....h.A.
0041CD20 00 00 00 00 00 00 00 00 00 00 00 00 E8 CD 41 00 ..............A.
0041CD30 00 00 00 00 00 00 00 00 00 00 00 00 D8 CD 41 00 ..............A.
0041CD40 40 00 00 00 20 7A 41 00 54 39 40 00 2C 48 41 00 @... zA.T9@.,HA.
0041CD50 64 39 40 00 68 39 40 00 5C 39 40 00 B8 36 40 00 d9@.h9@.\9@..6@.
0041CD60 D4 36 40 00 84 B0 41 00 6C 47 41 00 20 9F 41 00 .6@...A.lGA. .A.
0041CD70 C0 B0 41 00 BC 48 41 00 9C B2 41 00 A8 B2 41 00 ..A..HA...A...A.
0041CD80 6C 9F 41 00 5C B5 41 00 10 B6 41 00 50 B6 41 00 l.A.\.A...A.P.A.
0041CD90 B8 A0 41 00 98 B7 41 00 84 BB 41 00 BC C2 41 00 ..A...A...A...A.
0041CDA0 10 C3 41 00 A0 A1 41 00 4C C5 41 00 A0 C5 41 00 ..A...A.L.A...A.
0041CDB0 1C B0 41 00 BC A0 41 00 44 A1 41 00 60 BA 41 00 ..A...A.D.A.`.A.
0041CDC0 60 C8 41 00 DC B9 41 00 68 C8 41 00 C0 B5 41 00 `.A...A.h.A...A.
0041CDD0 20 B6 41 00 84 C1 41 00 09 54 42 69 74 6D 61 70  .A...A..TBitmap
0041CDE0 45 78 8B C0 E8 CD 41 00 07 09 54 42 69 74 6D 61 Ex....A...TBitma
0041CDF0 70 45 78 68 CD 41 00 E4 7A 41 00 00 00 08 42 69 pExh.A..zA....Bi
0041CE00 74 6D 61 70 45 78 00 00                         tmapEx..       

;; fn0041CE08: 0041CE08
;;   Called from:
;;     00426E57 (in fn00426C30)
;;     00427332 (in fn0042718C)
fn0041CE08 proc
	push	ebx
	push	esi
	push	edi
	push	ebp
	add	esp,F0
	mov	ebx,eax
	lea	edi,[esp+04]
	mov	dl,06
	mov	eax,ebx
	call	0041C3E4
	mov	eax,ebx
	mov	edx,[eax]
	call	dword ptr [edx+20]
	dec	eax
	test	eax,eax
	jl	0041CEB5

l0041CE2E:
	inc	eax
	mov	[esp+0C],eax
	xor	esi,esi

l0041CE35:
	mov	edx,esi
	mov	eax,ebx
	call	0041B6E8
	mov	[esp],eax
	mov	edx,esi
	mov	eax,ebx
	call	0041B6E8
	mov	[edi],eax
	mov	eax,ebx
	mov	edx,[eax]
	call	dword ptr [edx+2C]
	dec	eax
	lea	eax,[eax+eax*2]
	add	[edi],eax
	mov	eax,ebx
	mov	edx,[eax]
	call	dword ptr [edx+2C]
	dec	eax
	sar	eax,01
	jns	0041CE68

l0041CE65:
	adc	eax,00

l0041CE68:
	test	eax,eax
	jl	0041CEAE

l0041CE6C:
	inc	eax

l0041CE6D:
	mov	edx,[esp]
	mov	cx,[edx]
	mov	[esp+08],cx
	mov	cl,[edx+02]
	mov	[esp+0A],cl
	mov	edx,[esp]
	mov	ecx,[edi]
	mov	ebp,edx
	mov	dx,[ecx]
	mov	[ebp+00],dx
	mov	dl,[ecx+02]
	mov	[ebp+02],dl
	mov	edx,[edi]
	mov	cx,[esp+08]
	mov	[edx],cx
	mov	cl,[esp+0A]
	mov	[edx+02],cl
	add	dword ptr [esp],03
	sub	dword ptr [edi],03
	dec	eax
	jnz	0041CE6D

l0041CEAE:
	inc	esi
	dec	dword ptr [esp+0C]
	jnz	0041CE35

l0041CEB5:
	add	esp,10
	pop	ebp
	pop	edi
	pop	esi
	pop	ebx
	ret
0041CEBD                                        8D 40 00              .@.

;; fn0041CEC0: 0041CEC0
;;   Called from:
;;     00427674 (in fn00427488)
fn0041CEC0 proc
	push	ebx
	push	esi
	push	edi
	push	ebp
	add	esp,F4
	mov	ebx,eax
	mov	edi,esp
	mov	dl,06
	mov	eax,ebx
	call	0041C3E4
	mov	eax,ebx
	mov	edx,[eax]
	call	dword ptr [edx+20]
	dec	eax
	sar	eax,01
	jns	0041CEE3

l0041CEE0:
	adc	eax,00

l0041CEE3:
	test	eax,eax
	jl	0041CF45

l0041CEE7:
	inc	eax
	mov	[esp+08],eax
	xor	esi,esi

l0041CEEE:
	mov	edx,esi
	mov	eax,ebx
	call	0041B6E8
	mov	[edi],eax
	mov	eax,ebx
	mov	edx,[eax]
	call	dword ptr [edx+20]
	mov	edx,eax
	dec	edx
	sub	edx,esi
	mov	eax,ebx
	call	0041B6E8
	mov	[esp+04],eax
	mov	eax,ebx
	mov	edx,[eax]
	call	dword ptr [edx+2C]
	lea	eax,[eax+eax*2]
	dec	eax
	test	eax,eax
	jl	0041CF3E

l0041CF1F:
	inc	eax

l0041CF20:
	mov	edx,[edi]
	mov	dl,[edx]
	mov	ecx,[esp+04]
	mov	cl,[ecx]
	mov	ebp,[edi]
	mov	[ebp+00],cl
	mov	ecx,[esp+04]
	mov	[ecx],dl
	inc	dword ptr [edi]
	inc	dword ptr [esp+04]
	dec	eax
	jnz	0041CF20

l0041CF3E:
	inc	esi
	dec	dword ptr [esp+08]
	jnz	0041CEEE

l0041CF45:
	add	esp,0C
	pop	ebp
	pop	edi
	pop	esi
	pop	ebx
	ret
0041CF4D                                        8D 40 00              .@.

;; fn0041CF50: 0041CF50
;;   Called from:
;;     00426EA7 (in fn00426C30)
;;     00427382 (in fn0042718C)
fn0041CF50 proc
	push	ebx
	push	esi
	push	edi
	mov	edi,ecx
	mov	esi,edx
	mov	ebx,eax
	push	00CC0020
	push	00
	push	esi
	mov	eax,ebx
	call	0041B578
	call	004192BC
	push	eax
	mov	eax,ebx
	mov	edx,[eax]
	call	dword ptr [edx+20]
	push	eax
	mov	eax,ebx
	mov	edx,[eax]
	call	dword ptr [edx+2C]
	sub	eax,esi
	sub	eax,edi
	push	eax
	push	00
	push	00
	mov	eax,ebx
	call	0041B578
	call	004192BC
	push	eax
	call	004065D0
	mov	eax,ebx
	mov	edx,[eax]
	call	dword ptr [edx+2C]
	mov	edx,eax
	sub	edx,esi
	sub	edx,edi
	mov	eax,ebx
	mov	ecx,[eax]
	call	dword ptr [ecx+40]
	pop	edi
	pop	esi
	pop	ebx
	ret

;; fn0041CFB0: 0041CFB0
;;   Called from:
;;     004276C4 (in fn00427488)
fn0041CFB0 proc
	push	ebx
	push	esi
	push	edi
	mov	edi,ecx
	mov	esi,edx
	mov	ebx,eax
	push	00CC0020
	push	esi
	push	00
	mov	eax,ebx
	call	0041B578
	call	004192BC
	push	eax
	mov	eax,ebx
	mov	edx,[eax]
	call	dword ptr [edx+20]
	sub	eax,esi
	sub	eax,edi
	push	eax
	mov	eax,ebx
	mov	edx,[eax]
	call	dword ptr [edx+2C]
	push	eax
	push	00
	push	00
	mov	eax,ebx
	call	0041B578
	call	004192BC
	push	eax
	call	004065D0
	mov	eax,ebx
	mov	edx,[eax]
	call	dword ptr [edx+20]
	mov	edx,eax
	sub	edx,esi
	sub	edx,edi
	mov	eax,ebx
	mov	ecx,[eax]
	call	dword ptr [ecx+34]
	pop	edi
	pop	esi
	pop	ebx
	ret

;; fn0041D010: 0041D010
;;   Called from:
;;     00426E8B (in fn00426C30)
;;     00427366 (in fn0042718C)
fn0041D010 proc
	push	ebx
	push	esi
	mov	esi,edx
	mov	ebx,eax
	push	00CC0020
	push	00
	push	esi
	mov	eax,ebx
	call	0041B578
	call	004192BC
	push	eax
	mov	eax,ebx
	mov	edx,[eax]
	call	dword ptr [edx+20]
	push	eax
	mov	eax,ebx
	mov	edx,[eax]
	call	dword ptr [edx+2C]
	sub	eax,esi
	push	eax
	push	00
	push	00
	mov	eax,ebx
	call	0041B578
	call	004192BC
	push	eax
	call	004065D0
	mov	eax,ebx
	mov	edx,[eax]
	call	dword ptr [edx+2C]
	mov	edx,eax
	sub	edx,esi
	mov	eax,ebx
	mov	ecx,[eax]
	call	dword ptr [ecx+40]
	pop	esi
	pop	ebx
	ret

;; fn0041D068: 0041D068
;;   Called from:
;;     00426E6A (in fn00426C30)
;;     00427345 (in fn0042718C)
fn0041D068 proc
	push	ebx
	push	esi
	mov	esi,edx
	mov	ebx,eax
	push	00CC0020
	push	00
	push	00
	mov	eax,ebx
	call	0041B578
	call	004192BC
	push	eax
	mov	eax,ebx
	mov	edx,[eax]
	call	dword ptr [edx+20]
	push	eax
	mov	eax,ebx
	mov	edx,[eax]
	call	dword ptr [edx+2C]
	sub	eax,esi
	push	eax
	push	00
	push	00
	mov	eax,ebx
	call	0041B578
	call	004192BC
	push	eax
	call	004065D0
	mov	eax,ebx
	mov	edx,[eax]
	call	dword ptr [edx+2C]
	mov	edx,eax
	sub	edx,esi
	mov	eax,ebx
	mov	ecx,[eax]
	call	dword ptr [ecx+40]
	pop	esi
	pop	ebx
	ret
0041D0C1    8D 40 00                                      .@.           

;; fn0041D0C4: 0041D0C4
;;   Called from:
;;     004276A8 (in fn00427488)
fn0041D0C4 proc
	push	ebx
	push	esi
	mov	esi,edx
	mov	ebx,eax
	push	00CC0020
	push	esi
	push	00
	mov	eax,ebx
	call	0041B578
	call	004192BC
	push	eax
	mov	eax,ebx
	mov	edx,[eax]
	call	dword ptr [edx+20]
	sub	eax,esi
	push	eax
	mov	eax,ebx
	mov	edx,[eax]
	call	dword ptr [edx+2C]
	push	eax
	push	00
	push	00
	mov	eax,ebx
	call	0041B578
	call	004192BC
	push	eax
	call	004065D0
	mov	eax,ebx
	mov	edx,[eax]
	call	dword ptr [edx+20]
	mov	edx,eax
	sub	edx,esi
	mov	eax,ebx
	mov	ecx,[eax]
	call	dword ptr [ecx+34]
	pop	esi
	pop	ebx
	ret

;; fn0041D11C: 0041D11C
;;   Called from:
;;     00427687 (in fn00427488)
fn0041D11C proc
	push	ebx
	push	esi
	mov	esi,edx
	mov	ebx,eax
	push	00CC0020
	push	00
	push	00
	mov	eax,ebx
	call	0041B578
	call	004192BC
	push	eax
	mov	eax,ebx
	mov	edx,[eax]
	call	dword ptr [edx+20]
	sub	eax,esi
	push	eax
	mov	eax,ebx
	mov	edx,[eax]
	call	dword ptr [edx+2C]
	push	eax
	push	00
	push	00
	mov	eax,ebx
	call	0041B578
	call	004192BC
	push	eax
	call	004065D0
	mov	eax,ebx
	mov	edx,[eax]
	call	dword ptr [edx+20]
	mov	edx,eax
	sub	edx,esi
	mov	eax,ebx
	mov	ecx,[eax]
	call	dword ptr [ecx+34]
	pop	esi
	pop	ebx
	ret
0041D175                8D 40 00                              .@.       

;; fn0041D178: 0041D178
;;   Called from:
;;     00426D3B (in fn00426C30)
;;     00426F2D (in fn00426C30)
;;     00426F58 (in fn00426C30)
;;     00426F96 (in fn00426C30)
;;     00426FF2 (in fn00426C30)
;;     00427053 (in fn00426C30)
fn0041D178 proc
	push	ebp
	mov	ebp,esp
	push	ebx
	push	esi
	push	edi
	mov	edi,ecx
	mov	esi,edx
	mov	ebx,eax
	push	00CC0020
	mov	eax,[ebp+08]
	push	eax
	mov	eax,[ebp+0C]
	push	eax
	mov	eax,[ebp+10]
	call	0041B578
	call	004192BC
	push	eax
	mov	eax,[ebp+14]
	push	eax
	mov	eax,[ebp+18]
	push	eax
	push	edi
	push	esi
	mov	eax,ebx
	call	0041B578
	call	004192BC
	push	eax
	call	004065D0
	cmp	eax,01
	sbb	eax,eax
	inc	eax
	pop	edi
	pop	esi
	pop	ebx
	pop	ebp
	ret	0014

;; fn0041D1C8: 0041D1C8
;;   Called from:
;;     00426EC6 (in fn00426C30)
;;     00427393 (in fn0042718C)
;;     004276D5 (in fn00427488)
fn0041D1C8 proc
	push	ebp
	mov	ebp,esp
	push	ebx
	push	esi
	push	edi
	mov	edi,ecx
	mov	esi,edx
	mov	ebx,eax
	push	00CC0020
	push	00
	push	00
	mov	eax,ebx
	call	0041B578
	call	004192BC
	push	eax
	mov	eax,ebx
	mov	edx,[eax]
	call	dword ptr [edx+20]
	push	eax
	mov	eax,ebx
	mov	edx,[eax]
	call	dword ptr [edx+2C]
	push	eax
	push	edi
	push	esi
	mov	eax,[ebp+08]
	call	0041B578
	call	004192BC
	push	eax
	call	004065D0
	cmp	eax,01
	sbb	eax,eax
	inc	eax
	pop	edi
	pop	esi
	pop	ebx
	pop	ebp
	ret	0004
0041D21C                                     55 8B EC 33             U..3
0041D220 C0 55 68 41 D2 41 00 64 FF 30 64 89 20 FF 05 E4 .UhA.A.d.0d. ...
0041D230 B8 42 00 33 C0 5A 59 59 64 89 10 68 48 D2 41 00 .B.3.ZYYd..hH.A.
0041D240 C3 E9 DE 69 FE FF EB F8 5D C3 8B C0 83 2D E4 B8 ...i....]....-..
0041D250 42 00 01 C3 55 8B EC 33 C0 55 68 79 D2 41 00 64 B...U..3.Uhy.A.d
0041D260 FF 30 64 89 20 FF 05 E8 B8 42 00 33 C0 5A 59 59 .0d. ....B.3.ZYY
0041D270 64 89 10 68 80 D2 41 00 C3 E9 A6 69 FE FF EB F8 d..h..A....i....
0041D280 5D C3 8B C0 83 2D E8 B8 42 00 01 C3 D8 D2 41 00 ]....-..B.....A.
0041D290 00 00 00 00 00 00 00 00 00 00 00 00 00 00 00 00 ................
0041D2A0 00 00 00 00 00 00 00 00 00 00 00 00 E8 D2 41 00 ..............A.
0041D2B0 14 00 00 00 78 35 41 00 54 39 40 00 60 39 40 00 ....x5A.T9@.`9@.
0041D2C0 64 39 40 00 68 39 40 00 5C 39 40 00 B8 36 40 00 d9@.h9@.\9@..6@.
0041D2D0 D4 36 40 00 EC 41 41 00 70 43 41 00 4C D3 41 00 .6@..AA.pCA.L.A.
0041D2E0 40 42 41 00 BC 42 41 00 0B 54 4F 62 6A 65 63 74 @BA..BA..TObject
0041D2F0 4C 69 73 74 E8 13 6F FF FF C3 8B C0 53 56 84 D2 List..o.....SV..
0041D300 74 08 83 C4 F0 E8 86 66 FE FF 8B DA 8B F0 33 D2 t......f......3.
0041D310 8B C6 E8 D9 63 FE FF C6 46 10 01 8B C6 84 DB 74 ....c...F......t
0041D320 0F E8 C2 66 FE FF 64 8F 05 00 00 00 00 83 C4 0C ...f..d.........
0041D330 8B C6 5E 5B C3 8D 40 00 53 56 8B F2 8B D8 8B D6 ..^[..@.SV......
0041D340 8B C3 E8 01 70 FF FF 5E 5B C3 8B C0 53 56 57 8B ....p..^[...SVW.
0041D350 D9 8B FA 8B F0 80 7E 10 00 74 0C 80 FB 02 75 07 ......~..t....u.
0041D360 8B C7 E8 B9 63 FE FF 8B CB 8B D7 8B C6 E8 1E 71 ....c..........q
0041D370 FF FF 5F 5E 5B C3 8B C0 55 8B EC 33 C0 55 68 9D .._^[...U..3.Uh.
0041D380 D3 41 00 64 FF 30 64 89 20 FF 05 EC B8 42 00 33 .A.d.0d. ....B.3
0041D390 C0 5A 59 59 64 89 10 68 A4 D3 41 00 C3 E9 82 68 .ZYYd..h..A....h
0041D3A0 FE FF EB F8 5D C3 8B C0 83 2D EC B8 42 00 01 C3 ....]....-..B...
0041D3B0 FC D3 41 00 00 00 00 00 00 00 00 00 00 00 00 00 ..A.............
0041D3C0 00 00 00 00 00 00 00 00 00 00 00 00 00 00 00 00 ................
0041D3D0 04 D4 41 00 04 00 00 00 60 10 40 00 54 39 40 00 ..A.....`.@.T9@.
0041D3E0 60 39 40 00 64 39 40 00 68 39 40 00 5C 39 40 00 `9@.d9@.h9@.\9@.
0041D3F0 B8 36 40 00 D4 36 40 00 10 37 40 00 7C D4 41 00 .6@..6@..7@.|.A.
0041D400 80 D4 41 00 0E 54 53 79 6E 63 68 72 6F 4F 62 6A ..A..TSynchroObj
0041D410 65 63 74 90 60 D4 41 00 00 00 00 00 00 00 00 00 ect.`.A.........
0041D420 00 00 00 00 00 00 00 00 00 00 00 00 00 00 00 00 ................
0041D430 00 00 00 00 68 D4 41 00 1C 00 00 00 B0 D3 41 00 ....h.A.......A.
0041D440 54 39 40 00 60 39 40 00 64 39 40 00 68 39 40 00 T9@.`9@.d9@.h9@.
0041D450 5C 39 40 00 B8 36 40 00 D4 36 40 00 C4 D4 41 00 \9@..6@..6@...A.
0041D460 F4 D4 41 00 00 D5 41 00 10 54 43 72 69 74 69 63 ..A...A..TCritic
0041D470 61 6C 53 65 63 74 69 6F 6E 8D 40 00 C3 8D 40 00 alSection.@...@.
0041D480 C3 8D 40 00 53 56 84 D2 74 08 83 C4 F0 E8 FE 64 ..@.SV..t......d
0041D490 FE FF 8B DA 8B F0 33 D2 8B C6 E8 51 62 FE FF 8D ......3....Qb...
0041D4A0 46 04 50 E8 88 90 FE FF 8B C6 84 DB 74 0F E8 35 F.P.........t..5
0041D4B0 65 FE FF 64 8F 05 00 00 00 00 83 C4 0C 8B C6 5E e..d...........^
0041D4C0 5B C3 8B C0 53 56 E8 2D 65 FE FF 8B DA 8B F0 8D [...SV.-e.......
0041D4D0 46 04 50 E8 38 8F FE FF 8B D3 80 E2 FC 8B C6 E8 F.P.8...........
0041D4E0 2C 62 FE FF 84 DB 7E 07 8B C6 E8 F1 64 FE FF 5E ,b....~.....d..^
0041D4F0 5B C3 8B C0 83 C0 04 50 E8 1B 8F FE FF C3 8B C0 [......P........
0041D500 83 C0 04 50 E8 2F 90 FE FF C3 8B C0 55 8B EC 33 ...P./......U..3
0041D510 C0 55 68 31 D5 41 00 64 FF 30 64 89 20 FF 05 F0 .Uh1.A.d.0d. ...
0041D520 B8 42 00 33 C0 5A 59 59 64 89 10 68 38 D5 41 00 .B.3.ZYYd..h8.A.
0041D530 C3 E9 EE 66 FE FF EB F8 5D C3 8B C0 83 2D F0 B8 ...f....]....-..
0041D540 42 00 01 C3 68 B6 42 00 9E FF 00 00 68 B6 42 00 B...h.B.....h.B.
0041D550 9F FF 00 00 68 B6 42 00 80 FF 00 00 68 B6 42 00 ....h.B.....h.B.
0041D560 81 FF 00 00 68 B6 42 00 82 FF 00 00 68 B6 42 00 ....h.B.....h.B.
0041D570 83 FF 00 00 68 B6 42 00 84 FF 00 00 68 B6 42 00 ....h.B.....h.B.
0041D580 85 FF 00 00 68 B6 42 00 86 FF 00 00 68 B6 42 00 ....h.B.....h.B.
0041D590 87 FF 00 00 68 B6 42 00 88 FF 00 00 68 B6 42 00 ....h.B.....h.B.
0041D5A0 89 FF 00 00 68 B6 42 00 8A FF 00 00 68 B6 42 00 ....h.B.....h.B.
0041D5B0 8B FF 00 00 68 B6 42 00 8C FF 00 00 68 B6 42 00 ....h.B.....h.B.
0041D5C0 8D FF 00 00 68 B6 42 00 8E FF 00 00 68 B6 42 00 ....h.B.....h.B.
0041D5D0 8F FF 00 00 68 B6 42 00 70 FF 00 00 68 B6 42 00 ....h.B.p...h.B.
0041D5E0 71 FF 00 00 68 B6 42 00 72 FF 00 00 68 B6 42 00 q...h.B.r...h.B.
0041D5F0 73 FF 00 00 68 B6 42 00 74 FF 00 00 68 B6 42 00 s...h.B.t...h.B.
0041D600 75 FF 00 00 68 B6 42 00 76 FF 00 00 68 B6 42 00 u...h.B.v...h.B.
0041D610 77 FF 00 00 68 B6 42 00 78 FF 00 00 68 B6 42 00 w...h.B.x...h.B.
0041D620 79 FF 00 00 68 B6 42 00 7A FF 00 00 68 B6 42 00 y...h.B.z...h.B.
0041D630 7B FF 00 00 68 B6 42 00 7C FF 00 00 68 B6 42 00 {...h.B.|...h.B.
0041D640 7D FF 00 00 68 B6 42 00 7E FF 00 00 68 B6 42 00 }...h.B.~...h.B.
0041D650 7F FF 00 00 68 B6 42 00 60 FF 00 00 68 B6 42 00 ....h.B.`...h.B.
0041D660 61 FF 00 00 68 B6 42 00 62 FF 00 00 68 B6 42 00 a...h.B.b...h.B.
0041D670 63 FF 00 00 68 B6 42 00 64 FF 00 00 68 B6 42 00 c...h.B.d...h.B.
0041D680 65 FF 00 00 68 B6 42 00 66 FF 00 00 68 B6 42 00 e...h.B.f...h.B.
0041D690 67 FF 00 00 68 B6 42 00 68 FF 00 00 68 B6 42 00 g...h.B.h...h.B.
0041D6A0 69 FF 00 00 68 B6 42 00 6A FF 00 00 68 B6 42 00 i...h.B.j...h.B.
0041D6B0 6B FF 00 00 68 B6 42 00 6C FF 00 00 68 B6 42 00 k...h.B.l...h.B.
0041D6C0 6D FF 00 00 68 B6 42 00 6E FF 00 00 68 B6 42 00 m...h.B.n...h.B.
0041D6D0 6F FF 00 00 68 B6 42 00 50 FF 00 00 68 B6 42 00 o...h.B.P...h.B.
0041D6E0 51 FF 00 00 68 B6 42 00 52 FF 00 00 68 B6 42 00 Q...h.B.R...h.B.
0041D6F0 53 FF 00 00 68 B6 42 00 54 FF 00 00 68 B6 42 00 S...h.B.T...h.B.
0041D700 55 FF 00 00 68 B6 42 00 56 FF 00 00 68 B6 42 00 U...h.B.V...h.B.
0041D710 57 FF 00 00 68 B6 42 00 58 FF 00 00 68 B6 42 00 W...h.B.X...h.B.
0041D720 59 FF 00 00 68 B6 42 00 5A FF 00 00 68 B6 42 00 Y...h.B.Z...h.B.
0041D730 5B FF 00 00 68 B6 42 00 5C FF 00 00 68 B6 42 00 [...h.B.\...h.B.
0041D740 5D FF 00 00 68 B6 42 00 5E FF 00 00 68 B6 42 00 ]...h.B.^...h.B.
0041D750 5F FF 00 00 68 B6 42 00 40 FF 00 00 68 B6 42 00 _...h.B.@...h.B.
0041D760 41 FF 00 00 68 B6 42 00 42 FF 00 00 68 B6 42 00 A...h.B.B...h.B.
0041D770 43 FF 00 00 68 B6 42 00 44 FF 00 00 68 B6 42 00 C...h.B.D...h.B.
0041D780 45 FF 00 00 68 B6 42 00 46 FF 00 00 68 B6 42 00 E...h.B.F...h.B.
0041D790 47 FF 00 00 68 B6 42 00 48 FF 00 00 68 B6 42 00 G...h.B.H...h.B.
0041D7A0 49 FF 00 00 68 B6 42 00 4A FF 00 00 68 B6 42 00 I...h.B.J...h.B.
0041D7B0 4B FF 00 00 68 B6 42 00 4C FF 00 00 68 B6 42 00 K...h.B.L...h.B.
0041D7C0 4D FF 00 00 68 B6 42 00 4E FF 00 00 68 B6 42 00 M...h.B.N...h.B.
0041D7D0 4F FF 00 00 68 B6 42 00 30 FF 00 00 68 B6 42 00 O...h.B.0...h.B.
0041D7E0 31 FF 00 00 68 B6 42 00 32 FF 00 00 68 B6 42 00 1...h.B.2...h.B.
0041D7F0 33 FF 00 00 68 B6 42 00 34 FF 00 00 68 B6 42 00 3...h.B.4...h.B.
0041D800 35 FF 00 00 68 B6 42 00 36 FF 00 00 68 B6 42 00 5...h.B.6...h.B.
0041D810 37 FF 00 00 68 B6 42 00 38 FF 00 00 68 B6 42 00 7...h.B.8...h.B.
0041D820 39 FF 00 00 68 B6 42 00 3A FF 00 00 68 B6 42 00 9...h.B.:...h.B.
0041D830 3B FF 00 00 68 B6 42 00 3C FF 00 00 68 B6 42 00 ;...h.B.<...h.B.
0041D840 3D FF 00 00 68 B6 42 00 3E FF 00 00 68 B6 42 00 =...h.B.>...h.B.
0041D850 3F FF 00 00 68 B6 42 00 20 FF 00 00 68 B6 42 00 ?...h.B. ...h.B.
0041D860 21 FF 00 00 68 B6 42 00 22 FF 00 00 68 B6 42 00 !...h.B."...h.B.
0041D870 23 FF 00 00 68 B6 42 00 24 FF 00 00 68 B6 42 00 #...h.B.$...h.B.
0041D880 25 FF 00 00 68 B6 42 00 26 FF 00 00 68 B6 42 00 %...h.B.&...h.B.
0041D890 27 FF 00 00 68 B6 42 00 28 FF 00 00 68 B6 42 00 '...h.B.(...h.B.
0041D8A0 29 FF 00 00 68 B6 42 00 2A FF 00 00 68 B6 42 00 )...h.B.*...h.B.
0041D8B0 2B FF 00 00 24 55 52 4C 3A 20 68 74 74 70 73 3A +...$URL: https:
0041D8C0 2F 2F 6A 63 6C 2E 73 76 6E 2E 73 6F 75 72 63 65 //jcl.svn.source
0041D8D0 66 6F 72 67 65 2E 6E 65 74 2F 73 76 6E 72 6F 6F forge.net/svnroo
0041D8E0 74 2F 6A 63 6C 2F 74 61 67 73 2F 4A 43 4C 2D 32 t/jcl/tags/JCL-2
0041D8F0 2E 34 2D 42 75 69 6C 64 34 35 37 31 2F 6A 63 6C .4-Build4571/jcl
0041D900 2F 73 6F 75 72 63 65 2F 63 6F 6D 6D 6F 6E 2F 4A /source/common/J
0041D910 63 6C 52 65 73 6F 75 72 63 65 73 2E 70 61 73 20 clResources.pas 
0041D920 24 00 00 00 24 52 65 76 69 73 69 6F 6E 3A 20 33 $...$Revision: 3
0041D930 38 35 30 20 24 00 00 00 24 44 61 74 65 3A 20 32 850 $...$Date: 2
0041D940 30 31 32 2D 30 38 2D 32 38 20 31 36 3A 34 34 3A 012-08-28 16:44:
0041D950 31 37 20 2B 30 32 30 30 20 28 54 75 65 2C 20 32 17 +0200 (Tue, 2
0041D960 38 20 41 75 67 20 32 30 31 32 29 20 24 00 00 00 8 Aug 2012) $...
0041D970 4A 43 4C 5C 73 6F 75 72 63 65 5C 63 6F 6D 6D 6F JCL\source\commo
0041D980 6E 00 00 00 00 00 00 00 55 8B EC 33 C0 55 68 B9 n.......U..3.Uh.
0041D990 D9 41 00 64 FF 30 64 89 20 FF 05 F4 B8 42 00 75 .A.d.0d. ....B.u
0041D9A0 0A A1 68 B6 42 00 E8 6D 89 00 00 33 C0 5A 59 59 ..h.B..m...3.ZYY
0041D9B0 64 89 10 68 C0 D9 41 00 C3 E9 66 62 FE FF EB F8 d..h..A...fb....
0041D9C0 5D C3 8B C0 83 2D F4 B8 42 00 01 73 0F BA B8 86 ]....-..B..s....
0041D9D0 42 00 A1 68 B6 42 00 E8 20 89 00 00 C3 8D 40 00 B..h.B.. .....@.
0041D9E0 2C DA 41 00 00 00 00 00 00 00 00 00 00 00 00 00 ,.A.............
0041D9F0 00 00 00 00 00 00 00 00 00 00 00 00 00 00 00 00 ................
0041DA00 2C DA 41 00 0C 00 00 00 74 6B 40 00 54 39 40 00 ,.A.....tk@.T9@.
0041DA10 60 39 40 00 64 39 40 00 68 39 40 00 5C 39 40 00 `9@.d9@.h9@.\9@.
0041DA20 B8 36 40 00 D4 36 40 00 10 37 40 00 09 45 4A 63 .6@..6@..7@..EJc
0041DA30 6C 45 72 72 6F 72 8B C0 84 DA 41 00 00 00 00 00 lError....A.....
0041DA40 00 00 00 00 00 00 00 00 00 00 00 00 00 00 00 00 ................
0041DA50 00 00 00 00 00 00 00 00 84 DA 41 00 0C 00 00 00 ..........A.....
0041DA60 E0 D9 41 00 54 39 40 00 60 39 40 00 64 39 40 00 ..A.T9@.`9@.d9@.
0041DA70 68 39 40 00 5C 39 40 00 B8 36 40 00 D4 36 40 00 h9@.\9@..6@..6@.
0041DA80 10 37 40 00 11 45 4A 63 6C 49 6E 74 65 72 6E 61 .7@..EJclInterna
0041DA90 6C 45 72 72 6F 72 8B C0 9C DA 41 00 11 0A 54 55 lError....A...TU
0041DAA0 43 53 34 41 72 72 61 79 04 00 00 00 00 00 00 00 CS4Array........
0041DAB0 03 00 00 00 2C 10 40 00 07 4A 63 6C 42 61 73 65 ....,.@..JclBase
0041DAC0 24 55 52 4C 3A 20 68 74 74 70 73 3A 2F 2F 6A 63 $URL: https://jc
0041DAD0 6C 2E 73 76 6E 2E 73 6F 75 72 63 65 66 6F 72 67 l.svn.sourceforg
0041DAE0 65 2E 6E 65 74 2F 73 76 6E 72 6F 6F 74 2F 6A 63 e.net/svnroot/jc
0041DAF0 6C 2F 74 61 67 73 2F 4A 43 4C 2D 32 2E 34 2D 42 l/tags/JCL-2.4-B
0041DB00 75 69 6C 64 34 35 37 31 2F 6A 63 6C 2F 73 6F 75 uild4571/jcl/sou
0041DB10 72 63 65 2F 63 6F 6D 6D 6F 6E 2F 4A 63 6C 42 61 rce/common/JclBa
0041DB20 73 65 2E 70 61 73 20 24 00 00 00 00 24 52 65 76 se.pas $....$Rev
0041DB30 69 73 69 6F 6E 3A 20 33 38 36 35 20 24 00 00 00 ision: 3865 $...
0041DB40 24 44 61 74 65 3A 20 32 30 31 32 2D 30 39 2D 30 $Date: 2012-09-0
0041DB50 35 20 32 30 3A 30 30 3A 33 33 20 2B 30 32 30 30 5 20:00:33 +0200
0041DB60 20 28 57 65 64 2C 20 30 35 20 53 65 70 20 32 30  (Wed, 05 Sep 20
0041DB70 31 32 29 20 24 00 00 00 4A 43 4C 5C 73 6F 75 72 12) $...JCL\sour
0041DB80 63 65 5C 63 6F 6D 6D 6F 6E 00 00 00 00 00 00 00 ce\common.......
0041DB90 83 C4 EC 33 C0 89 04 24 54 6A 00 E8 D0 88 FE FF ...3...$Tj......
0041DBA0 85 C0 74 0B 8A 44 24 04 A2 F8 B8 42 00 EB 17 8B ..t..D$....B....
0041DBB0 0D 74 A9 42 00 B2 01 A1 38 DA 41 00 E8 03 D5 FE .t.B....8.A.....
0041DBC0 FF E8 96 60 FE FF 83 C4 14 C3 8B C0 55 8B EC 33 ...`........U..3
0041DBD0 C0 55 68 FD DB 41 00 64 FF 30 64 89 20 FF 05 FC .Uh..A.d.0d. ...
0041DBE0 B8 42 00 75 0A A1 68 B6 42 00 E8 29 87 00 00 33 .B.u..h.B..)...3
0041DBF0 C0 5A 59 59 64 89 10 68 04 DC 41 00 C3 E9 22 60 .ZYYd..h..A..."`
0041DC00 FE FF EB F8 5D C3 8B C0 83 2D FC B8 42 00 01 73 ....]....-..B..s
0041DC10 14 E8 7A FF FF FF BA D0 86 42 00 A1 68 B6 42 00 ..z......B..h.B.
0041DC20 E8 D7 86 00 00 C3 8B C0 55 8B EC 33 C0 55 68 4D ........U..3.UhM
0041DC30 DC 41 00 64 FF 30 64 89 20 FF 05 00 B9 42 00 33 .A.d.0d. ....B.3
0041DC40 C0 5A 59 59 64 89 10 68 54 DC 41 00 C3 E9 D2 5F .ZYYd..hT.A...._
0041DC50 FE FF EB F8 5D C3 8B C0 83 2D 00 B9 42 00 01 C3 ....]....-..B...
0041DC60 AC DC 41 00 00 00 00 00 00 00 00 00 AC DC 41 00 ..A...........A.
0041DC70 00 00 00 00 00 00 00 00 00 00 00 00 00 00 00 00 ................
0041DC80 BE DC 41 00 14 00 00 00 E0 D9 41 00 54 39 40 00 ..A.......A.T9@.
0041DC90 60 39 40 00 64 39 40 00 68 39 40 00 5C 39 40 00 `9@.d9@.h9@.\9@.
0041DCA0 B8 36 40 00 D4 36 40 00 10 37 40 00 0E 00 00 00 .6@..6@..7@.....
0041DCB0 00 00 01 00 00 00 44 10 40 00 10 00 00 00 0E 45 ......D.@......E
0041DCC0 4A 63 6C 57 69 6E 33 32 45 72 72 6F 72 8D 40 00 JclWin32Error.@.
0041DCD0 24 55 52 4C 3A 20 68 74 74 70 73 3A 2F 2F 6A 63 $URL: https://jc
0041DCE0 6C 2E 73 76 6E 2E 73 6F 75 72 63 65 66 6F 72 67 l.svn.sourceforg
0041DCF0 65 2E 6E 65 74 2F 73 76 6E 72 6F 6F 74 2F 6A 63 e.net/svnroot/jc
0041DD00 6C 2F 74 61 67 73 2F 4A 43 4C 2D 32 2E 34 2D 42 l/tags/JCL-2.4-B
0041DD10 75 69 6C 64 34 35 37 31 2F 6A 63 6C 2F 73 6F 75 uild4571/jcl/sou
0041DD20 72 63 65 2F 77 69 6E 64 6F 77 73 2F 4A 63 6C 57 rce/windows/JclW
0041DD30 69 6E 33 32 2E 70 61 73 20 24 00 00 24 52 65 76 in32.pas $..$Rev
0041DD40 69 73 69 6F 6E 3A 20 33 37 39 36 20 24 00 00 00 ision: 3796 $...
0041DD50 24 44 61 74 65 3A 20 32 30 31 32 2D 30 35 2D 32 $Date: 2012-05-2
0041DD60 33 20 31 35 3A 35 37 3A 33 30 20 2B 30 32 30 30 3 15:57:30 +0200
0041DD70 20 28 57 65 64 2C 20 32 33 20 4D 61 79 20 32 30  (Wed, 23 May 20
0041DD80 31 32 29 20 24 00 00 00 4A 43 4C 5C 73 6F 75 72 12) $...JCL\sour
0041DD90 63 65 5C 77 69 6E 64 6F 77 73 00 00 55 8B EC 83 ce\windows..U...
0041DDA0 C4 D4 53 56 57 33 DB 89 5D D4 89 5D F8 84 D2 74 ..SVW3..]..]...t
0041DDB0 08 83 C4 F0 E8 D7 5B FE FF 8B F9 88 55 FF 8B D8 ......[.....U...
0041DDC0 33 C0 55 68 54 DE 41 00 64 FF 30 64 89 20 E8 CD 3.UhT.A.d.0d. ..
0041DDD0 86 FE FF 8B F0 89 73 0C 8D 55 F8 8B C6 E8 0E CA ......s..U......
0041DDE0 FE FF 8B 55 F8 8D 43 10 E8 A7 64 FE FF 8B 43 10 ...U..C...d...C.
0041DDF0 89 45 D8 C6 45 DC 0B 8B 43 0C 89 45 E0 C6 45 E4 .E..E...C..E..E.
0041DE00 00 B8 84 DE 41 00 89 45 E8 C6 45 EC 0B 8D 55 D4 ....A..E..E...U.
0041DE10 8B C7 E8 39 82 FE FF 8B 45 D4 89 45 F0 C6 45 F4 ...9....E..E..E.
0041DE20 0B 8D 45 D8 50 6A 03 8B 0D 3C A6 42 00 33 D2 8B ..E.Pj...<.B.3..
0041DE30 C3 E8 CA D2 FE FF 33 C0 5A 59 59 64 89 10 68 5B ......3.ZYYd..h[
0041DE40 DE 41 00 8D 45 D4 E8 F5 63 FE FF 8D 45 F8 E8 ED .A..E...c...E...
0041DE50 63 FE FF C3 E9 CB 5D FE FF EB E8 8B C3 80 7D FF c.....].......}.
0041DE60 00 74 0F E8 80 5B FE FF 64 8F 05 00 00 00 00 83 .t...[..d.......
0041DE70 C4 0C 8B C3 5F 5E 5B 8B E5 5D C3 00 FF FF FF FF ...._^[..]......
0041DE80 02 00 00 00 0D 0A 00 00 FF 25 3C E4 42 00 8B C0 .........%<.B...
0041DE90 FF 25 38 E4 42 00 8B C0 55 8B EC 33 C0 55 68 C9 .%8.B...U..3.Uh.
0041DEA0 DE 41 00 64 FF 30 64 89 20 FF 05 04 B9 42 00 75 .A.d.0d. ....B.u
0041DEB0 0A A1 68 B6 42 00 E8 5D 84 00 00 33 C0 5A 59 59 ..h.B..]...3.ZYY
0041DEC0 64 89 10 68 D0 DE 41 00 C3 E9 56 5D FE FF EB F8 d..h..A...V]....
0041DED0 5D C3 8B C0 83 2D 04 B9 42 00 01 73 0F BA E8 86 ]....-..B..s....
0041DEE0 42 00 A1 68 B6 42 00 E8 10 84 00 00 C3 8D 40 00 B..h.B........@.
0041DEF0 24 55 52 4C 3A 20 68 74 74 70 73 3A 2F 2F 6A 63 $URL: https://jc
0041DF00 6C 2E 73 76 6E 2E 73 6F 75 72 63 65 66 6F 72 67 l.svn.sourceforg
0041DF10 65 2E 6E 65 74 2F 73 76 6E 72 6F 6F 74 2F 6A 63 e.net/svnroot/jc
0041DF20 6C 2F 74 61 67 73 2F 4A 43 4C 2D 32 2E 34 2D 42 l/tags/JCL-2.4-B
0041DF30 75 69 6C 64 34 35 37 31 2F 6A 63 6C 2F 73 6F 75 uild4571/jcl/sou
0041DF40 72 63 65 2F 63 6F 6D 6D 6F 6E 2F 4A 63 6C 4C 6F rce/common/JclLo
0041DF50 67 69 63 2E 70 61 73 20 24 00 00 00 24 52 65 76 gic.pas $...$Rev
0041DF60 69 73 69 6F 6E 3A 20 33 35 39 39 20 24 00 00 00 ision: 3599 $...
0041DF70 24 44 61 74 65 3A 20 32 30 31 31 2D 30 39 2D 30 $Date: 2011-09-0
0041DF80 33 20 30 30 3A 30 37 3A 35 30 20 2B 30 32 30 30 3 00:07:50 +0200
0041DF90 20 28 53 61 74 2C 20 30 33 20 53 65 70 20 32 30  (Sat, 03 Sep 20
0041DFA0 31 31 29 20 24 00 00 00 4A 43 4C 5C 73 6F 75 72 11) $...JCL\sour
0041DFB0 63 65 5C 63 6F 6D 6D 6F 6E 00 00 00 00 00 00 00 ce\common.......
0041DFC0 55 8B EC 33 C0 55 68 F1 DF 41 00 64 FF 30 64 89 U..3.Uh..A.d.0d.
0041DFD0 20 FF 05 08 B9 42 00 75 0A A1 68 B6 42 00 E8 35  ....B.u..h.B..5
0041DFE0 83 00 00 33 C0 5A 59 59 64 89 10 68 F8 DF 41 00 ...3.ZYYd..h..A.
0041DFF0 C3 E9 2E 5C FE FF EB F8 5D C3 8B C0 83 2D 08 B9 ...\....]....-..
0041E000 42 00 01 73 0F BA 00 87 42 00 A1 68 B6 42 00 E8 B..s....B..h.B..
0041E010 E8 82 00 00 C3 8D 40 00 24 55 52 4C 3A 20 68 74 ......@.$URL: ht
0041E020 74 70 73 3A 2F 2F 6A 63 6C 2E 73 76 6E 2E 73 6F tps://jcl.svn.so
0041E030 75 72 63 65 66 6F 72 67 65 2E 6E 65 74 2F 73 76 urceforge.net/sv
0041E040 6E 72 6F 6F 74 2F 6A 63 6C 2F 74 61 67 73 2F 4A nroot/jcl/tags/J
0041E050 43 4C 2D 32 2E 34 2D 42 75 69 6C 64 34 35 37 31 CL-2.4-Build4571
0041E060 2F 6A 63 6C 2F 73 6F 75 72 63 65 2F 63 6F 6D 6D /jcl/source/comm
0041E070 6F 6E 2F 4A 63 6C 53 74 72 69 6E 67 43 6F 6E 76 on/JclStringConv
0041E080 65 72 73 69 6F 6E 73 2E 70 61 73 20 24 00 00 00 ersions.pas $...
0041E090 24 52 65 76 69 73 69 6F 6E 3A 20 33 37 39 35 20 $Revision: 3795 
0041E0A0 24 00 00 00 24 44 61 74 65 3A 20 32 30 31 32 2D $...$Date: 2012-
0041E0B0 30 35 2D 31 36 20 32 31 3A 30 39 3A 35 39 20 2B 05-16 21:09:59 +
0041E0C0 30 32 30 30 20 28 57 65 64 2C 20 31 36 20 4D 61 0200 (Wed, 16 Ma
0041E0D0 79 20 32 30 31 32 29 20 24 00 00 00 4A 43 4C 5C y 2012) $...JCL\
0041E0E0 73 6F 75 72 63 65 5C 63 6F 6D 6D 6F 6E 00 00 00 source\common...
0041E0F0 00 00 00 00 55 8B EC 33 C0 55 68 25 E1 41 00 64 ....U..3.Uh%.A.d
0041E100 FF 30 64 89 20 FF 05 0C B9 42 00 75 0A A1 68 B6 .0d. ....B.u..h.
0041E110 42 00 E8 01 82 00 00 33 C0 5A 59 59 64 89 10 68 B......3.ZYYd..h
0041E120 2C E1 41 00 C3 E9 FA 5A FE FF EB F8 5D C3 8B C0 ,.A....Z....]...
0041E130 83 2D 0C B9 42 00 01 73 0F BA 18 87 42 00 A1 68 .-..B..s....B..h
0041E140 B6 42 00 E8 B4 81 00 00 C3 8D 40 00 50 E1 41 00 .B........@.P.A.
0041E150 0E 0F 54 4A 63 6C 43 68 61 72 73 65 74 49 6E 66 ..TJclCharsetInf
0041E160 6F 08 00 00 00 01 00 00 00 44 10 40 00 00 00 00 o........D.@....
0041E170 00 8D 40 00 FF FF FF FF 08 00 00 00 41 53 4D 4F ..@.........ASMO
0041E180 2D 37 30 38 00 00 00 00 FF FF FF FF 07 00 00 00 -708............
0041E190 44 4F 53 2D 37 32 30 00 FF FF FF FF 0A 00 00 00 DOS-720.........
0041E1A0 69 73 6F 2D 38 38 35 39 2D 36 00 00 FF FF FF FF iso-8859-6......
0041E1B0 06 00 00 00 61 72 61 62 69 63 00 00 FF FF FF FF ....arabic......
0041E1C0 10 00 00 00 63 73 49 53 4F 4C 61 74 69 6E 41 72 ....csISOLatinAr
0041E1D0 61 62 69 63 00 00 00 00 FF FF FF FF 08 00 00 00 abic............
0041E1E0 45 43 4D 41 2D 31 31 34 00 00 00 00 FF FF FF FF ECMA-114........
0041E1F0 0A 00 00 00 49 53 4F 5F 38 38 35 39 2D 36 00 00 ....ISO_8859-6..
0041E200 FF FF FF FF 0F 00 00 00 49 53 4F 5F 38 38 35 39 ........ISO_8859
0041E210 2D 36 3A 31 39 38 37 00 FF FF FF FF 0A 00 00 00 -6:1987.........
0041E220 69 73 6F 2D 69 72 2D 31 32 37 00 00 FF FF FF FF iso-ir-127......
0041E230 0C 00 00 00 78 2D 6D 61 63 2D 61 72 61 62 69 63 ....x-mac-arabic
0041E240 00 00 00 00 FF FF FF FF 0C 00 00 00 77 69 6E 64 ............wind
0041E250 6F 77 73 2D 31 32 35 36 00 00 00 00 FF FF FF FF ows-1256........
0041E260 06 00 00 00 63 70 31 32 35 36 00 00 FF FF FF FF ....cp1256......
0041E270 06 00 00 00 69 62 6D 37 37 35 00 00 FF FF FF FF ....ibm775......
0041E280 05 00 00 00 43 50 35 30 30 00 00 00 FF FF FF FF ....CP500.......
0041E290 0A 00 00 00 69 73 6F 2D 38 38 35 39 2D 34 00 00 ....iso-8859-4..
0041E2A0 FF FF FF FF 0B 00 00 00 63 73 49 53 4F 4C 61 74 ........csISOLat
0041E2B0 69 6E 34 00 FF FF FF FF 0A 00 00 00 49 53 4F 5F in4.........ISO_
0041E2C0 38 38 35 39 2D 34 00 00 FF FF FF FF 0F 00 00 00 8859-4..........
0041E2D0 49 53 4F 5F 38 38 35 39 2D 34 3A 31 39 38 38 00 ISO_8859-4:1988.
0041E2E0 FF FF FF FF 0A 00 00 00 69 73 6F 2D 69 72 2D 31 ........iso-ir-1
0041E2F0 31 30 00 00 FF FF FF FF 02 00 00 00 6C 34 00 00 10..........l4..
0041E300 FF FF FF FF 06 00 00 00 6C 61 74 69 6E 34 00 00 ........latin4..
0041E310 FF FF FF FF 0C 00 00 00 77 69 6E 64 6F 77 73 2D ........windows-
0041E320 31 32 35 37 00 00 00 00 FF FF FF FF 06 00 00 00 1257............
0041E330 69 62 6D 38 35 32 00 00 FF FF FF FF 05 00 00 00 ibm852..........
0041E340 63 70 38 35 32 00 00 00 FF FF FF FF 0A 00 00 00 cp852...........
0041E350 69 73 6F 2D 38 38 35 39 2D 32 00 00 FF FF FF FF iso-8859-2......
0041E360 0B 00 00 00 63 73 49 53 4F 4C 61 74 69 6E 32 00 ....csISOLatin2.
0041E370 FF FF FF FF 0A 00 00 00 69 73 6F 5F 38 38 35 39 ........iso_8859
0041E380 2D 32 00 00 FF FF FF FF 0F 00 00 00 69 73 6F 5F -2..........iso_
0041E390 38 38 35 39 2D 32 3A 31 39 38 37 00 FF FF FF FF 8859-2:1987.....
0041E3A0 09 00 00 00 69 73 6F 38 38 35 39 2D 32 00 00 00 ....iso8859-2...
0041E3B0 FF FF FF FF 0A 00 00 00 69 73 6F 2D 69 72 2D 31 ........iso-ir-1
0041E3C0 30 31 00 00 FF FF FF FF 02 00 00 00 6C 32 00 00 01..........l2..
0041E3D0 FF FF FF FF 06 00 00 00 6C 61 74 69 6E 32 00 00 ........latin2..
0041E3E0 FF FF FF FF 08 00 00 00 78 2D 6D 61 63 2D 63 65 ........x-mac-ce
0041E3F0 00 00 00 00 FF FF FF FF 0C 00 00 00 77 69 6E 64 ............wind
0041E400 6F 77 73 2D 31 32 35 30 00 00 00 00 FF FF FF FF ows-1250........
0041E410 08 00 00 00 78 2D 63 70 31 32 35 30 00 00 00 00 ....x-cp1250....
0041E420 FF FF FF FF 06 00 00 00 45 55 43 2D 43 4E 00 00 ........EUC-CN..
0041E430 FF FF FF FF 08 00 00 00 78 2D 65 75 63 2D 63 6E ........x-euc-cn
0041E440 00 00 00 00 FF FF FF FF 06 00 00 00 67 62 32 33 ............gb23
0041E450 31 32 00 00 FF FF FF FF 07 00 00 00 63 68 69 6E 12..........chin
0041E460 65 73 65 00 FF FF FF FF 05 00 00 00 43 4E 2D 47 ese.........CN-G
0041E470 42 00 00 00 FF FF FF FF 08 00 00 00 63 73 47 42 B...........csGB
0041E480 32 33 31 32 00 00 00 00 FF FF FF FF 0A 00 00 00 2312............
0041E490 63 73 47 42 32 33 31 32 38 30 00 00 FF FF FF FF csGB231280......
0041E4A0 0F 00 00 00 63 73 49 53 4F 35 38 47 42 32 33 31 ....csISO58GB231
0041E4B0 32 38 30 00 FF FF FF FF 0A 00 00 00 47 42 5F 32 280.........GB_2
0041E4C0 33 31 32 2D 38 30 00 00 FF FF FF FF 08 00 00 00 312-80..........
0041E4D0 47 42 32 33 31 32 38 30 00 00 00 00 FF FF FF FF GB231280........
0041E4E0 09 00 00 00 47 42 32 33 31 32 2D 38 30 00 00 00 ....GB2312-80...
0041E4F0 FF FF FF FF 03 00 00 00 47 42 4B 00 FF FF FF FF ........GBK.....
0041E500 09 00 00 00 69 73 6F 2D 69 72 2D 35 38 00 00 00 ....iso-ir-58...
0041E510 FF FF FF FF 0A 00 00 00 68 7A 2D 67 62 2D 32 33 ........hz-gb-23
0041E520 31 32 00 00 FF FF FF FF 11 00 00 00 78 2D 6D 61 12..........x-ma
0041E530 63 2D 63 68 69 6E 65 73 65 73 69 6D 70 00 00 00 c-chinesesimp...
0041E540 FF FF FF FF 04 00 00 00 62 69 67 35 00 00 00 00 ........big5....
0041E550 FF FF FF FF 07 00 00 00 63 6E 2D 62 69 67 35 00 ........cn-big5.
0041E560 FF FF FF FF 06 00 00 00 63 73 62 69 67 35 00 00 ........csbig5..
0041E570 FF FF FF FF 08 00 00 00 78 2D 78 2D 62 69 67 35 ........x-x-big5
0041E580 00 00 00 00 FF FF FF FF 05 00 00 00 4D 53 39 35 ............MS95
0041E590 30 00 00 00 FF FF FF FF 0D 00 00 00 78 2D 43 68 0...........x-Ch
0041E5A0 69 6E 65 73 65 2D 43 4E 53 00 00 00 FF FF FF FF inese-CNS.......
0041E5B0 0E 00 00 00 78 2D 43 68 69 6E 65 73 65 2D 45 74 ....x-Chinese-Et
0041E5C0 65 6E 00 00 FF FF FF FF 11 00 00 00 78 2D 6D 61 en..........x-ma
0041E5D0 63 2D 63 68 69 6E 65 73 65 74 72 61 64 00 00 00 c-chinesetrad...
0041E5E0 FF FF FF FF 05 00 00 00 63 70 38 36 36 00 00 00 ........cp866...
0041E5F0 FF FF FF FF 06 00 00 00 69 62 6D 38 36 36 00 00 ........ibm866..
0041E600 FF FF FF FF 0A 00 00 00 69 73 6F 2D 38 38 35 39 ........iso-8859
0041E610 2D 35 00 00 FF FF FF FF 12 00 00 00 63 73 49 53 -5..........csIS
0041E620 4F 4C 61 74 69 6E 43 79 72 69 6C 6C 69 63 00 00 OLatinCyrillic..
0041E630 FF FF FF FF 08 00 00 00 63 79 72 69 6C 6C 69 63 ........cyrillic
0041E640 00 00 00 00 FF FF FF FF 0A 00 00 00 49 53 4F 5F ............ISO_
0041E650 38 38 35 39 2D 35 00 00 FF FF FF FF 0F 00 00 00 8859-5..........
0041E660 49 53 4F 5F 38 38 35 39 2D 35 3A 31 39 38 38 00 ISO_8859-5:1988.
0041E670 FF FF FF FF 0A 00 00 00 69 73 6F 2D 69 72 2D 31 ........iso-ir-1
0041E680 34 34 00 00 FF FF FF FF 06 00 00 00 6B 6F 69 38 44..........koi8
0041E690 2D 72 00 00 FF FF FF FF 07 00 00 00 63 73 4B 4F -r..........csKO
0041E6A0 49 38 52 00 FF FF FF FF 03 00 00 00 6B 6F 69 00 I8R.........koi.
0041E6B0 FF FF FF FF 04 00 00 00 6B 6F 69 38 00 00 00 00 ........koi8....
0041E6C0 FF FF FF FF 05 00 00 00 6B 6F 69 38 72 00 00 00 ........koi8r...
0041E6D0 FF FF FF FF 06 00 00 00 6B 6F 69 38 2D 75 00 00 ........koi8-u..
0041E6E0 FF FF FF FF 07 00 00 00 6B 6F 69 38 2D 72 75 00 ........koi8-ru.
0041E6F0 FF FF FF FF 0E 00 00 00 78 2D 6D 61 63 2D 63 79 ........x-mac-cy
0041E700 72 69 6C 6C 69 63 00 00 FF FF FF FF 0C 00 00 00 rillic..........
0041E710 77 69 6E 64 6F 77 73 2D 31 32 35 31 00 00 00 00 windows-1251....
0041E720 FF FF FF FF 08 00 00 00 78 2D 63 70 31 32 35 31 ........x-cp1251
0041E730 00 00 00 00 FF FF FF FF 08 00 00 00 78 2D 45 75 ............x-Eu
0041E740 72 6F 70 61 00 00 00 00 FF FF FF FF 0C 00 00 00 ropa............
0041E750 78 2D 49 41 35 2D 47 65 72 6D 61 6E 00 00 00 00 x-IA5-German....
0041E760 FF FF FF FF 06 00 00 00 69 62 6D 37 33 37 00 00 ........ibm737..
0041E770 FF FF FF FF 0A 00 00 00 69 73 6F 2D 38 38 35 39 ........iso-8859
0041E780 2D 37 00 00 FF FF FF FF 0F 00 00 00 63 73 49 53 -7..........csIS
0041E790 4F 4C 61 74 69 6E 47 72 65 65 6B 00 FF FF FF FF OLatinGreek.....
0041E7A0 08 00 00 00 45 43 4D 41 2D 31 31 38 00 00 00 00 ....ECMA-118....
0041E7B0 FF FF FF FF 08 00 00 00 45 4C 4F 54 5F 39 32 38 ........ELOT_928
0041E7C0 00 00 00 00 FF FF FF FF 05 00 00 00 67 72 65 65 ............gree
0041E7D0 6B 00 00 00 FF FF FF FF 06 00 00 00 67 72 65 65 k...........gree
0041E7E0 6B 38 00 00 FF FF FF FF 0A 00 00 00 49 53 4F 5F k8..........ISO_
0041E7F0 38 38 35 39 2D 37 00 00 FF FF FF FF 0F 00 00 00 8859-7..........
0041E800 49 53 4F 5F 38 38 35 39 2D 37 3A 31 39 38 37 00 ISO_8859-7:1987.
0041E810 FF FF FF FF 0A 00 00 00 69 73 6F 2D 69 72 2D 31 ........iso-ir-1
0041E820 32 36 00 00 FF FF FF FF 0B 00 00 00 78 2D 6D 61 26..........x-ma
0041E830 63 2D 67 72 65 65 6B 00 FF FF FF FF 0C 00 00 00 c-greek.........
0041E840 77 69 6E 64 6F 77 73 2D 31 32 35 33 00 00 00 00 windows-1253....
0041E850 FF FF FF FF 06 00 00 00 69 62 6D 38 36 39 00 00 ........ibm869..
0041E860 FF FF FF FF 07 00 00 00 44 4F 53 2D 38 36 32 00 ........DOS-862.
0041E870 FF FF FF FF 0C 00 00 00 69 73 6F 2D 38 38 35 39 ........iso-8859
0041E880 2D 38 2D 69 00 00 00 00 FF FF FF FF 07 00 00 00 -8-i............
0041E890 6C 6F 67 69 63 61 6C 00 FF FF FF FF 0A 00 00 00 logical.........
0041E8A0 69 73 6F 2D 38 38 35 39 2D 38 00 00 FF FF FF FF iso-8859-8......
0041E8B0 10 00 00 00 63 73 49 53 4F 4C 61 74 69 6E 48 65 ....csISOLatinHe
0041E8C0 62 72 65 77 00 00 00 00 FF FF FF FF 06 00 00 00 brew............
0041E8D0 68 65 62 72 65 77 00 00 FF FF FF FF 0A 00 00 00 hebrew..........
0041E8E0 49 53 4F 5F 38 38 35 39 2D 38 00 00 FF FF FF FF ISO_8859-8......
0041E8F0 0F 00 00 00 49 53 4F 5F 38 38 35 39 2D 38 3A 31 ....ISO_8859-8:1
0041E900 39 38 38 00 FF FF FF FF 0A 00 00 00 49 53 4F 2D 988.........ISO-
0041E910 38 38 35 39 2D 38 00 00 FF FF FF FF 0A 00 00 00 8859-8..........
0041E920 69 73 6F 2D 69 72 2D 31 33 38 00 00 FF FF FF FF iso-ir-138......
0041E930 06 00 00 00 76 69 73 75 61 6C 00 00 FF FF FF FF ....visual......
0041E940 0C 00 00 00 78 2D 6D 61 63 2D 68 65 62 72 65 77 ....x-mac-hebrew
0041E950 00 00 00 00 FF FF FF FF 0C 00 00 00 77 69 6E 64 ............wind
0041E960 6F 77 73 2D 31 32 35 35 00 00 00 00 FF FF FF FF ows-1255........
0041E970 06 00 00 00 43 50 31 32 35 35 00 00 FF FF FF FF ....CP1255......
0041E980 0C 00 00 00 49 53 4F 5F 38 38 35 39 2D 38 2D 49 ....ISO_8859-8-I
0041E990 00 00 00 00 FF FF FF FF 0F 00 00 00 78 2D 45 42 ............x-EB
0041E9A0 43 44 49 43 2D 41 72 61 62 69 63 00 FF FF FF FF CDIC-Arabic.....
0041E9B0 18 00 00 00 78 2D 45 42 43 44 49 43 2D 43 79 72 ....x-EBCDIC-Cyr
0041E9C0 69 6C 6C 69 63 52 75 73 73 69 61 6E 00 00 00 00 illicRussian....
0041E9D0 FF FF FF FF 21 00 00 00 78 2D 45 42 43 44 49 43 ....!...x-EBCDIC
0041E9E0 2D 43 79 72 69 6C 6C 69 63 53 65 72 62 69 61 6E -CyrillicSerbian
0041E9F0 42 75 6C 67 61 72 69 61 6E 00 00 00 FF FF FF FF Bulgarian.......
0041EA00 16 00 00 00 78 2D 45 42 43 44 49 43 2D 44 65 6E ....x-EBCDIC-Den
0041EA10 6D 61 72 6B 4E 6F 72 77 61 79 00 00 FF FF FF FF markNorway......
0041EA20 1B 00 00 00 78 2D 65 62 63 64 69 63 2D 64 65 6E ....x-ebcdic-den
0041EA30 6D 61 72 6B 6E 6F 72 77 61 79 2D 65 75 72 6F 00 marknorway-euro.
0041EA40 FF FF FF FF 16 00 00 00 78 2D 45 42 43 44 49 43 ........x-EBCDIC
0041EA50 2D 46 69 6E 6C 61 6E 64 53 77 65 64 65 6E 00 00 -FinlandSweden..
0041EA60 FF FF FF FF 1B 00 00 00 78 2D 65 62 63 64 69 63 ........x-ebcdic
0041EA70 2D 66 69 6E 6C 61 6E 64 73 77 65 64 65 6E 2D 65 -finlandsweden-e
0041EA80 75 72 6F 00 FF FF FF FF 0F 00 00 00 58 2D 45 42 uro.........X-EB
0041EA90 43 44 49 43 2D 46 72 61 6E 63 65 00 FF FF FF FF CDIC-France.....
0041EAA0 14 00 00 00 78 2D 65 62 63 64 69 63 2D 66 72 61 ....x-ebcdic-fra
0041EAB0 6E 63 65 2D 65 75 72 6F 00 00 00 00 FF FF FF FF nce-euro........
0041EAC0 10 00 00 00 78 2D 45 42 43 44 49 43 2D 47 65 72 ....x-EBCDIC-Ger
0041EAD0 6D 61 6E 79 00 00 00 00 FF FF FF FF 15 00 00 00 many............
0041EAE0 78 2D 65 62 63 64 69 63 2D 67 65 72 6D 61 6E 79 x-ebcdic-germany
0041EAF0 2D 65 75 72 6F 00 00 00 FF FF FF FF 14 00 00 00 -euro...........
0041EB00 78 2D 45 42 43 44 49 43 2D 47 72 65 65 6B 4D 6F x-EBCDIC-GreekMo
0041EB10 64 65 72 6E 00 00 00 00 FF FF FF FF 0E 00 00 00 dern............
0041EB20 78 2D 45 42 43 44 49 43 2D 47 72 65 65 6B 00 00 x-EBCDIC-Greek..
0041EB30 FF FF FF FF 0F 00 00 00 78 2D 45 42 43 44 49 43 ........x-EBCDIC
0041EB40 2D 48 65 62 72 65 77 00 FF FF FF FF 12 00 00 00 -Hebrew.........
0041EB50 78 2D 45 42 43 44 49 43 2D 49 63 65 6C 61 6E 64 x-EBCDIC-Iceland
0041EB60 69 63 00 00 FF FF FF FF 17 00 00 00 78 2D 65 62 ic..........x-eb
0041EB70 63 64 69 63 2D 69 63 65 6C 61 6E 64 69 63 2D 65 cdic-icelandic-e
0041EB80 75 72 6F 00 FF FF FF FF 1B 00 00 00 78 2D 65 62 uro.........x-eb
0041EB90 63 64 69 63 2D 69 6E 74 65 72 6E 61 74 69 6F 6E cdic-internation
0041EBA0 61 6C 2D 65 75 72 6F 00 FF FF FF FF 0E 00 00 00 al-euro.........
0041EBB0 78 2D 45 42 43 44 49 43 2D 49 74 61 6C 79 00 00 x-EBCDIC-Italy..
0041EBC0 FF FF FF FF 13 00 00 00 78 2D 65 62 63 64 69 63 ........x-ebcdic
0041EBD0 2D 69 74 61 6C 79 2D 65 75 72 6F 00 FF FF FF FF -italy-euro.....
0041EBE0 18 00 00 00 78 2D 45 42 43 44 49 43 2D 4A 61 70 ....x-EBCDIC-Jap
0041EBF0 61 6E 65 73 65 41 6E 64 4B 61 6E 61 00 00 00 00 aneseAndKana....
0041EC00 FF FF FF FF 21 00 00 00 78 2D 45 42 43 44 49 43 ....!...x-EBCDIC
0041EC10 2D 4A 61 70 61 6E 65 73 65 41 6E 64 4A 61 70 61 -JapaneseAndJapa
0041EC20 6E 65 73 65 4C 61 74 69 6E 00 00 00 FF FF FF FF neseLatin.......
0041EC30 1C 00 00 00 78 2D 45 42 43 44 49 43 2D 4A 61 70 ....x-EBCDIC-Jap
0041EC40 61 6E 65 73 65 41 6E 64 55 53 43 61 6E 61 64 61 aneseAndUSCanada
0041EC50 00 00 00 00 FF FF FF FF 19 00 00 00 78 2D 45 42 ............x-EB
0041EC60 43 44 49 43 2D 4A 61 70 61 6E 65 73 65 4B 61 74 CDIC-JapaneseKat
0041EC70 61 6B 61 6E 61 00 00 00 FF FF FF FF 20 00 00 00 akana....... ...
0041EC80 78 2D 45 42 43 44 49 43 2D 4B 6F 72 65 61 6E 41 x-EBCDIC-KoreanA
0041EC90 6E 64 4B 6F 72 65 61 6E 45 78 74 65 6E 64 65 64 ndKoreanExtended
0041ECA0 00 00 00 00 FF FF FF FF 17 00 00 00 78 2D 45 42 ............x-EB
0041ECB0 43 44 49 43 2D 4B 6F 72 65 61 6E 45 78 74 65 6E CDIC-KoreanExten
0041ECC0 64 65 64 00 FF FF FF FF 05 00 00 00 43 50 38 37 ded.........CP87
0041ECD0 30 00 00 00 FF FF FF FF 1A 00 00 00 78 2D 45 42 0...........x-EB
0041ECE0 43 44 49 43 2D 53 69 6D 70 6C 69 66 69 65 64 43 CDIC-SimplifiedC
0041ECF0 68 69 6E 65 73 65 00 00 FF FF FF FF 0E 00 00 00 hinese..........
0041ED00 58 2D 45 42 43 44 49 43 2D 53 70 61 69 6E 00 00 X-EBCDIC-Spain..
0041ED10 FF FF FF FF 13 00 00 00 78 2D 65 62 63 64 69 63 ........x-ebcdic
0041ED20 2D 73 70 61 69 6E 2D 65 75 72 6F 00 FF FF FF FF -spain-euro.....
0041ED30 0D 00 00 00 78 2D 45 42 43 44 49 43 2D 54 68 61 ....x-EBCDIC-Tha
0041ED40 69 00 00 00 FF FF FF FF 1B 00 00 00 78 2D 45 42 i...........x-EB
0041ED50 43 44 49 43 2D 54 72 61 64 69 74 69 6F 6E 61 6C CDIC-Traditional
0041ED60 43 68 69 6E 65 73 65 00 FF FF FF FF 06 00 00 00 Chinese.........
0041ED70 43 50 31 30 32 36 00 00 FF FF FF FF 10 00 00 00 CP1026..........
0041ED80 78 2D 45 42 43 44 49 43 2D 54 75 72 6B 69 73 68 x-EBCDIC-Turkish
0041ED90 00 00 00 00 FF FF FF FF 0B 00 00 00 78 2D 45 42 ............x-EB
0041EDA0 43 44 49 43 2D 55 4B 00 FF FF FF FF 10 00 00 00 CDIC-UK.........
0041EDB0 78 2D 65 62 63 64 69 63 2D 75 6B 2D 65 75 72 6F x-ebcdic-uk-euro
0041EDC0 00 00 00 00 FF FF FF FF 0C 00 00 00 65 62 63 64 ............ebcd
0041EDD0 69 63 2D 63 70 2D 75 73 00 00 00 00 FF FF FF FF ic-cp-us........
0041EDE0 13 00 00 00 78 2D 65 62 63 64 69 63 2D 63 70 2D ....x-ebcdic-cp-
0041EDF0 75 73 2D 65 75 72 6F 00 FF FF FF FF 06 00 00 00 us-euro.........
0041EE00 69 62 6D 38 36 31 00 00 FF FF FF FF 0F 00 00 00 ibm861..........
0041EE10 78 2D 6D 61 63 2D 69 63 65 6C 61 6E 64 69 63 00 x-mac-icelandic.
0041EE20 FF FF FF FF 0A 00 00 00 78 2D 69 73 63 69 69 2D ........x-iscii-
0041EE30 61 73 00 00 FF FF FF FF 0A 00 00 00 78 2D 69 73 as..........x-is
0041EE40 63 69 69 2D 62 65 00 00 FF FF FF FF 0A 00 00 00 cii-be..........
0041EE50 78 2D 69 73 63 69 69 2D 64 65 00 00 FF FF FF FF x-iscii-de......
0041EE60 0A 00 00 00 78 2D 69 73 63 69 69 2D 67 75 00 00 ....x-iscii-gu..
0041EE70 FF FF FF FF 0A 00 00 00 78 2D 69 73 63 69 69 2D ........x-iscii-
0041EE80 6B 61 00 00 FF FF FF FF 0A 00 00 00 78 2D 69 73 ka..........x-is
0041EE90 63 69 69 2D 6D 61 00 00 FF FF FF FF 0A 00 00 00 cii-ma..........
0041EEA0 78 2D 69 73 63 69 69 2D 6F 72 00 00 FF FF FF FF x-iscii-or......
0041EEB0 0A 00 00 00 78 2D 69 73 63 69 69 2D 70 61 00 00 ....x-iscii-pa..
0041EEC0 FF FF FF FF 0A 00 00 00 78 2D 69 73 63 69 69 2D ........x-iscii-
0041EED0 74 61 00 00 FF FF FF FF 0A 00 00 00 78 2D 69 73 ta..........x-is
0041EEE0 63 69 69 2D 74 65 00 00 FF FF FF FF 06 00 00 00 cii-te..........
0041EEF0 65 75 63 2D 6A 70 00 00 FF FF FF FF 13 00 00 00 euc-jp..........
0041EF00 63 73 45 55 43 50 6B 64 46 6D 74 4A 61 70 61 6E csEUCPkdFmtJapan
0041EF10 65 73 65 00 FF FF FF FF 2D 00 00 00 45 78 74 65 ese.....-...Exte
0041EF20 6E 64 65 64 5F 55 4E 49 58 5F 43 6F 64 65 5F 50 nded_UNIX_Code_P
0041EF30 61 63 6B 65 64 5F 46 6F 72 6D 61 74 5F 66 6F 72 acked_Format_for
0041EF40 5F 4A 61 70 61 6E 65 73 65 00 00 00 FF FF FF FF _Japanese.......
0041EF50 05 00 00 00 78 2D 65 75 63 00 00 00 FF FF FF FF ....x-euc.......
0041EF60 08 00 00 00 78 2D 65 75 63 2D 6A 70 00 00 00 00 ....x-euc-jp....
0041EF70 FF FF FF FF 0B 00 00 00 69 73 6F 2D 32 30 32 32 ........iso-2022
0041EF80 2D 6A 70 00 FF FF FF FF 10 00 00 00 5F 69 73 6F -jp........._iso
0041EF90 2D 32 30 32 32 2D 6A 70 24 53 49 4F 00 00 00 00 -2022-jp$SIO....
0041EFA0 FF FF FF FF 0B 00 00 00 63 73 49 53 4F 32 30 32 ........csISO202
0041EFB0 32 4A 50 00 FF FF FF FF 0C 00 00 00 5F 69 73 6F 2JP........._iso
0041EFC0 2D 32 30 32 32 2D 6A 70 00 00 00 00 FF FF FF FF -2022-jp........
0041EFD0 0E 00 00 00 78 2D 6D 61 63 2D 6A 61 70 61 6E 65 ....x-mac-japane
0041EFE0 73 65 00 00 FF FF FF FF 09 00 00 00 73 68 69 66 se..........shif
0041EFF0 74 5F 6A 69 73 00 00 00 FF FF FF FF 0A 00 00 00 t_jis...........
0041F000 63 73 53 68 69 66 74 4A 49 53 00 00 FF FF FF FF csShiftJIS......
0041F010 0C 00 00 00 63 73 57 69 6E 64 6F 77 73 33 31 4A ....csWindows31J
0041F020 00 00 00 00 FF FF FF FF 08 00 00 00 6D 73 5F 4B ............ms_K
0041F030 61 6E 6A 69 00 00 00 00 FF FF FF FF 09 00 00 00 anji............
0041F040 73 68 69 66 74 2D 6A 69 73 00 00 00 FF FF FF FF shift-jis.......
0041F050 0A 00 00 00 78 2D 6D 73 2D 63 70 39 33 32 00 00 ....x-ms-cp932..
0041F060 FF FF FF FF 06 00 00 00 78 2D 73 6A 69 73 00 00 ........x-sjis..
0041F070 FF FF FF FF 05 00 00 00 4D 53 39 33 32 00 00 00 ........MS932...
0041F080 FF FF FF FF 0E 00 00 00 6B 73 5F 63 5F 35 36 30 ........ks_c_560
0041F090 31 2D 31 39 38 37 00 00 FF FF FF FF 0D 00 00 00 1-1987..........
0041F0A0 63 73 4B 53 43 35 36 30 31 31 39 38 37 00 00 00 csKSC56011987...
0041F0B0 FF FF FF FF 06 00 00 00 65 75 63 2D 6B 72 00 00 ........euc-kr..
0041F0C0 FF FF FF FF 0A 00 00 00 69 73 6F 2D 69 72 2D 31 ........iso-ir-1
0041F0D0 34 39 00 00 FF FF FF FF 06 00 00 00 6B 6F 72 65 49..........kore
0041F0E0 61 6E 00 00 FF FF FF FF 09 00 00 00 6B 73 5F 63 an..........ks_c
0041F0F0 5F 35 36 30 31 00 00 00 FF FF FF FF 0E 00 00 00 _5601...........
0041F100 6B 73 5F 63 5F 35 36 30 31 5F 31 39 38 37 00 00 ks_c_5601_1987..
0041F110 FF FF FF FF 0E 00 00 00 6B 73 5F 63 5F 35 36 30 ........ks_c_560
0041F120 31 2D 31 39 38 39 00 00 FF FF FF FF 08 00 00 00 1-1989..........
0041F130 4B 53 43 5F 35 36 30 31 00 00 00 00 FF FF FF FF KSC_5601........
0041F140 07 00 00 00 4B 53 43 35 36 30 31 00 FF FF FF FF ....KSC5601.....
0041F150 07 00 00 00 63 73 45 55 43 4B 52 00 FF FF FF FF ....csEUCKR.....
0041F160 0B 00 00 00 69 73 6F 2D 32 30 32 32 2D 6B 72 00 ....iso-2022-kr.
0041F170 FF FF FF FF 0B 00 00 00 63 73 49 53 4F 32 30 32 ........csISO202
0041F180 32 4B 52 00 FF FF FF FF 05 00 00 00 4A 6F 68 61 2KR.........Joha
0041F190 62 00 00 00 FF FF FF FF 0C 00 00 00 78 2D 6D 61 b...........x-ma
0041F1A0 63 2D 6B 6F 72 65 61 6E 00 00 00 00 FF FF FF FF c-korean........
0041F1B0 0A 00 00 00 69 73 6F 2D 38 38 35 39 2D 33 00 00 ....iso-8859-3..
0041F1C0 FF FF FF FF 0B 00 00 00 63 73 49 53 4F 4C 61 74 ........csISOLat
0041F1D0 69 6E 33 00 FF FF FF FF 0A 00 00 00 49 53 4F 5F in3.........ISO_
0041F1E0 38 38 35 39 2D 33 00 00 FF FF FF FF 0F 00 00 00 8859-3..........
0041F1F0 49 53 4F 5F 38 38 35 39 2D 33 3A 31 39 38 38 00 ISO_8859-3:1988.
0041F200 FF FF FF FF 0A 00 00 00 69 73 6F 2D 69 72 2D 31 ........iso-ir-1
0041F210 30 39 00 00 FF FF FF FF 03 00 00 00 6C 33 2C 00 09..........l3,.
0041F220 FF FF FF FF 06 00 00 00 6C 61 74 69 6E 33 00 00 ........latin3..
0041F230 FF FF FF FF 0B 00 00 00 69 73 6F 2D 38 38 35 39 ........iso-8859
0041F240 2D 31 35 00 FF FF FF FF 0B 00 00 00 63 73 49 53 -15.........csIS
0041F250 4F 4C 61 74 69 6E 39 00 FF FF FF FF 0B 00 00 00 OLatin9.........
0041F260 49 53 4F 5F 38 38 35 39 2D 31 35 00 FF FF FF FF ISO_8859-15.....
0041F270 02 00 00 00 6C 39 00 00 FF FF FF FF 06 00 00 00 ....l9..........
0041F280 6C 61 74 69 6E 39 00 00 FF FF FF FF 0F 00 00 00 latin9..........
0041F290 78 2D 49 41 35 2D 4E 6F 72 77 65 67 69 61 6E 00 x-IA5-Norwegian.
0041F2A0 FF FF FF FF 06 00 00 00 49 42 4D 34 33 37 00 00 ........IBM437..
0041F2B0 FF FF FF FF 03 00 00 00 34 33 37 00 FF FF FF FF ........437.....
0041F2C0 05 00 00 00 63 70 34 33 37 00 00 00 FF FF FF FF ....cp437.......
0041F2D0 05 00 00 00 63 73 50 43 38 00 00 00 FF FF FF FF ....csPC8.......
0041F2E0 0B 00 00 00 43 6F 64 65 50 61 67 65 34 33 37 00 ....CodePage437.
0041F2F0 FF FF FF FF 0D 00 00 00 78 2D 49 41 35 2D 53 77 ........x-IA5-Sw
0041F300 65 64 69 73 68 00 00 00 FF FF FF FF 0B 00 00 00 edish...........
0041F310 77 69 6E 64 6F 77 73 2D 38 37 34 00 FF FF FF FF windows-874.....
0041F320 07 00 00 00 44 4F 53 2D 38 37 34 00 FF FF FF FF ....DOS-874.....
0041F330 0B 00 00 00 69 73 6F 2D 38 38 35 39 2D 31 31 00 ....iso-8859-11.
0041F340 FF FF FF FF 07 00 00 00 54 49 53 2D 36 32 30 00 ........TIS-620.
0041F350 FF FF FF FF 06 00 00 00 69 62 6D 38 35 37 00 00 ........ibm857..
0041F360 FF FF FF FF 0A 00 00 00 69 73 6F 2D 38 38 35 39 ........iso-8859
0041F370 2D 39 00 00 FF FF FF FF 0B 00 00 00 63 73 49 53 -9..........csIS
0041F380 4F 4C 61 74 69 6E 35 00 FF FF FF FF 0A 00 00 00 OLatin5.........
0041F390 49 53 4F 5F 38 38 35 39 2D 39 00 00 FF FF FF FF ISO_8859-9......
0041F3A0 0F 00 00 00 49 53 4F 5F 38 38 35 39 2D 39 3A 31 ....ISO_8859-9:1
0041F3B0 39 38 39 00 FF FF FF FF 0A 00 00 00 69 73 6F 2D 989.........iso-
0041F3C0 69 72 2D 31 34 38 00 00 FF FF FF FF 02 00 00 00 ir-148..........
0041F3D0 6C 35 00 00 FF FF FF FF 06 00 00 00 6C 61 74 69 l5..........lati
0041F3E0 6E 35 00 00 FF FF FF FF 0D 00 00 00 78 2D 6D 61 n5..........x-ma
0041F3F0 63 2D 74 75 72 6B 69 73 68 00 00 00 FF FF FF FF c-turkish.......
0041F400 0C 00 00 00 77 69 6E 64 6F 77 73 2D 31 32 35 34 ....windows-1254
0041F410 00 00 00 00 FF FF FF FF 06 00 00 00 75 74 66 2D ............utf-
0041F420 31 36 00 00 FF FF FF FF 07 00 00 00 75 6E 69 63 16..........unic
0041F430 6F 64 65 00 FF FF FF FF 0B 00 00 00 75 6E 69 63 ode.........unic
0041F440 6F 64 65 46 46 46 45 00 FF FF FF FF 05 00 00 00 odeFFFE.........
0041F450 75 74 66 2D 37 00 00 00 FF FF FF FF 0F 00 00 00 utf-7...........
0041F460 63 73 55 6E 69 63 6F 64 65 31 31 55 54 46 37 00 csUnicode11UTF7.
0041F470 FF FF FF FF 11 00 00 00 75 6E 69 63 6F 64 65 2D ........unicode-
0041F480 31 2D 31 2D 75 74 66 2D 37 00 00 00 FF FF FF FF 1-1-utf-7.......
0041F490 13 00 00 00 78 2D 75 6E 69 63 6F 64 65 2D 32 2D ....x-unicode-2-
0041F4A0 30 2D 75 74 66 2D 37 00 FF FF FF FF 05 00 00 00 0-utf-7.........
0041F4B0 75 74 66 2D 38 00 00 00 FF FF FF FF 11 00 00 00 utf-8...........
0041F4C0 75 6E 69 63 6F 64 65 2D 31 2D 31 2D 75 74 66 2D unicode-1-1-utf-
0041F4D0 38 00 00 00 FF FF FF FF 11 00 00 00 75 6E 69 63 8...........unic
0041F4E0 6F 64 65 2D 32 2D 30 2D 75 74 66 2D 38 00 00 00 ode-2-0-utf-8...
0041F4F0 FF FF FF FF 13 00 00 00 78 2D 75 6E 69 63 6F 64 ........x-unicod
0041F500 65 2D 32 2D 30 2D 75 74 66 2D 38 00 FF FF FF FF e-2-0-utf-8.....
0041F510 08 00 00 00 75 73 2D 61 73 63 69 69 00 00 00 00 ....us-ascii....
0041F520 FF FF FF FF 0E 00 00 00 41 4E 53 49 5F 58 33 2E ........ANSI_X3.
0041F530 34 2D 31 39 36 38 00 00 FF FF FF FF 0E 00 00 00 4-1968..........
0041F540 41 4E 53 49 5F 58 33 2E 34 2D 31 39 38 36 00 00 ANSI_X3.4-1986..
0041F550 FF FF FF FF 05 00 00 00 61 73 63 69 69 00 00 00 ........ascii...
0041F560 FF FF FF FF 05 00 00 00 63 70 33 36 37 00 00 00 ........cp367...
0041F570 FF FF FF FF 07 00 00 00 63 73 41 53 43 49 49 00 ........csASCII.
0041F580 FF FF FF FF 06 00 00 00 49 42 4D 33 36 37 00 00 ........IBM367..
0041F590 FF FF FF FF 10 00 00 00 49 53 4F 5F 36 34 36 2E ........ISO_646.
0041F5A0 69 72 76 3A 31 39 39 31 00 00 00 00 FF FF FF FF irv:1991........
0041F5B0 09 00 00 00 49 53 4F 36 34 36 2D 55 53 00 00 00 ....ISO646-US...
0041F5C0 FF FF FF FF 0A 00 00 00 69 73 6F 2D 69 72 2D 36 ........iso-ir-6
0041F5D0 75 73 00 00 FF FF FF FF 0C 00 00 00 77 69 6E 64 us..........wind
0041F5E0 6F 77 73 2D 31 32 35 38 00 00 00 00 FF FF FF FF ows-1258........
0041F5F0 06 00 00 00 69 62 6D 38 35 30 00 00 FF FF FF FF ....ibm850......
0041F600 05 00 00 00 78 2D 49 41 35 00 00 00 FF FF FF FF ....x-IA5.......
0041F610 0A 00 00 00 69 73 6F 2D 38 38 35 39 2D 31 00 00 ....iso-8859-1..
0041F620 FF FF FF FF 05 00 00 00 63 70 38 31 39 00 00 00 ........cp819...
0041F630 FF FF FF FF 0B 00 00 00 63 73 49 53 4F 4C 61 74 ........csISOLat
0041F640 69 6E 31 00 FF FF FF FF 06 00 00 00 69 62 6D 38 in1.........ibm8
0041F650 31 39 00 00 FF FF FF FF 0A 00 00 00 69 73 6F 5F 19..........iso_
0041F660 38 38 35 39 2D 31 00 00 FF FF FF FF 0F 00 00 00 8859-1..........
0041F670 69 73 6F 5F 38 38 35 39 2D 31 3A 31 39 38 37 00 iso_8859-1:1987.
0041F680 FF FF FF FF 09 00 00 00 69 73 6F 38 38 35 39 2D ........iso8859-
0041F690 31 00 00 00 FF FF FF FF 0A 00 00 00 69 73 6F 2D 1...........iso-
0041F6A0 69 72 2D 31 30 30 00 00 FF FF FF FF 02 00 00 00 ir-100..........
0041F6B0 6C 31 00 00 FF FF FF FF 06 00 00 00 6C 61 74 69 l1..........lati
0041F6C0 6E 31 00 00 FF FF FF FF 09 00 00 00 6D 61 63 69 n1..........maci
0041F6D0 6E 74 6F 73 68 00 00 00 FF FF FF FF 0C 00 00 00 ntosh...........
0041F6E0 57 69 6E 64 6F 77 73 2D 31 32 35 32 00 00 00 00 Windows-1252....
0041F6F0 FF FF FF FF 06 00 00 00 43 50 31 32 35 32 00 00 ........CP1252..
0041F700 FF FF FF FF 08 00 00 00 69 73 6F 2D 69 72 2D 36 ........iso-ir-6
0041F710 00 00 00 00 FF FF FF FF 02 00 00 00 75 73 00 00 ............us..
0041F720 FF FF FF FF 06 00 00 00 78 2D 61 6E 73 69 00 00 ........x-ansi..
0041F730 24 55 52 4C 3A 20 68 74 74 70 73 3A 2F 2F 6A 63 $URL: https://jc
0041F740 6C 2E 73 76 6E 2E 73 6F 75 72 63 65 66 6F 72 67 l.svn.sourceforg
0041F750 65 2E 6E 65 74 2F 73 76 6E 72 6F 6F 74 2F 6A 63 e.net/svnroot/jc
0041F760 6C 2F 74 61 67 73 2F 4A 43 4C 2D 32 2E 34 2D 42 l/tags/JCL-2.4-B
0041F770 75 69 6C 64 34 35 37 31 2F 6A 63 6C 2F 73 6F 75 uild4571/jcl/sou
0041F780 72 63 65 2F 63 6F 6D 6D 6F 6E 2F 4A 63 6C 43 68 rce/common/JclCh
0041F790 61 72 73 65 74 73 2E 70 61 73 20 24 00 00 00 00 arsets.pas $....
0041F7A0 24 52 65 76 69 73 69 6F 6E 3A 20 33 38 31 39 20 $Revision: 3819 
0041F7B0 24 00 00 00 24 44 61 74 65 3A 20 32 30 31 32 2D $...$Date: 2012-
0041F7C0 30 38 2D 31 34 20 31 31 3A 32 35 3A 35 32 20 2B 08-14 11:25:52 +
0041F7D0 30 32 30 30 20 28 54 75 65 2C 20 31 34 20 41 75 0200 (Tue, 14 Au
0041F7E0 67 20 32 30 31 32 29 20 24 00 00 00 4A 43 4C 5C g 2012) $...JCL\
0041F7F0 73 6F 75 72 63 65 5C 63 6F 6D 6D 6F 6E 00 00 00 source\common...
0041F800 00 00 00 00 55 8B EC 33 C0 55 68 4A F8 41 00 64 ....U..3.UhJ.A.d
0041F810 FF 30 64 89 20 FF 05 10 B9 42 00 75 1F A1 68 B6 .0d. ....B.u..h.
0041F820 42 00 E8 F1 6A 00 00 B8 30 87 42 00 B9 1E 01 00 B...j...0.B.....
0041F830 00 8B 15 4C E1 41 00 E8 70 54 FE FF 33 C0 5A 59 ...L.A..pT..3.ZY
0041F840 59 64 89 10 68 51 F8 41 00 C3 E9 D5 43 FE FF EB Yd..hQ.A....C...
0041F850 F8 5D C3 90 83 2D 10 B9 42 00 01 73 0F BA 20 90 .]...-..B..s.. .
0041F860 42 00 A1 68 B6 42 00 E8 90 6A 00 00 C3 8D 40 00 B..h.B...j....@.
0041F870 24 55 52 4C 3A 20 68 74 74 70 73 3A 2F 2F 6A 63 $URL: https://jc
0041F880 6C 2E 73 76 6E 2E 73 6F 75 72 63 65 66 6F 72 67 l.svn.sourceforg
0041F890 65 2E 6E 65 74 2F 73 76 6E 72 6F 6F 74 2F 6A 63 e.net/svnroot/jc
0041F8A0 6C 2F 74 61 67 73 2F 4A 43 4C 2D 32 2E 34 2D 42 l/tags/JCL-2.4-B
0041F8B0 75 69 6C 64 34 35 37 31 2F 6A 63 6C 2F 73 6F 75 uild4571/jcl/sou
0041F8C0 72 63 65 2F 63 6F 6D 6D 6F 6E 2F 4A 63 6C 38 30 rce/common/Jcl80
0041F8D0 38 37 2E 70 61 73 20 24 00 00 00 00 24 52 65 76 87.pas $....$Rev
0041F8E0 69 73 69 6F 6E 3A 20 33 35 39 39 20 24 00 00 00 ision: 3599 $...
0041F8F0 24 44 61 74 65 3A 20 32 30 31 31 2D 30 39 2D 30 $Date: 2011-09-0
0041F900 33 20 30 30 3A 30 37 3A 35 30 20 2B 30 32 30 30 3 00:07:50 +0200
0041F910 20 28 53 61 74 2C 20 30 33 20 53 65 70 20 32 30  (Sat, 03 Sep 20
0041F920 31 31 29 20 24 00 00 00 4A 43 4C 5C 73 6F 75 72 11) $...JCL\sour
0041F930 63 65 5C 63 6F 6D 6D 6F 6E 00 00 00 00 00 00 00 ce\common.......
0041F940 55 8B EC 33 C0 55 68 71 F9 41 00 64 FF 30 64 89 U..3.Uhq.A.d.0d.
0041F950 20 FF 05 14 B9 42 00 75 0A A1 68 B6 42 00 E8 B5  ....B.u..h.B...
0041F960 69 00 00 33 C0 5A 59 59 64 89 10 68 78 F9 41 00 i..3.ZYYd..hx.A.
0041F970 C3 E9 AE 42 FE FF EB F8 5D C3 8B C0 83 2D 14 B9 ...B....]....-..
0041F980 42 00 01 73 0F BA 38 90 42 00 A1 68 B6 42 00 E8 B..s..8.B..h.B..
0041F990 68 69 00 00 C3 8D 40 00 24 55 52 4C 3A 20 68 74 hi....@.$URL: ht
0041F9A0 74 70 73 3A 2F 2F 6A 63 6C 2E 73 76 6E 2E 73 6F tps://jcl.svn.so
0041F9B0 75 72 63 65 66 6F 72 67 65 2E 6E 65 74 2F 73 76 urceforge.net/sv
0041F9C0 6E 72 6F 6F 74 2F 6A 63 6C 2F 74 61 67 73 2F 4A nroot/jcl/tags/J
0041F9D0 43 4C 2D 32 2E 34 2D 42 75 69 6C 64 34 35 37 31 CL-2.4-Build4571
0041F9E0 2F 6A 63 6C 2F 73 6F 75 72 63 65 2F 63 6F 6D 6D /jcl/source/comm
0041F9F0 6F 6E 2F 4A 63 6C 4D 61 74 68 2E 70 61 73 20 24 on/JclMath.pas $
0041FA00 00 00 00 00 24 52 65 76 69 73 69 6F 6E 3A 20 33 ....$Revision: 3
0041FA10 35 39 39 20 24 00 00 00 24 44 61 74 65 3A 20 32 599 $...$Date: 2
0041FA20 30 31 31 2D 30 39 2D 30 33 20 30 30 3A 30 37 3A 011-09-03 00:07:
0041FA30 35 30 20 2B 30 32 30 30 20 28 53 61 74 2C 20 30 50 +0200 (Sat, 0
0041FA40 33 20 53 65 70 20 32 30 31 31 29 20 24 00 00 00 3 Sep 2011) $...
0041FA50 4A 43 4C 5C 73 6F 75 72 63 65 5C 63 6F 6D 6D 6F JCL\source\commo
0041FA60 6E 00 00 00 00 00 00 00 FF FF FF FF 08 00 00 00 n...............
0041FA70 25 67 20 2B 20 25 67 69 00 00 00 00 FF FF FF FF %g + %gi........
0041FA80 08 00 00 00 25 67 20 65 5E 25 67 69 00 00 00 00 ....%g e^%gi....
0041FA90 55 8B EC 33 C0 55 68 D5 FA 41 00 64 FF 30 64 89 U..3.Uh..A.d.0d.
0041FAA0 20 FF 05 18 B9 42 00 75 1E A1 68 B6 42 00 E8 65  ....B.u..h.B..e
0041FAB0 68 00 00 B8 6C 90 42 00 E8 83 47 FE FF B8 68 90 h...l.B...G...h.
0041FAC0 42 00 E8 79 47 FE FF 33 C0 5A 59 59 64 89 10 68 B..yG..3.ZYYd..h
0041FAD0 DC FA 41 00 C3 E9 4A 41 FE FF EB F8 5D C3 8B C0 ..A...JA....]...
0041FAE0 83 2D 18 B9 42 00 01 73 0F BA 50 90 42 00 A1 68 .-..B..s..P.B..h
0041FAF0 B6 42 00 E8 04 68 00 00 C3 8D 40 00 55 8B EC 33 .B...h....@.U..3
0041FB00 C0 55 68 21 FB 41 00 64 FF 30 64 89 20 FF 05 1C .Uh!.A.d.0d. ...
0041FB10 B9 42 00 33 C0 5A 59 59 64 89 10 68 28 FB 41 00 .B.3.ZYYd..h(.A.
0041FB20 C3 E9 FE 40 FE FF EB F8 5D C3 8B C0 83 2D 1C B9 ...@....]....-..
0041FB30 42 00 01 C3 68 B6 42 00 2C FF 00 00 68 B6 42 00 B...h.B.,...h.B.
0041FB40 2D FF 00 00 68 B6 42 00 2E FF 00 00 68 B6 42 00 -...h.B.....h.B.
0041FB50 2F FF 00 00 55 8B EC 33 C0 55 68 79 FB 41 00 64 /...U..3.Uhy.A.d
0041FB60 FF 30 64 89 20 FF 05 20 B9 42 00 33 C0 5A 59 59 .0d. .. .B.3.ZYY
0041FB70 64 89 10 68 80 FB 41 00 C3 E9 A6 40 FE FF EB F8 d..h..A....@....
0041FB80 5D C3 8B C0 83 2D 20 B9 42 00 01 C3 D8 FB 41 00 ]....- .B.....A.
0041FB90 00 00 00 00 00 00 00 00 00 00 00 00 00 00 00 00 ................
0041FBA0 00 00 00 00 00 00 00 00 00 00 00 00 D8 FB 41 00 ..............A.
0041FBB0 0C 00 00 00 74 6B 40 00 54 39 40 00 60 39 40 00 ....tk@.T9@.`9@.
0041FBC0 64 39 40 00 68 39 40 00 5C 39 40 00 B8 36 40 00 d9@.h9@.\9@..6@.
0041FBD0 D4 36 40 00 10 37 40 00 09 45 4F 6C 65 45 72 72 .6@..7@..EOleErr
0041FBE0 6F 72 8B C0 30 FC 41 00 00 00 00 00 00 00 00 00 or..0.A.........
0041FBF0 00 00 00 00 00 00 00 00 00 00 00 00 00 00 00 00 ................
0041FC00 00 00 00 00 30 FC 41 00 10 00 00 00 8C FB 41 00 ....0.A.......A.
0041FC10 54 39 40 00 60 39 40 00 64 39 40 00 68 39 40 00 T9@.`9@.d9@.h9@.
0041FC20 5C 39 40 00 B8 36 40 00 D4 36 40 00 10 37 40 00 \9@..6@..6@..7@.
0041FC30 0C 45 4F 6C 65 53 79 73 45 72 72 6F 72 8D 40 00 .EOleSysError.@.
0041FC40 8C FC 41 00 00 00 00 00 00 00 00 00 8C FC 41 00 ..A...........A.
0041FC50 00 00 00 00 00 00 00 00 00 00 00 00 00 00 00 00 ................
0041FC60 A6 FC 41 00 18 00 00 00 E4 FB 41 00 54 39 40 00 ..A.......A.T9@.
0041FC70 60 39 40 00 64 39 40 00 68 39 40 00 5C 39 40 00 `9@.d9@.h9@.\9@.
0041FC80 B8 36 40 00 D4 36 40 00 10 37 40 00 0E 00 00 00 .6@..6@..7@.....
0041FC90 00 00 02 00 00 00 44 10 40 00 10 00 00 00 44 10 ......D.@.....D.
0041FCA0 40 00 14 00 00 00 0D 45 4F 6C 65 45 78 63 65 70 @......EOleExcep
0041FCB0 74 69 6F 6E FF FF FF FF 09 00 00 00 41 70 61 72 tion........Apar
0041FCC0 74 6D 65 6E 74 00 00 00 FF FF FF FF 04 00 00 00 tment...........
0041FCD0 46 72 65 65 00 00 00 00 FF FF FF FF 04 00 00 00 Free............
0041FCE0 42 6F 74 68 00 00 00 00 FF FF FF FF 07 00 00 00 Both............
0041FCF0 4E 65 75 74 72 61 6C 00 53 56 8B DA 8B F0 8B C3 Neutral.SV......
0041FD00 8B D6 E8 8D 45 FE FF 8B 03 E8 52 82 FE FF 8B F0 ....E.....R.....
0041FD10 EB 1B 8B 03 E8 E7 49 FE FF 8B D6 2B D0 8B C3 E8 ......I....+....
0041FD20 0C 4B FE FF 8B 03 E8 35 82 FE FF 8B F0 8B 03 E8 .K.....5........
0041FD30 CC 47 FE FF 85 C0 7E 0A 8A 06 2C 21 72 D4 2C 0D .G....~...,!r.,.
0041FD40 74 D0 5E 5B C3 8D 40 00 55 8B EC 83 C4 EC 53 56 t.^[..@.U.....SV
0041FD50 57 33 DB 89 5D F4 89 5D F8 84 D2 74 08 83 C4 F0 W3..]..]...t....
0041FD60 E8 2B 3C FE FF 8B F9 88 55 FF 8B D8 8B 75 0C 33 .+<.....U....u.3
0041FD70 C0 55 68 EF FD 41 00 64 FF 30 64 89 20 8D 45 F8 .Uh..A.d.0d. .E.
0041FD80 8B D7 E8 51 45 FE FF 83 7D F8 00 75 34 8D 55 F8 ...QE...}..u4.U.
0041FD90 8B C6 E8 59 AA FE FF 83 7D F8 00 75 24 6A 00 8D ...Y....}..u$j..
0041FDA0 55 F4 A1 88 A6 42 00 E8 A4 62 FE FF 8B 55 F4 89 U....B...b...U..
0041FDB0 75 EC C6 45 F0 00 8D 4D EC 8D 45 F8 E8 57 89 FE u..E...M..E..W..
0041FDC0 FF 8B 45 08 50 8B 4D F8 33 D2 8B C3 E8 C3 B3 FE ..E.P.M.3.......
0041FDD0 FF 89 73 0C 33 C0 5A 59 59 64 89 10 68 F6 FD 41 ..s.3.ZYYd..h..A
0041FDE0 00 8D 45 F4 BA 02 00 00 00 E8 76 44 FE FF C3 E9 ..E.......vD....
0041FDF0 30 3E FE FF EB EB 8B C3 80 7D FF 00 74 0F E8 E5 0>.......}..t...
0041FE00 3B FE FF 64 8F 05 00 00 00 00 83 C4 0C 8B C3 5F ;..d..........._
0041FE10 5E 5B 8B E5 5D C2 08 00 55 8B EC 6A 00 53 56 57 ^[..]...U..j.SVW
0041FE20 84 D2 74 08 83 C4 F0 E8 64 3B FE FF 8B F1 8B DA ..t.....d;......
0041FE30 8B F8 33 C0 55 68 8A FE 41 00 64 FF 30 64 89 20 ..3.Uh..A.d.0d. 
0041FE40 8B 45 14 50 8B 45 08 50 8D 55 FC 8B C6 E8 A6 FE .E.P.E.P.U......
0041FE50 FF FF 8B 4D FC 33 D2 8B C7 E8 EA FE FF FF 8D 47 ...M.3.........G
0041FE60 10 8B 55 10 E8 2B 44 FE FF 8D 47 14 8B 55 0C E8 ..U..+D...G..U..
0041FE70 20 44 FE FF 33 C0 5A 59 59 64 89 10 68 91 FE 41  D..3.ZYYd..h..A
0041FE80 00 8D 45 FC E8 B7 43 FE FF C3 E9 95 3D FE FF EB ..E...C.....=...
0041FE90 F0 8B C7 84 DB 74 0F E8 4C 3B FE FF 64 8F 05 00 .....t..L;..d...
0041FEA0 00 00 00 83 C4 0C 8B C7 5F 5E 5B 59 5D C2 10 00 ........_^[Y]...
0041FEB0 53 8B D8 53 6A 00 33 C9 B2 01 A1 E4 FB 41 00 E8 S..Sj.3......A..
0041FEC0 84 FE FF FF E8 93 3D FE FF 5B C3 90 53 8B D8 8B ......=..[..S...
0041FED0 C3 E8 72 32 FF FF 84 C0 75 07 8B C3 E8 CF FF FF ..r2....u.......
0041FEE0 FF 5B C3 90 53 68 58 FF 41 00 E8 D1 65 FE FF 8B .[..ShX.A...e...
0041FEF0 D8 85 DB 74 60 68 64 FF 41 00 53 E8 C8 65 FE FF ...t`hd.A.S..e..
0041FF00 A3 70 90 42 00 68 78 FF 41 00 53 E8 B8 65 FE FF .p.B.hx.A.S..e..
0041FF10 A3 74 90 42 00 68 88 FF 41 00 53 E8 A8 65 FE FF .t.B.h..A.S..e..
0041FF20 A3 78 90 42 00 68 A0 FF 41 00 53 E8 98 65 FE FF .x.B.h..A.S..e..
0041FF30 A3 7C 90 42 00 68 B8 FF 41 00 53 E8 88 65 FE FF .|.B.h..A.S..e..
0041FF40 A3 80 90 42 00 68 D0 FF 41 00 53 E8 78 65 FE FF ...B.h..A.S.xe..
0041FF50 A3 84 90 42 00 5B C3 00 6F 6C 65 33 32 2E 64 6C ...B.[..ole32.dl
0041FF60 6C 00 00 00 43 6F 43 72 65 61 74 65 49 6E 73 74 l...CoCreateInst
0041FF70 61 6E 63 65 45 78 00 00 43 6F 49 6E 69 74 69 61 anceEx..CoInitia
0041FF80 6C 69 7A 65 45 78 00 00 43 6F 41 64 64 52 65 66 lizeEx..CoAddRef
0041FF90 53 65 72 76 65 72 50 72 6F 63 65 73 73 00 00 00 ServerProcess...
0041FFA0 43 6F 52 65 6C 65 61 73 65 53 65 72 76 65 72 50 CoReleaseServerP
0041FFB0 72 6F 63 65 73 73 00 00 43 6F 52 65 73 75 6D 65 rocess..CoResume
0041FFC0 43 6C 61 73 73 4F 62 6A 65 63 74 73 00 00 00 00 ClassObjects....
0041FFD0 43 6F 53 75 73 70 65 6E 64 43 6C 61 73 73 4F 62 CoSuspendClassOb
0041FFE0 6A 65 63 74 73 00 00 00 55 8B EC 33 C9 51 51 51 jects...U..3.QQQ
0041FFF0 51 51 51 51 51 53 56 8B F2 8B D8 33 C0 55 68 D8 QQQQQSV....3.Uh.
00420000 00 42 00 64 FF 30 64 89 20 33 C0 89 45 EC 8D 45 .B.d.0d. 3..E..E
00420010 FC E8 B2 5B FE FF 50 6A 00 E8 22 31 FF FF 85 C0 ...[..Pj.."1....
00420020 75 43 8D 45 F8 E8 D6 48 FE FF 50 8B 45 FC 50 8B uC.E...H..P.E.P.
00420030 00 FF 50 10 8D 45 F4 E8 C4 48 FE FF 50 8B 45 FC ..P..E...H..P.E.
00420040 50 8B 00 FF 50 14 8D 45 F0 E8 B2 48 FE FF 50 8B P...P..E...H..P.
00420050 45 FC 50 8B 00 FF 50 18 8D 45 EC 50 8B 45 FC 50 E.P...P..E.P.E.P
00420060 8B 00 FF 50 1C 56 53 8D 45 E8 8B 55 F8 E8 56 44 ...P.VS.E..U..VD
00420070 FE FF 8B 45 E8 50 8D 45 E4 8B 55 F0 E8 47 44 FE ...E.P.E..U..GD.
00420080 FF 8B 45 E4 50 8B 45 EC 50 8D 45 E0 8B 55 F4 E8 ..E.P.E.P.E..U..
00420090 34 44 FE FF 8B 4D E0 B2 01 A1 40 FC 41 00 E8 75 4D...M....@.A..u
004200A0 FD FF FF E9 B4 3B FE FF 33 C0 5A 59 59 64 89 10 .....;..3.ZYYd..
004200B0 68 DF 00 42 00 8D 45 E0 BA 03 00 00 00 E8 A2 41 h..B..E........A
004200C0 FE FF 8D 45 F0 BA 03 00 00 00 E8 49 48 FE FF 8D ...E.......IH...
004200D0 45 FC E8 F1 5A FE FF C3 E9 47 3B FE FF EB D6 5E E...Z....G;....^
004200E0 5B 8B E5 5D C3 8D 40 00 55 8B EC 81 C4 B0 F9 FF [..]..@.U.......
004200F0 FF 53 56 57 89 4D F8 8B F2 89 45 FC 8D 45 B0 8B .SVW.M....E..E..
00420100 15 F4 30 41 00 E8 86 4A FE FF 33 C0 55 68 1B 04 ..0A...J..3.Uh..
00420110 42 00 64 FF 30 64 89 20 33 C0 89 45 F0 33 C9 55 B.d.0d. 3..E.3.U
00420120 68 F8 03 42 00 64 FF 31 64 89 21 0F B6 7E 01 83 h..B.d.1d.!..~..
00420130 FF 40 7E 17 8B 0D 50 A7 42 00 B2 01 A1 40 FC 41 .@~...P.B....@.A
00420140 00 E8 7E AF FE FF E8 11 3B FE FF 85 FF 0F 84 C3 ..~.....;.......
00420150 01 00 00 8B 45 0C 89 45 EC 8B C7 03 C0 8D 84 C5 ....E..E........
00420160 B0 F9 FF FF 89 45 E8 33 DB 83 6D E8 10 8A 44 1E .....E.3..m...D.
00420170 03 8B D0 80 E2 7F 81 E2 FF 00 00 00 89 55 F4 24 .............U.$
00420180 80 83 7D F4 0A 75 18 8B 45 E8 C7 00 0A 00 00 00 ..}..u..E.......
00420190 8B 45 E8 C7 40 08 04 00 02 80 E9 6E 01 00 00 83 .E..@......n....
004201A0 7D F4 48 75 74 8B 55 F0 8D 94 D5 B0 FD FF FF 89 }.Hut.U.........
004201B0 55 E4 84 C0 74 30 8B 45 EC 8B 00 8B 00 E8 5E 4E U...t0.E......^N
004201C0 FE FF 8B 55 E4 89 02 8B 45 EC 8B 00 8B 55 E4 89 ...U....E....U..
004201D0 42 04 8B 45 E8 C7 00 08 40 00 00 8B 45 E4 8B 55 B..E....@...E..U
004201E0 E8 89 42 08 EB 2B 8B 45 EC 8B 00 E8 30 4E FE FF ..B..+.E....0N..
004201F0 8B 55 E4 89 02 8B 45 E4 33 D2 89 50 04 8B 45 E8 .U....E.3..P..E.
00420200 C7 00 08 00 00 00 8B 45 E4 8B 00 8B 55 E8 89 42 .......E....U..B
00420210 08 FF 45 F0 E9 F0 00 00 00 84 C0 74 45 83 7D F4 ..E........tE.}.
00420220 0C 75 22 8B 45 EC 8B 00 66 81 38 00 01 75 16 8B .u".E...f.8..u..
00420230 45 EC 8B 00 8B D0 8B 45 EC 8B 00 B9 08 00 00 00 E......E........
00420240 E8 EF E7 FE FF 8B 45 F4 0D 00 40 00 00 8B 55 E8 ......E...@...U.
00420250 89 02 8B 45 EC 8B 00 8B 55 E8 89 42 08 E9 A7 00 ...E....U..B....
00420260 00 00 83 7D F4 0C 75 73 8B 45 EC 66 81 38 00 01 ...}..us.E.f.8..
00420270 75 3E 8B 45 F0 8D 84 C5 B0 FD FF FF 89 45 E0 8B u>.E.........E..
00420280 45 EC 8B 40 08 E8 96 4D FE FF 8B 55 E0 89 02 8B E..@...M...U....
00420290 45 E0 33 D2 89 50 04 8B 45 E8 C7 00 08 00 00 00 E.3..P..E.......
004202A0 8B 45 E0 8B 00 8B 55 E8 89 42 08 FF 45 F0 EB 59 .E....U..B..E..Y
004202B0 8B 45 EC 8B 10 8B 4D E8 89 11 8B 50 04 8B 4D E8 .E....M....P..M.
004202C0 89 51 04 8B 50 08 8B 4D E8 89 51 08 8B 40 0C 8B .Q..P..M..Q..@..
004202D0 55 E8 89 42 0C 83 45 EC 0C EB 2E 8B 45 E8 8B 55 U..B..E.....E..U
004202E0 F4 89 10 8B 45 EC 8B 00 8B 55 E8 89 42 08 83 7D ....E....U..B..}
004202F0 F4 05 7C 15 83 7D F4 07 7F 0F 83 45 EC 04 8B 45 ..|..}.....E...E
00420300 EC 8B 00 8B 55 E8 89 42 0C 83 45 EC 04 43 3B FB ....U..B..E..C;.
00420310 0F 85 53 FE FF FF 8D 85 B0 F9 FF FF 89 45 D0 8B ..S..........E..
00420320 45 F8 83 C0 04 89 45 D4 89 7D D8 33 C0 8A 46 02 E.....E..}.3..F.
00420330 89 45 DC 8B 45 F8 8B 10 33 C0 8A 06 83 F8 04 75 .E..E...3......u
00420340 28 8B 8D B0 F9 FF FF 81 E1 FF 0F 00 00 83 F9 09 (...............
00420350 75 05 B8 08 00 00 00 8B 4D F8 C7 01 FD FF FF FF u.......M.......
00420360 83 6D D4 04 FF 45 DC EB 14 83 F8 01 75 0F 85 FF .m...E......u...
00420370 75 0B 83 7D 08 00 74 05 B8 03 00 00 00 6A 00 8D u..}..t......j..
00420380 4D B0 51 8B 4D 08 51 8D 4D D0 51 50 6A 00 A1 54 M.Q.M.Q.M.QPj..T
00420390 A6 42 00 50 52 8B 45 FC 50 8B 00 FF 50 18 85 C0 .B.PR.E.P...P...
004203A0 74 08 8D 55 B0 E8 1E 03 00 00 8B 5D F0 85 DB 74 t..U.......]...t
004203B0 20 4B 8D 84 DD B0 FD FF FF 8B 50 04 85 D2 74 0D  K........P...t.
004203C0 8B 08 8B C2 8B D0 8B C1 E8 2F 4C FE FF 85 DB 75 ........./L....u
004203D0 E0 33 C0 5A 59 59 64 89 10 68 FF 03 42 00 8B 5D .3.ZYYd..h..B..]
004203E0 F0 85 DB 74 12 4B 8B 84 DD B0 FD FF FF 50 E8 45 ...t.K.......P.E
004203F0 2D FF FF 85 DB 75 EE C3 E9 27 38 FE FF EB DF 33 -....u...'8....3
00420400 C0 5A 59 59 64 89 10 68 22 04 42 00 8D 45 B0 8B .ZYYd..h".B..E..
00420410 15 F4 30 41 00 E8 46 48 FE FF C3 E9 04 38 FE FF ..0A..FH.....8..
00420420 EB EA 5F 5E 5B 8B E5 5D C2 08 00 90 55 8B EC 83 .._^[..]....U...
00420430 C4 F8 8B 45 08 8B 40 FC 89 45 F8 C6 45 FC 06 8D ...E..@..E..E...
00420440 45 F8 50 6A 00 8B 0D B8 A8 42 00 B2 01 A1 8C FB E.Pj.....B......
00420450 41 00 E8 A9 AC FE FF E8 00 38 FE FF 59 59 5D C3 A........8..YY].
00420460 55 8B EC 83 C4 E4 53 56 57 89 4D F4 89 55 FC 89 U.....SVW.M..U..
00420470 45 E4 8B 5D FC 33 FF 89 65 F8 8B 45 F4 40 C1 E0 E..].3..e..E.@..
00420480 02 29 C4 8D 45 F0 89 20 8B C3 E8 A1 7C FE FF 8B .)..E.. ....|...
00420490 F0 6A 00 6A 00 56 53 6A 00 6A 00 E8 B0 60 FE FF .j.j.VSj.j...`..
004204A0 40 89 45 EC 8B 45 EC 01 C0 83 C0 03 83 E0 FC 29 @.E..E.........)
004204B0 C4 8D 45 E8 89 20 85 FF 75 0A 8B 45 F0 8B 55 E8 ..E.. ..u..E..U.
004204C0 89 10 EB 0E 8B 45 F4 2B C7 8B 55 F0 8B 4D E8 89 .....E.+..U..M..
004204D0 0C 82 8B 45 EC 50 8B 45 E8 50 56 53 6A 00 6A 00 ...E.P.E.PVSj.j.
004204E0 E8 6B 60 FE FF 8B 45 E8 8B 55 EC 66 C7 44 50 FE .k`...E..U.f.DP.
004204F0 00 00 46 03 DE 47 3B 7D F4 75 8D 8B 45 08 50 E8 ..F..G;}.u..E.P.
00420500 EC 5F FE FF 50 8B 45 F4 50 8B 45 F0 50 A1 54 A6 ._..P.E.P.E.P.T.
00420510 42 00 50 8B 45 E4 50 8B 00 FF 50 14 3D 06 00 02 B.P.E.P...P.=...
00420520 80 75 09 55 E8 03 FF FF FF 59 EB 05 E8 9B F9 FF .u.U.....Y......
00420530 FF 8B 65 F8 5F 5E 5B 8B E5 5D C2 04 00 8D 40 00 ..e._^[..]....@.
00420540 8B 0D 2C A9 42 00 B2 01 A1 8C FB 41 00 E8 72 AB ..,.B......A..r.
00420550 FE FF E8 05 37 FE FF C3 55 8B EC 81 C4 FC FE FF ....7...U.......
00420560 FF 53 56 8B 5D 10 8B 45 0C 8B 75 08 80 7B 01 40 .SV.]..E..u..{.@
00420570 76 17 8B 0D 50 A7 42 00 B2 01 A1 8C FB 41 00 E8 v...P.B......A..
00420580 40 AB FE FF E8 D3 36 FE FF 66 8B 10 66 83 FA 09 @.....6..f..f...
00420590 75 08 8B 40 08 89 45 FC EB 16 66 81 FA 09 40 75 u..@..E...f...@u
004205A0 0A 8B 40 08 8B 00 89 45 FC EB 05 E8 90 FF FF FF ..@....E........
004205B0 8D 85 FC FE FF FF 50 33 C9 8A 4B 02 41 33 C0 8A ......P3..K.A3..
004205C0 43 01 8D 54 03 03 8B 45 FC E8 92 FE FF FF 85 F6 C..T...E........
004205D0 74 07 8B C6 E8 53 DE FE FF 8B 45 14 50 56 8D 8D t....S....E.PV..
004205E0 FC FE FF FF 8B D3 8B 45 FC E8 FA FA FF FF 5E 5B .......E......^[
004205F0 8B E5 5D C3 55 8B EC 6A 00 6A 00 6A 00 6A 00 53 ..].U..j.j.j.j.S
00420600 56 89 4D FC 8B DA 33 D2 55 68 B9 06 42 00 64 FF V.M...3.Uh..B.d.
00420610 32 64 89 22 3D 09 00 02 80 75 57 8B 43 1C 50 8D 2d."=....uW.C.P.
00420620 45 F8 8B 53 04 E8 9E 3E FE FF 8B 45 F8 50 8D 45 E..S...>...E.P.E
00420630 F4 8B 53 0C E8 8F 3E FE FF 8B 45 F4 50 8B 43 10 ..S...>...E.P.C.
00420640 50 8D 45 F0 8B 53 08 E8 7C 3E FE FF 8B 4D F0 B2 P.E..S..|>...M..
00420650 01 A1 40 FC 41 00 E8 BD F7 FF FF 8B F0 80 7D 08 ..@.A.........}.
00420660 00 74 22 8B C3 8B 15 F4 30 41 00 E8 28 47 FE FF .t".....0A..(G..
00420670 EB 13 50 6A 00 33 C9 B2 01 A1 E4 FB 41 00 E8 C5 ..Pj.3......A...
00420680 F6 FF FF 8B F0 83 7D FC 00 74 0C FF 75 FC 8B C6 ......}..t..u...
00420690 E9 C7 35 FE FF EB 07 8B C6 E8 BE 35 FE FF 33 C0 ..5........5..3.
004206A0 5A 59 59 64 89 10 68 C0 06 42 00 8D 45 F0 BA 03 ZYYd..h..B..E...
004206B0 00 00 00 E8 AC 3B FE FF C3 E9 66 35 FE FF EB EB .....;....f5....
004206C0 5E 5B 8B E5 5D C2 04 00 6A 00 33 C9 E8 23 FF FF ^[..]...j.3..#..
004206D0 FF C3 8B C0 33 C9 BA 20 00 00 00 E8 40 29 FE FF ....3.. ....@)..
004206E0 C3 8D 40 00 55 8B EC 83 C4 D0 53 56 57 8B 5D 0C ..@.U.....SVW.].
004206F0 31 D2 89 E7 0F B6 4B 01 89 4D F8 85 C9 74 4B 83 1.....K..M...tK.
00420700 C3 03 8B 75 18 0F B6 03 A8 80 75 28 3C 0C 74 14 ...u......u(<.t.
00420710 3C 05 72 27 3C 07 77 23 FF 76 04 FF 36 52 50 83 <.r'<.w#.v..6RP.
00420720 C6 08 EB 1F FF 76 0C FF 76 08 FF 76 04 FF 36 83 .....v..v..v..6.
00420730 C6 10 EB 0F 24 7F 0D 00 40 00 00 52 FF 36 52 50 ....$...@..R.6RP
00420740 83 C6 04 43 49 75 BE 8B 5D 0C 89 65 F0 0F B6 43 ...CIu..]..e...C
00420750 02 89 45 FC 85 C0 74 0A 8B 75 14 FF 74 86 FC 48 ..E...t..u..t..H
00420760 75 F9 0F B6 0B 83 F9 04 75 16 6A FD FF 45 FC 80 u.......u.j..E..
00420770 7B 03 09 74 06 80 7B 03 0D 75 05 B9 08 00 00 00 {..t..{..u......
00420780 89 65 F4 52 8D 45 D0 50 51 52 E8 45 FF FF FF 5A .e.R.E.PQR.E...Z
00420790 59 FF 75 1C 8D 45 F0 50 51 52 68 98 83 42 00 FF Y.u..E.PQRh..B..
004207A0 75 10 8B 45 08 50 8B 00 FF 50 18 85 C0 74 0E 8D u..E.P...P...t..
004207B0 55 D0 B1 01 51 8B 4D 04 E9 37 FE FF FF 89 FC 5F U...Q.M..7....._
004207C0 5E 5B 8B E5 5D C2 18 00 55 8B EC 53 8B 5D 10 31 ^[..]...U..S.].1
004207D0 C0 50 50 50 50 89 E0 50 8D 45 14 50 50 FF 33 8D .PPPP..P.E.PP.3.
004207E0 43 05 50 FF 75 0C E8 F9 FE FF FF 0F B6 43 04 8B C.P.u........C..
004207F0 5D 08 FF 24 85 F9 07 42 00 9E 08 42 00 9E 08 42 ]..$...B...B...B
00420800 00 9A 08 42 00 9A 08 42 00 3D 08 42 00 43 08 42 ...B...B.=.B.C.B
00420810 00 49 08 42 00 43 08 42 00 4F 08 42 00 63 08 42 .I.B.C.B.O.B.c.B
00420820 00 9E 08 42 00 9A 08 42 00 77 08 42 00 63 08 42 ...B...B.w.B.c.B
00420830 00 9E 08 42 00 9E 08 42 00 9A 08 42 00 D9 44 24 ...B...B...B..D$
00420840 08 EB 5B DD 44 24 08 EB 55 DF 6C 24 08 EB 4F 8B ..[.D$..U.l$..O.
00420850 03 85 C0 74 06 50 E8 DD 28 FF FF 8B 44 24 08 89 ...t.P..(...D$..
00420860 03 EB 3B 8B 03 85 C0 74 06 50 8B 00 FF 50 08 8B ..;....t.P...P..
00420870 44 24 08 89 03 EB 27 89 D8 E8 AE DB FE FF 8B 04 D$....'.........
00420880 24 89 03 8B 44 24 04 89 43 04 8B 44 24 08 89 43 $...D$..C..D$..C
00420890 08 8B 44 24 0C 89 43 0C EB 04 8B 44 24 08 83 C4 ..D$..C....D$...
004208A0 10 5B 5D C3 83 3D 30 B9 42 00 00 74 06 FF 15 30 .[]..=0.B..t...0
004208B0 B9 42 00 83 3D 88 90 42 00 FF 74 4C 83 3D 74 90 .B..=..B..tL.=t.
004208C0 42 00 00 74 43 A1 88 90 42 00 50 6A 00 FF 15 74 B..tC...B.Pj...t
004208D0 90 42 00 E8 70 28 FF FF A2 34 B9 42 00 A1 C4 A6 .B..p(...4.B....
004208E0 42 00 80 38 00 75 16 F6 05 88 90 42 00 02 75 0D B..8.u.....B..u.
004208F0 83 3D 88 90 42 00 00 74 04 33 C0 EB 02 B0 01 8B .=..B..t.3......
00420900 15 C4 A6 42 00 88 02 C3 6A 00 E8 19 28 FF FF E8 ...B....j...(...
00420910 34 28 FF FF A2 34 B9 42 00 C3 8B C0 55 8B EC 33 4(...4.B....U..3
00420920 C0 55 68 92 09 42 00 64 FF 30 64 89 20 FF 05 24 .Uh..B.d.0d. ..$
00420930 B9 42 00 75 4F C6 05 28 B9 42 00 01 A1 2C B9 42 .B.uO..(.B...,.B
00420940 00 E8 DA 2D FE FF A1 D4 A8 42 00 33 D2 89 10 A1 ...-.....B.3....
00420950 64 A6 42 00 33 D2 89 10 A1 84 A8 42 00 33 D2 89 d.B.3......B.3..
00420960 10 80 3D 34 B9 42 00 00 74 05 E8 C1 27 FF FF B8 ..=4.B..t...'...
00420970 8C 90 42 00 B9 05 00 00 00 8B 15 44 10 40 00 E8 ..B........D.@..
00420980 28 43 FE FF 33 C0 5A 59 59 64 89 10 68 99 09 42 (C..3.ZYYd..h..B
00420990 00 C3 E9 8D 32 FE FF EB F8 5D C3 90 83 2D 24 B9 ....2....]...-$.
004209A0 42 00 01 73 4B E8 3A F5 FF FF B8 58 05 42 00 8B B..sK.:....X.B..
004209B0 15 84 A8 42 00 89 02 A1 64 A6 42 00 C7 00 C8 07 ...B....d.B.....
004209C0 42 00 B8 E8 FF 41 00 8B 15 D4 A8 42 00 89 02 A1 B....A.....B....
004209D0 08 A6 42 00 80 38 00 75 17 A1 D4 A7 42 00 8B 00 ..B..8.u....B...
004209E0 A3 30 B9 42 00 A1 D4 A7 42 00 C7 00 A4 08 42 00 .0.B....B.....B.
004209F0 C3 8D 40 00 55 8B EC 33 C0 55 68 19 0A 42 00 64 ..@.U..3.Uh..B.d
00420A00 FF 30 64 89 20 FF 05 38 B9 42 00 33 C0 5A 59 59 .0d. ..8.B.3.ZYY
00420A10 64 89 10 68 20 0A 42 00 C3 E9 06 32 FE FF EB F8 d..h .B....2....
00420A20 5D C3 8B C0 83 2D 38 B9 42 00 01 C3 55 8B EC 33 ]....-8.B...U..3
00420A30 C0 55 68 51 0A 42 00 64 FF 30 64 89 20 FF 05 3C .UhQ.B.d.0d. ..<
00420A40 B9 42 00 33 C0 5A 59 59 64 89 10 68 58 0A 42 00 .B.3.ZYYd..hX.B.
00420A50 C3 E9 CE 31 FE FF EB F8 5D C3 8B C0 83 2D 3C B9 ...1....]....-<.
00420A60 42 00 01 C3 55 8B EC 33 C0 55 68 89 0A 42 00 64 B...U..3.Uh..B.d
00420A70 FF 30 64 89 20 FF 05 40 B9 42 00 33 C0 5A 59 59 .0d. ..@.B.3.ZYY
00420A80 64 89 10 68 90 0A 42 00 C3 E9 96 31 FE FF EB F8 d..h..B....1....
00420A90 5D C3 8B C0 83 2D 40 B9 42 00 01 C3 55 8B EC 33 ]....-@.B...U..3
00420AA0 C0 55 68 C1 0A 42 00 64 FF 30 64 89 20 FF 05 44 .Uh..B.d.0d. ..D
00420AB0 B9 42 00 33 C0 5A 59 59 64 89 10 68 C8 0A 42 00 .B.3.ZYYd..h..B.
00420AC0 C3 E9 5E 31 FE FF EB F8 5D C3 8B C0 83 2D 44 B9 ..^1....]....-D.
00420AD0 42 00 01 C3 55 8B EC 33 C0 55 68 F9 0A 42 00 64 B...U..3.Uh..B.d
00420AE0 FF 30 64 89 20 FF 05 48 B9 42 00 33 C0 5A 59 59 .0d. ..H.B.3.ZYY
00420AF0 64 89 10 68 00 0B 42 00 C3 E9 26 31 FE FF EB F8 d..h..B...&1....
00420B00 5D C3 8B C0 83 2D 48 B9 42 00 01 C3 55 8B EC 33 ]....-H.B...U..3
00420B10 C0 55 68 31 0B 42 00 64 FF 30 64 89 20 FF 05 4C .Uh1.B.d.0d. ..L
00420B20 B9 42 00 33 C0 5A 59 59 64 89 10 68 38 0B 42 00 .B.3.ZYYd..h8.B.
00420B30 C3 E9 EE 30 FE FF EB F8 5D C3 8B C0 83 2D 4C B9 ...0....]....-L.
00420B40 42 00 01 C3 24 55 52 4C 3A 20 68 74 74 70 73 3A B...$URL: https:
00420B50 2F 2F 6A 63 6C 2E 73 76 6E 2E 73 6F 75 72 63 65 //jcl.svn.source
00420B60 66 6F 72 67 65 2E 6E 65 74 2F 73 76 6E 72 6F 6F forge.net/svnroo
00420B70 74 2F 6A 63 6C 2F 74 61 67 73 2F 4A 43 4C 2D 32 t/jcl/tags/JCL-2
00420B80 2E 34 2D 42 75 69 6C 64 34 35 37 31 2F 6A 63 6C .4-Build4571/jcl
00420B90 2F 73 6F 75 72 63 65 2F 77 69 6E 64 6F 77 73 2F /source/windows/
00420BA0 53 6E 6D 70 2E 70 61 73 20 24 00 00 24 52 65 76 Snmp.pas $..$Rev
00420BB0 69 73 69 6F 6E 3A 20 33 35 39 39 20 24 00 00 00 ision: 3599 $...
00420BC0 24 44 61 74 65 3A 20 32 30 31 31 2D 30 39 2D 30 $Date: 2011-09-0
00420BD0 33 20 30 30 3A 30 37 3A 35 30 20 2B 30 32 30 30 3 00:07:50 +0200
00420BE0 20 28 53 61 74 2C 20 30 33 20 53 65 70 20 32 30  (Sat, 03 Sep 20
00420BF0 31 31 29 20 24 00 00 00 4A 43 4C 5C 73 6F 75 72 11) $...JCL\sour
00420C00 63 65 5C 77 69 6E 64 6F 77 73 00 00 00 00 00 00 ce\windows......
00420C10 C3 8D 40 00 C3 8D 40 00 55 8B EC 33 C0 55 68 4E ..@...@.U..3.UhN
00420C20 0C 42 00 64 FF 30 64 89 20 FF 05 50 B9 42 00 75 .B.d.0d. ..P.B.u
00420C30 0F E8 DE FF FF FF A1 68 B6 42 00 E8 D8 56 00 00 .......h.B...V..
00420C40 33 C0 5A 59 59 64 89 10 68 55 0C 42 00 C3 E9 D1 3.ZYYd..hU.B....
00420C50 2F FE FF EB F8 5D C3 90 83 2D 50 B9 42 00 01 73 /....]...-P.B..s
00420C60 14 E8 AA FF FF FF BA A0 90 42 00 A1 68 B6 42 00 .........B..h.B.
00420C70 E8 87 56 00 00 C3 8B C0 55 8B EC 33 C0 55 68 9D ..V.....U..3.Uh.
00420C80 0C 42 00 64 FF 30 64 89 20 FF 05 54 B9 42 00 33 .B.d.0d. ..T.B.3
00420C90 C0 5A 59 59 64 89 10 68 A4 0C 42 00 C3 E9 82 2F .ZYYd..h..B..../
00420CA0 FE FF EB F8 5D C3 8B C0 83 2D 54 B9 42 00 01 C3 ....]....-T.B...
00420CB0 55 8B EC 33 C0 55 68 D5 0C 42 00 64 FF 30 64 89 U..3.Uh..B.d.0d.
00420CC0 20 FF 05 58 B9 42 00 33 C0 5A 59 59 64 89 10 68  ..X.B.3.ZYYd..h
00420CD0 DC 0C 42 00 C3 E9 4A 2F FE FF EB F8 5D C3 8B C0 ..B...J/....]...
00420CE0 83 2D 58 B9 42 00 01 C3 FF FF FF FF 01 00 00 00 .-X.B...........
00420CF0 30 00 00 00 FF FF FF FF 01 00 00 00 31 00 00 00 0...........1...
00420D00 55 8B EC 33 C0 55 68 3C 0D 42 00 64 FF 30 64 89 U..3.Uh<.B.d.0d.
00420D10 20 FF 05 5C B9 42 00 75 15 B8 B8 90 42 00 B9 02  ..\.B.u....B...
00420D20 00 00 00 8B 15 44 10 40 00 E8 7E 3F FE FF 33 C0 .....D.@..~?..3.
00420D30 5A 59 59 64 89 10 68 43 0D 42 00 C3 E9 E3 2E FE ZYYd..hC.B......
00420D40 FF EB F8 5D C3 8D 40 00 83 2D 5C B9 42 00 01 C3 ...]..@..-\.B...
00420D50 24 55 52 4C 3A 20 68 74 74 70 73 3A 2F 2F 6A 63 $URL: https://jc
00420D60 6C 2E 73 76 6E 2E 73 6F 75 72 63 65 66 6F 72 67 l.svn.sourceforg
00420D70 65 2E 6E 65 74 2F 73 76 6E 72 6F 6F 74 2F 6A 63 e.net/svnroot/jc
00420D80 6C 2F 74 61 67 73 2F 4A 43 4C 2D 32 2E 34 2D 42 l/tags/JCL-2.4-B
00420D90 75 69 6C 64 34 35 37 31 2F 6A 63 6C 2F 73 6F 75 uild4571/jcl/sou
00420DA0 72 63 65 2F 63 6F 6D 6D 6F 6E 2F 4A 63 6C 49 6E rce/common/JclIn
00420DB0 69 46 69 6C 65 73 2E 70 61 73 20 24 00 00 00 00 iFiles.pas $....
00420DC0 24 52 65 76 69 73 69 6F 6E 3A 20 33 35 39 39 20 $Revision: 3599 
00420DD0 24 00 00 00 24 44 61 74 65 3A 20 32 30 31 31 2D $...$Date: 2011-
00420DE0 30 39 2D 30 33 20 30 30 3A 30 37 3A 35 30 20 2B 09-03 00:07:50 +
00420DF0 30 32 30 30 20 28 53 61 74 2C 20 30 33 20 53 65 0200 (Sat, 03 Se
00420E00 70 20 32 30 31 31 29 20 24 00 00 00 4A 43 4C 5C p 2011) $...JCL\
00420E10 73 6F 75 72 63 65 5C 63 6F 6D 6D 6F 6E 00 00 00 source\common...
00420E20 00 00 00 00 55 8B EC 33 C0 55 68 55 0E 42 00 64 ....U..3.UhU.B.d
00420E30 FF 30 64 89 20 FF 05 60 B9 42 00 75 0A A1 68 B6 .0d. ..`.B.u..h.
00420E40 42 00 E8 D1 54 00 00 33 C0 5A 59 59 64 89 10 68 B...T..3.ZYYd..h
00420E50 5C 0E 42 00 C3 E9 CA 2D FE FF EB F8 5D C3 8B C0 \.B....-....]...
00420E60 83 2D 60 B9 42 00 01 73 0F BA C0 90 42 00 A1 68 .-`.B..s....B..h
00420E70 B6 42 00 E8 84 54 00 00 C3 8D 40 00 24 55 52 4C .B...T....@.$URL
00420E80 3A 20 68 74 74 70 73 3A 2F 2F 6A 63 6C 2E 73 76 : https://jcl.sv
00420E90 6E 2E 73 6F 75 72 63 65 66 6F 72 67 65 2E 6E 65 n.sourceforge.ne
00420EA0 74 2F 73 76 6E 72 6F 6F 74 2F 6A 63 6C 2F 74 61 t/svnroot/jcl/ta
00420EB0 67 73 2F 4A 43 4C 2D 32 2E 34 2D 42 75 69 6C 64 gs/JCL-2.4-Build
00420EC0 34 35 37 31 2F 6A 63 6C 2F 73 6F 75 72 63 65 2F 4571/jcl/source/
00420ED0 63 6F 6D 6D 6F 6E 2F 4A 63 6C 53 79 73 49 6E 66 common/JclSysInf
00420EE0 6F 2E 70 61 73 20 24 00 24 52 65 76 69 73 69 6F o.pas $.$Revisio
00420EF0 6E 3A 20 33 38 34 33 20 24 00 00 00 24 44 61 74 n: 3843 $...$Dat
00420F00 65 3A 20 32 30 31 32 2D 30 38 2D 32 32 20 31 37 e: 2012-08-22 17
00420F10 3A 34 30 3A 33 33 20 2B 30 32 30 30 20 28 57 65 :40:33 +0200 (We
00420F20 64 2C 20 32 32 20 41 75 67 20 32 30 31 32 29 20 d, 22 Aug 2012) 
00420F30 24 00 00 00 4A 43 4C 5C 73 6F 75 72 63 65 5C 63 $...JCL\source\c
00420F40 6F 6D 6D 6F 6E 00 00 00 00 00 00 00 55 8B EC 81 ommon.......U...
00420F50 C4 3C FF FF FF 53 33 C0 89 45 FC 33 C0 55 68 84 .<...S3..E.3.Uh.
00420F60 11 42 00 64 FF 30 64 89 20 33 DB 8D 55 FC A1 14 .B.d.0d. 3..U...
00420F70 A7 42 00 8B 00 E8 EA 69 FE FF A1 D8 A9 42 00 8B .B.....i.....B..
00420F80 00 48 74 0C 48 0F 84 8F 00 00 00 E9 DE 01 00 00 .Ht.H...........
00420F90 A1 A8 A8 42 00 8B 00 83 E8 0A 72 0C 83 E8 50 72 ...B......r...Pr
00420FA0 33 74 70 E9 C6 01 00 00 8B 45 FC BA 9C 11 42 00 3tp......E....B.
00420FB0 E8 97 36 FE FF 74 0F 8B 45 FC BA A8 11 42 00 E8 ..6..t..E....B..
00420FC0 88 36 FE FF 75 07 B3 02 E9 A1 01 00 00 B3 01 E9 .6..u...........
00420FD0 9A 01 00 00 81 3D 68 B9 42 00 5A 00 04 00 75 07 .....=h.B.Z...u.
00420FE0 B3 05 E9 87 01 00 00 8B 45 FC BA B4 11 42 00 E8 ........E....B..
00420FF0 58 36 FE FF 74 0F 8B 45 FC BA 9C 11 42 00 E8 49 X6..t..E....B..I
00421000 36 FE FF 75 07 B3 04 E9 62 01 00 00 B3 03 E9 5B 6..u....b......[
00421010 01 00 00 B3 05 E9 54 01 00 00 A1 3C A7 42 00 8B ......T....<.B..
00421020 00 83 E8 03 74 12 48 74 3D 48 74 41 48 0F 84 B2 ....t.Ht=HtAH...
00421030 00 00 00 E9 36 01 00 00 A1 A8 A8 42 00 8B 00 48 ....6......B...H
00421040 74 0F 83 E8 04 74 11 83 E8 2E 74 13 E9 1D 01 00 t....t....t.....
00421050 00 B3 06 E9 16 01 00 00 B3 07 E9 0F 01 00 00 B3 ................
00421060 08 E9 08 01 00 00 B3 09 E9 01 01 00 00 A1 A8 A8 ................
00421070 42 00 8B 00 83 E8 01 72 0A 74 0F 48 74 13 E9 EB B......r.t.Ht...
00421080 00 00 00 B3 0A E9 E4 00 00 00 B3 0B E9 DD 00 00 ................
00421090 00 C7 85 3C FF FF FF 9C 00 00 00 33 C0 89 45 D8 ...<.......3..E.
004210A0 8D 45 D8 E8 10 01 00 00 6A 59 E8 A9 56 FE FF 85 .E......jY..V...
004210B0 C0 74 07 B3 0E E9 B4 00 00 00 66 83 7D D8 00 74 .t........f.}..t
004210C0 1D 8D 85 3C FF FF FF 50 E8 C3 CD FF FF 85 C0 74 ...<...P.......t
004210D0 0D 80 7D D6 01 75 07 B3 0D E9 90 00 00 00 B3 0C ..}..u..........
004210E0 E9 89 00 00 00 A1 A8 A8 42 00 8B 00 83 E8 01 72 ........B......r
004210F0 07 74 2D 48 74 52 EB 76 C7 85 3C FF FF FF 9C 00 .t-HtR.v..<.....
00421100 00 00 8D 85 3C FF FF FF 50 E8 82 CD FF FF 85 C0 ....<...P.......
00421110 74 0A 80 7D D6 01 75 04 B3 0F EB 52 B3 10 EB 4E t..}..u....R...N
00421120 C7 85 3C FF FF FF 9C 00 00 00 8D 85 3C FF FF FF ..<.........<...
00421130 50 E8 5A CD FF FF 85 C0 74 0A 80 7D D6 01 75 04 P.Z.....t..}..u.
00421140 B3 11 EB 2A B3 12 EB 26 C7 85 3C FF FF FF 9C 00 ...*...&..<.....
00421150 00 00 8D 85 3C FF FF FF 50 E8 32 CD FF FF 85 C0 ....<...P.2.....
00421160 74 0A 80 7D D6 01 75 04 B3 13 EB 02 B3 14 33 C0 t..}..u.......3.
00421170 5A 59 59 64 89 10 68 8B 11 42 00 8D 45 FC E8 BD ZYYd..h..B..E...
00421180 30 FE FF C3 E9 9B 2A FE FF EB F0 8B C3 5B 8B E5 0.....*......[..
00421190 5D C3 00 00 FF FF FF FF 01 00 00 00 42 00 00 00 ]...........B...
004211A0 FF FF FF FF 01 00 00 00 43 00 00 00 FF FF FF FF ........C.......
004211B0 01 00 00 00 41 00 00 00 53 56 57 8B F8 33 DB 68 ....A...SVW..3.h
004211C0 FC 11 42 00 E8 F7 52 FE FF 8B F0 85 F6 74 1E 68 ..B...R......t.h
004211D0 0C 12 42 00 56 E8 EE 52 FE FF 85 C0 74 07 57 FF ..B.V..R....t.W.
004211E0 D0 B3 01 EB 0E 57 E8 FD 52 FE FF EB 06 57 E8 F5 .....W..R....W..
004211F0 52 FE FF 8B C3 5F 5E 5B C3 00 00 00 6B 65 72 6E R...._^[....kern
00421200 65 6C 33 32 2E 64 6C 6C 00 00 00 00 47 65 74 4E el32.dll....GetN
00421210 61 74 69 76 65 53 79 73 74 65 6D 49 6E 66 6F 00 ativeSystemInfo.
00421220 83 3D 6C B9 42 00 00 74 19 A1 6C B9 42 00 50 E8 .=l.B..t..l.B.P.
00421230 24 52 FE FF 33 C0 A3 6C B9 42 00 33 C0 A3 70 B9 $R..3..l.B.3..p.
00421240 42 00 C3 90 55 8B EC 83 C4 A4 33 C0 89 45 FC 33 B...U.....3..E.3
00421250 C0 55 68 44 14 42 00 64 FF 30 64 89 20 8D 45 D8 .UhD.B.d.0d. .E.
00421260 BA 24 00 00 00 E8 4E 44 00 00 8D 45 D8 50 E8 75 .$....ND...E.P.u
00421270 52 FE FF 8B 45 EC A3 3C 99 42 00 8B 45 F4 A3 40 R...E..<.B..E..@
00421280 99 42 00 8B 45 DC A3 44 99 42 00 A1 D8 A9 42 00 .B..E..D.B....B.
00421290 83 38 02 0F 94 05 EC 90 42 00 68 50 14 42 00 E8 .8......B.hP.B..
004212A0 1C 52 FE FF 8D 55 FC E8 98 54 00 00 33 C0 89 45 .R...U...T..3..E
004212B0 D4 80 3D EC 90 42 00 00 75 19 8D 55 A4 8B 45 FC ..=..B..u..U..E.
004212C0 E8 C3 55 00 00 84 C0 74 0A 8B 45 B4 A3 68 B9 42 ..U....t..E..h.B
004212D0 00 EB 07 33 C0 A3 68 B9 42 00 E8 6D FC FF FF 83 ...3..h.B..m....
004212E0 E0 7F 83 F8 14 0F 87 43 01 00 00 FF 24 85 F2 12 .......C....$...
004212F0 42 00 2E 14 42 00 4B 13 42 00 57 13 42 00 63 13 B...B.K.B.W.B.c.
00421300 42 00 6F 13 42 00 7B 13 42 00 87 13 42 00 9A 13 B.o.B.{.B...B...
00421310 42 00 AD 13 42 00 C4 13 42 00 CD 13 42 00 D6 13 B...B...B...B...
00421320 42 00 DF 13 42 00 E8 13 42 00 F1 13 42 00 FA 13 B...B...B...B...
00421330 42 00 03 14 42 00 0C 14 42 00 15 14 42 00 1E 14 B...B...B...B...
00421340 42 00 27 14 42 00 E9 E3 00 00 00 C6 05 D8 90 42 B.'.B..........B
00421350 00 01 E9 D7 00 00 00 C6 05 DC 90 42 00 01 E9 CB ...........B....
00421360 00 00 00 C6 05 E0 90 42 00 01 E9 BF 00 00 00 C6 .......B........
00421370 05 E4 90 42 00 01 E9 B3 00 00 00 C6 05 E8 90 42 ...B...........B
00421380 00 01 E9 A7 00 00 00 C6 05 F0 90 42 00 01 C6 05 ...........B....
00421390 F4 90 42 00 01 E9 94 00 00 00 C6 05 F0 90 42 00 ..B...........B.
004213A0 01 C6 05 F8 90 42 00 01 E9 81 00 00 00 C6 05 F0 .....B..........
004213B0 90 42 00 01 C6 05 F8 90 42 00 01 C6 05 FC 90 42 .B......B......B
004213C0 00 01 EB 6A C6 05 00 91 42 00 01 EB 61 C6 05 04 ...j....B...a...
004213D0 91 42 00 01 EB 58 C6 05 08 91 42 00 01 EB 4F C6 .B...X....B...O.
004213E0 05 0C 91 42 00 01 EB 46 C6 05 10 91 42 00 01 EB ...B...F....B...
004213F0 3D C6 05 14 91 42 00 01 EB 34 C6 05 18 91 42 00 =....B...4....B.
00421400 01 EB 2B C6 05 1C 91 42 00 01 EB 22 C6 05 20 91 ..+....B...".. .
00421410 42 00 01 EB 19 C6 05 24 91 42 00 01 EB 10 C6 05 B......$.B......
00421420 28 91 42 00 01 EB 07 C6 05 2C 91 42 00 01 33 C0 (.B......,.B..3.
00421430 5A 59 59 64 89 10 68 4B 14 42 00 8D 45 FC E8 FD ZYYd..hK.B..E...
00421440 2D FE FF C3 E9 DB 27 FE FF EB F0 8B E5 5D C3 00 -.....'......]..
00421450 6B 65 72 6E 65 6C 33 32 2E 64 6C 6C 00 00 00 00 kernel32.dll....
00421460 E8 BB FD FF FF C3 8B C0 67 00 00 00 38 99 42 00 ........g...8.B.
00421470 78 A8 42 00 00 00 00 00 24 99 42 00 84 A7 42 00 x.B.....$.B...B.
00421480 00 00 00 00 10 99 42 00 A4 A8 42 00 00 00 00 00 ......B...B.....
00421490 FC 98 42 00 74 A8 42 00 00 00 00 00 E8 98 42 00 ..B.t.B.......B.
004214A0 AC A8 42 00 00 00 00 00 D4 98 42 00 C8 A8 42 00 ..B.......B...B.
004214B0 00 00 00 00 C0 98 42 00 94 A8 42 00 00 00 00 00 ......B...B.....
004214C0 AC 98 42 00 B8 A9 42 00 00 00 00 00 98 98 42 00 ..B...B.......B.
004214D0 08 A7 42 00 00 00 00 00 84 98 42 00 80 A9 42 00 ..B.......B...B.
004214E0 00 00 00 00 70 98 42 00 B0 A7 42 00 00 00 00 00 ....p.B...B.....
004214F0 5C 98 42 00 A4 A6 42 00 00 00 00 00 48 98 42 00 \.B...B.....H.B.
00421500 70 A6 42 00 00 00 00 00 34 98 42 00 44 A6 42 00 p.B.....4.B.D.B.
00421510 00 00 00 00 20 98 42 00 1C A8 42 00 00 00 00 00 .... .B...B.....
00421520 0C 98 42 00 10 A9 42 00 00 00 00 00 F8 97 42 00 ..B...B.......B.
00421530 E8 A8 42 00 00 00 00 00 E4 97 42 00 50 A6 42 00 ..B.......B.P.B.
00421540 00 00 00 00 D0 97 42 00 20 A6 42 00 00 00 00 00 ......B. .B.....
00421550 BC 97 42 00 40 A9 42 00 00 00 00 00 A8 97 42 00 ..B.@.B.......B.
00421560 58 A6 42 00 00 00 00 00 94 97 42 00 1C A6 42 00 X.B.......B...B.
00421570 00 00 00 00 80 97 42 00 1C A7 42 00 00 00 00 00 ......B...B.....
00421580 6C 97 42 00 54 A8 42 00 00 00 00 00 58 97 42 00 l.B.T.B.....X.B.
00421590 30 A8 42 00 00 00 00 00 44 97 42 00 94 A9 42 00 0.B.....D.B...B.
004215A0 00 00 00 00 30 97 42 00 F4 A8 42 00 00 00 00 00 ....0.B...B.....
004215B0 1C 97 42 00 04 A7 42 00 00 00 00 00 08 97 42 00 ..B...B.......B.
004215C0 60 A7 42 00 00 00 00 00 F4 96 42 00 A4 A9 42 00 `.B.......B...B.
004215D0 00 00 00 00 E0 96 42 00 90 A6 42 00 00 00 00 00 ......B...B.....
004215E0 CC 96 42 00 F0 A7 42 00 00 00 00 00 B8 96 42 00 ..B...B.......B.
004215F0 04 A9 42 00 00 00 00 00 A4 96 42 00 9C A8 42 00 ..B.......B...B.
00421600 00 00 00 00 90 96 42 00 40 A6 42 00 00 00 00 00 ......B.@.B.....
00421610 7C 96 42 00 38 A9 42 00 00 00 00 00 68 96 42 00 |.B.8.B.....h.B.
00421620 8C A9 42 00 00 00 00 00 54 96 42 00 9C A9 42 00 ..B.....T.B...B.
00421630 00 00 00 00 40 96 42 00 D0 A6 42 00 00 00 00 00 ....@.B...B.....
00421640 2C 96 42 00 F0 A8 42 00 00 00 00 00 18 96 42 00 ,.B...B.......B.
00421650 B0 A6 42 00 00 00 00 00 04 96 42 00 60 A6 42 00 ..B.......B.`.B.
00421660 00 00 00 00 F0 95 42 00 BC A7 42 00 00 00 00 00 ......B...B.....
00421670 DC 95 42 00 A4 A7 42 00 00 00 00 00 C8 95 42 00 ..B...B.......B.
00421680 C4 A8 42 00 00 00 00 00 B4 95 42 00 00 A7 42 00 ..B.......B...B.
00421690 00 00 00 00 A0 95 42 00 AC A6 42 00 00 00 00 00 ......B...B.....
004216A0 8C 95 42 00 A0 A8 42 00 00 00 00 00 78 95 42 00 ..B...B.....x.B.
004216B0 C0 A6 42 00 00 00 00 00 64 95 42 00 6C A8 42 00 ..B.....d.B.l.B.
004216C0 00 00 00 00 50 95 42 00 AC A7 42 00 00 00 00 00 ....P.B...B.....
004216D0 3C 95 42 00 D0 A7 42 00 00 00 00 00 28 95 42 00 <.B...B.....(.B.
004216E0 DC A7 42 00 00 00 00 00 14 95 42 00 14 A9 42 00 ..B.......B...B.
004216F0 00 00 00 00 00 95 42 00 28 A7 42 00 00 00 00 00 ......B.(.B.....
00421700 EC 94 42 00 00 A9 42 00 00 00 00 00 D8 94 42 00 ..B...B.......B.
00421710 60 A9 42 00 00 00 00 00 C4 94 42 00 14 A6 42 00 `.B.......B...B.
00421720 00 00 00 00 B0 94 42 00 E0 A9 42 00 00 00 00 00 ......B...B.....
00421730 9C 94 42 00 30 A7 42 00 00 00 00 00 88 94 42 00 ..B.0.B.......B.
00421740 28 A9 42 00 00 00 00 00 74 94 42 00 90 A8 42 00 (.B.....t.B...B.
00421750 00 00 00 00 60 94 42 00 BC A6 42 00 00 00 00 00 ....`.B...B.....
00421760 4C 94 42 00 F0 A9 42 00 00 00 00 00 38 94 42 00 L.B...B.....8.B.
00421770 18 A6 42 00 00 00 00 00 24 94 42 00 34 A6 42 00 ..B.....$.B.4.B.
00421780 00 00 00 00 10 94 42 00 7C A7 42 00 00 00 00 00 ......B.|.B.....
00421790 FC 93 42 00 A0 A9 42 00 00 00 00 00 E8 93 42 00 ..B...B.......B.
004217A0 54 A9 42 00 00 00 00 00 D4 93 42 00 68 A7 42 00 T.B.......B.h.B.
004217B0 00 00 00 00 C0 93 42 00 B8 A7 42 00 00 00 00 00 ......B...B.....
004217C0 AC 93 42 00 F8 A5 42 00 00 00 00 00 98 93 42 00 ..B...B.......B.
004217D0 F8 A6 42 00 00 00 00 00 84 93 42 00 40 A8 42 00 ..B.......B.@.B.
004217E0 00 00 00 00 70 93 42 00 14 A8 42 00 00 00 00 00 ....p.B...B.....
004217F0 5C 93 42 00 6C A9 42 00 00 00 00 00 48 93 42 00 \.B.l.B.....H.B.
00421800 B4 A9 42 00 00 00 00 00 34 93 42 00 CC A7 42 00 ..B.....4.B...B.
00421810 00 00 00 00 20 93 42 00 E4 A6 42 00 00 00 00 00 .... .B...B.....
00421820 0C 93 42 00 18 A7 42 00 00 00 00 00 F8 92 42 00 ..B...B.......B.
00421830 40 A7 42 00 00 00 00 00 E4 92 42 00 5C A8 42 00 @.B.......B.\.B.
00421840 00 00 00 00 D0 92 42 00 6C A6 42 00 00 00 00 00 ......B.l.B.....
00421850 BC 92 42 00 2C A8 42 00 00 00 00 00 A8 92 42 00 ..B.,.B.......B.
00421860 C8 A9 42 00 00 00 00 00 94 92 42 00 10 A6 42 00 ..B.......B...B.
00421870 00 00 00 00 80 92 42 00 34 A9 42 00 00 00 00 00 ......B.4.B.....
00421880 6C 92 42 00 94 A6 42 00 00 00 00 00 58 92 42 00 l.B...B.....X.B.
00421890 84 A6 42 00 00 00 00 00 44 92 42 00 0C A8 42 00 ..B.....D.B...B.
004218A0 00 00 00 00 30 92 42 00 4C A6 42 00 00 00 00 00 ....0.B.L.B.....
004218B0 1C 92 42 00 3C A9 42 00 00 00 00 00 08 92 42 00 ..B.<.B.......B.
004218C0 90 A9 42 00 00 00 00 00 F4 91 42 00 B0 A9 42 00 ..B.......B...B.
004218D0 00 00 00 00 E0 91 42 00 E0 A6 42 00 00 00 00 00 ......B...B.....
004218E0 CC 91 42 00 FC A8 42 00 00 00 00 00 B8 91 42 00 ..B...B.......B.
004218F0 B8 A6 42 00 00 00 00 00 A4 91 42 00 2C A7 42 00 ..B.......B.,.B.
00421900 00 00 00 00 90 91 42 00 68 A9 42 00 00 00 00 00 ......B.h.B.....
00421910 7C 91 42 00 68 A6 42 00 00 00 00 00 68 91 42 00 |.B.h.B.....h.B.
00421920 C0 A7 42 00 00 00 00 00 54 91 42 00 A8 A7 42 00 ..B.....T.B...B.
00421930 00 00 00 00 40 91 42 00 CC A8 42 00 00 00 00 00 ....@.B...B.....
00421940 55 8B EC 33 C0 55 68 76 19 42 00 64 FF 30 64 89 U..3.Uhv.B.d.0d.
00421950 20 FF 05 64 B9 42 00 75 0F A1 68 B6 42 00 E8 B5  ..d.B.u..h.B...
00421960 49 00 00 E8 F8 FA FF FF 33 C0 5A 59 59 64 89 10 I.......3.ZYYd..
00421970 68 7D 19 42 00 C3 E9 A9 22 FE FF EB F8 5D C3 90 h}.B...."....]..
00421980 83 2D 64 B9 42 00 01 73 1E B8 68 14 42 00 E8 5D .-d.B..s..h.B..]
00421990 26 FE FF E8 AC F8 FF FF BA 48 99 42 00 A1 68 B6 &........H.B..h.
004219A0 42 00 E8 55 49 00 00 C3 AC 19 42 00 03 12 54 43 B..UI.....B...TC
004219B0 68 61 72 61 63 74 65 72 43 61 74 65 67 6F 72 79 haracterCategory
004219C0 01 00 00 00 00 52 00 00 00 A8 19 42 00 11 63 63 .....R.....B..cc
004219D0 4C 65 74 74 65 72 55 70 70 65 72 63 61 73 65 11 LetterUppercase.
004219E0 63 63 4C 65 74 74 65 72 4C 6F 77 65 72 63 61 73 ccLetterLowercas
004219F0 65 11 63 63 4C 65 74 74 65 72 54 69 74 6C 65 63 e.ccLetterTitlec
00421A00 61 73 65 10 63 63 4D 61 72 6B 4E 6F 6E 53 70 61 ase.ccMarkNonSpa
00421A10 63 69 6E 67 16 63 63 4D 61 72 6B 53 70 61 63 69 cing.ccMarkSpaci
00421A20 6E 67 43 6F 6D 62 69 6E 69 6E 67 0F 63 63 4D 61 ngCombining.ccMa
00421A30 72 6B 45 6E 63 6C 6F 73 69 6E 67 14 63 63 4E 75 rkEnclosing.ccNu
00421A40 6D 62 65 72 44 65 63 69 6D 61 6C 44 69 67 69 74 mberDecimalDigit
00421A50 0E 63 63 4E 75 6D 62 65 72 4C 65 74 74 65 72 0D .ccNumberLetter.
00421A60 63 63 4E 75 6D 62 65 72 4F 74 68 65 72 10 63 63 ccNumberOther.cc
00421A70 53 65 70 61 72 61 74 6F 72 53 70 61 63 65 0F 63 SeparatorSpace.c
00421A80 63 53 65 70 61 72 61 74 6F 72 4C 69 6E 65 14 63 cSeparatorLine.c
00421A90 63 53 65 70 61 72 61 74 6F 72 50 61 72 61 67 72 cSeparatorParagr
00421AA0 61 70 68 0E 63 63 4F 74 68 65 72 43 6F 6E 74 72 aph.ccOtherContr
00421AB0 6F 6C 0D 63 63 4F 74 68 65 72 46 6F 72 6D 61 74 ol.ccOtherFormat
00421AC0 10 63 63 4F 74 68 65 72 53 75 72 72 6F 67 61 74 .ccOtherSurrogat
00421AD0 65 0E 63 63 4F 74 68 65 72 50 72 69 76 61 74 65 e.ccOtherPrivate
00421AE0 11 63 63 4F 74 68 65 72 55 6E 61 73 73 69 67 6E .ccOtherUnassign
00421AF0 65 64 10 63 63 4C 65 74 74 65 72 4D 6F 64 69 66 ed.ccLetterModif
00421B00 69 65 72 0D 63 63 4C 65 74 74 65 72 4F 74 68 65 ier.ccLetterOthe
00421B10 72 16 63 63 50 75 6E 63 74 75 61 74 69 6F 6E 43 r.ccPunctuationC
00421B20 6F 6E 6E 65 63 74 6F 72 11 63 63 50 75 6E 63 74 onnector.ccPunct
00421B30 75 61 74 69 6F 6E 44 61 73 68 11 63 63 50 75 6E uationDash.ccPun
00421B40 63 74 75 61 74 69 6F 6E 4F 70 65 6E 12 63 63 50 ctuationOpen.ccP
00421B50 75 6E 63 74 75 61 74 69 6F 6E 43 6C 6F 73 65 19 unctuationClose.
00421B60 63 63 50 75 6E 63 74 75 61 74 69 6F 6E 49 6E 69 ccPunctuationIni
00421B70 74 69 61 6C 51 75 6F 74 65 17 63 63 50 75 6E 63 tialQuote.ccPunc
00421B80 74 75 61 74 69 6F 6E 46 69 6E 61 6C 51 75 6F 74 tuationFinalQuot
00421B90 65 12 63 63 50 75 6E 63 74 75 61 74 69 6F 6E 4F e.ccPunctuationO
00421BA0 74 68 65 72 0C 63 63 53 79 6D 62 6F 6C 4D 61 74 ther.ccSymbolMat
00421BB0 68 10 63 63 53 79 6D 62 6F 6C 43 75 72 72 65 6E h.ccSymbolCurren
00421BC0 63 79 10 63 63 53 79 6D 62 6F 6C 4D 6F 64 69 66 cy.ccSymbolModif
00421BD0 69 65 72 0D 63 63 53 79 6D 62 6F 6C 4F 74 68 65 ier.ccSymbolOthe
00421BE0 72 0D 63 63 4C 65 66 74 54 6F 52 69 67 68 74 16 r.ccLeftToRight.
00421BF0 63 63 4C 65 66 74 54 6F 52 69 67 68 74 45 6D 62 ccLeftToRightEmb
00421C00 65 64 64 69 6E 67 15 63 63 4C 65 66 74 54 6F 52 edding.ccLeftToR
00421C10 69 67 68 74 4F 76 65 72 72 69 64 65 0D 63 63 52 ightOverride.ccR
00421C20 69 67 68 74 54 6F 4C 65 66 74 13 63 63 52 69 67 ightToLeft.ccRig
00421C30 68 74 54 6F 4C 65 66 74 41 72 61 62 69 63 16 63 htToLeftArabic.c
00421C40 63 52 69 67 68 74 54 6F 4C 65 66 74 45 6D 62 65 cRightToLeftEmbe
00421C50 64 64 69 6E 67 15 63 63 52 69 67 68 74 54 6F 4C dding.ccRightToL
00421C60 65 66 74 4F 76 65 72 72 69 64 65 16 63 63 50 6F eftOverride.ccPo
00421C70 70 44 69 72 65 63 74 69 6F 6E 61 6C 46 6F 72 6D pDirectionalForm
00421C80 61 74 10 63 63 45 75 72 6F 70 65 61 6E 4E 75 6D at.ccEuropeanNum
00421C90 62 65 72 19 63 63 45 75 72 6F 70 65 61 6E 4E 75 ber.ccEuropeanNu
00421CA0 6D 62 65 72 53 65 70 61 72 61 74 6F 72 1A 63 63 mberSeparator.cc
00421CB0 45 75 72 6F 70 65 61 6E 4E 75 6D 62 65 72 54 65 EuropeanNumberTe
00421CC0 72 6D 69 6E 61 74 6F 72 0E 63 63 41 72 61 62 69 rminator.ccArabi
00421CD0 63 4E 75 6D 62 65 72 17 63 63 43 6F 6D 6D 6F 6E cNumber.ccCommon
00421CE0 4E 75 6D 62 65 72 53 65 70 61 72 61 74 6F 72 11 NumberSeparator.
00421CF0 63 63 42 6F 75 6E 64 61 72 79 4E 65 75 74 72 61 ccBoundaryNeutra
00421D00 6C 12 63 63 53 65 67 6D 65 6E 74 53 65 70 61 72 l.ccSegmentSepar
00421D10 61 74 6F 72 0C 63 63 57 68 69 74 65 53 70 61 63 ator.ccWhiteSpac
00421D20 65 0F 63 63 4F 74 68 65 72 4E 65 75 74 72 61 6C e.ccOtherNeutral
00421D30 73 0A 63 63 43 6F 6D 70 6F 73 65 64 0D 63 63 4E s.ccComposed.ccN
00421D40 6F 6E 42 72 65 61 6B 69 6E 67 0B 63 63 53 79 6D onBreaking.ccSym
00421D50 6D 65 74 72 69 63 0A 63 63 48 65 78 44 69 67 69 metric.ccHexDigi
00421D60 74 0F 63 63 51 75 6F 74 61 74 69 6F 6E 4D 61 72 t.ccQuotationMar
00421D70 6B 0B 63 63 4D 69 72 72 6F 72 69 6E 67 0A 63 63 k.ccMirroring.cc
00421D80 41 73 73 69 67 6E 65 64 0F 63 63 41 53 43 49 49 Assigned.ccASCII
00421D90 48 65 78 44 69 67 69 74 0D 63 63 42 69 64 69 43 HexDigit.ccBidiC
00421DA0 6F 6E 74 72 6F 6C 06 63 63 44 61 73 68 0C 63 63 ontrol.ccDash.cc
00421DB0 44 65 70 72 65 63 61 74 65 64 0B 63 63 44 69 61 Deprecated.ccDia
00421DC0 63 72 69 74 69 63 0A 63 63 45 78 74 65 6E 64 65 critic.ccExtende
00421DD0 72 08 63 63 48 79 70 68 65 6E 0D 63 63 49 64 65 r.ccHyphen.ccIde
00421DE0 6F 67 72 61 70 68 69 63 13 63 63 49 44 53 42 69 ographic.ccIDSBi
00421DF0 6E 61 72 79 4F 70 65 72 61 74 6F 72 14 63 63 49 naryOperator.ccI
00421E00 44 53 54 72 69 6E 61 72 79 4F 70 65 72 61 74 6F DSTrinaryOperato
00421E10 72 0D 63 63 4A 6F 69 6E 43 6F 6E 74 72 6F 6C 17 r.ccJoinControl.
00421E20 63 63 4C 6F 67 69 63 61 6C 4F 72 64 65 72 45 78 ccLogicalOrderEx
00421E30 63 65 70 74 69 6F 6E 17 63 63 4E 6F 6E 43 68 61 ception.ccNonCha
00421E40 72 61 63 74 65 72 43 6F 64 65 50 6F 69 6E 74 11 racterCodePoint.
00421E50 63 63 4F 74 68 65 72 41 6C 70 68 61 62 65 74 69 ccOtherAlphabeti
00421E60 63 20 63 63 4F 74 68 65 72 44 65 66 61 75 6C 74 c ccOtherDefault
00421E70 49 67 6E 6F 72 61 62 6C 65 43 6F 64 65 50 6F 69 IgnorableCodePoi
00421E80 6E 74 15 63 63 4F 74 68 65 72 47 72 61 70 68 65 nt.ccOtherGraphe
00421E90 6D 65 45 78 74 65 6E 64 11 63 63 4F 74 68 65 72 meExtend.ccOther
00421EA0 49 44 43 6F 6E 74 69 6E 75 65 0E 63 63 4F 74 68 IDContinue.ccOth
00421EB0 65 72 49 44 53 74 61 72 74 10 63 63 4F 74 68 65 erIDStart.ccOthe
00421EC0 72 4C 6F 77 65 72 63 61 73 65 0B 63 63 4F 74 68 rLowercase.ccOth
00421ED0 65 72 4D 61 74 68 10 63 63 4F 74 68 65 72 55 70 erMath.ccOtherUp
00421EE0 70 65 72 63 61 73 65 0F 63 63 50 61 74 74 65 72 percase.ccPatter
00421EF0 6E 53 79 6E 74 61 78 13 63 63 50 61 74 74 65 72 nSyntax.ccPatter
00421F00 6E 57 68 69 74 65 53 70 61 63 65 09 63 63 52 61 nWhiteSpace.ccRa
00421F10 64 69 63 61 6C 0C 63 63 53 6F 66 74 44 6F 74 74 dical.ccSoftDott
00421F20 65 64 07 63 63 53 54 65 72 6D 15 63 63 54 65 72 ed.ccSTerm.ccTer
00421F30 6D 69 6E 61 6C 50 75 6E 63 74 75 61 74 69 6F 6E minalPunctuation
00421F40 12 63 63 55 6E 69 66 69 65 64 49 64 65 6F 67 72 .ccUnifiedIdeogr
00421F50 61 70 68 13 63 63 56 61 72 69 61 74 69 6F 6E 53 aph.ccVariationS
00421F60 65 6C 65 63 74 6F 72 0A 4A 63 6C 55 6E 69 63 6F elector.JclUnico
00421F70 64 65 8B C0 78 1F 42 00 06 14 54 43 68 61 72 61 de..x.B...TChara
00421F80 63 74 65 72 43 61 74 65 67 6F 72 69 65 73 02 A8 cterCategories..
00421F90 19 42 00 90 98 1F 42 00 0E 11 54 55 6E 69 63 6F .B....B...TUnico
00421FA0 64 65 42 6C 6F 63 6B 44 61 74 61 0C 00 00 00 01 deBlockData.....
00421FB0 00 00 00 44 10 40 00 08 00 00 00 90 FF FF FF FF ...D.@..........
00421FC0 08 00 00 00 4E 6F 2D 62 6C 6F 63 6B 00 00 00 00 ....No-block....
00421FD0 FF FF FF FF 0B 00 00 00 42 61 73 69 63 20 4C 61 ........Basic La
00421FE0 74 69 6E 00 FF FF FF FF 12 00 00 00 4C 61 74 69 tin.........Lati
00421FF0 6E 2D 31 20 53 75 70 70 6C 65 6D 65 6E 74 00 00 n-1 Supplement..
00422000 FF FF FF FF 10 00 00 00 4C 61 74 69 6E 20 45 78 ........Latin Ex
00422010 74 65 6E 64 65 64 2D 41 00 00 00 00 FF FF FF FF tended-A........
00422020 10 00 00 00 4C 61 74 69 6E 20 45 78 74 65 6E 64 ....Latin Extend
00422030 65 64 2D 42 00 00 00 00 FF FF FF FF 0E 00 00 00 ed-B............
00422040 49 50 41 20 45 78 74 65 6E 73 69 6F 6E 73 00 00 IPA Extensions..
00422050 FF FF FF FF 18 00 00 00 53 70 61 63 69 6E 67 20 ........Spacing 
00422060 4D 6F 64 69 66 69 65 72 20 4C 65 74 74 65 72 73 Modifier Letters
00422070 00 00 00 00 FF FF FF FF 1B 00 00 00 43 6F 6D 62 ............Comb
00422080 69 6E 69 6E 67 20 44 69 61 63 72 69 74 69 63 61 ining Diacritica
00422090 6C 20 4D 61 72 6B 73 00 FF FF FF FF 10 00 00 00 l Marks.........
004220A0 47 72 65 65 6B 20 61 6E 64 20 43 6F 70 74 69 63 Greek and Coptic
004220B0 00 00 00 00 FF FF FF FF 08 00 00 00 43 79 72 69 ............Cyri
004220C0 6C 6C 69 63 00 00 00 00 FF FF FF FF 13 00 00 00 llic............
004220D0 43 79 72 69 6C 6C 69 63 20 53 75 70 70 6C 65 6D Cyrillic Supplem
004220E0 65 6E 74 00 FF FF FF FF 08 00 00 00 41 72 6D 65 ent.........Arme
004220F0 6E 69 61 6E 00 00 00 00 FF FF FF FF 06 00 00 00 nian............
00422100 48 65 62 72 65 77 00 00 FF FF FF FF 06 00 00 00 Hebrew..........
00422110 41 72 61 62 69 63 00 00 FF FF FF FF 06 00 00 00 Arabic..........
00422120 53 79 72 69 61 63 00 00 FF FF FF FF 11 00 00 00 Syriac..........
00422130 41 72 61 62 69 63 20 53 75 70 70 6C 65 6D 65 6E Arabic Supplemen
00422140 74 00 00 00 FF FF FF FF 06 00 00 00 54 68 61 61 t...........Thaa
00422150 6E 61 00 00 FF FF FF FF 03 00 00 00 4E 4B 6F 00 na..........NKo.
00422160 FF FF FF FF 09 00 00 00 53 61 6D 61 72 69 74 61 ........Samarita
00422170 6E 00 00 00 FF FF FF FF 07 00 00 00 4D 61 6E 64 n...........Mand
00422180 61 69 63 00 FF FF FF FF 0A 00 00 00 44 65 76 61 aic.........Deva
00422190 6E 61 67 61 72 69 00 00 FF FF FF FF 07 00 00 00 nagari..........
004221A0 42 65 6E 67 61 6C 69 00 FF FF FF FF 08 00 00 00 Bengali.........
004221B0 47 75 72 6D 75 6B 68 69 00 00 00 00 FF FF FF FF Gurmukhi........
004221C0 08 00 00 00 47 75 6A 61 72 61 74 69 00 00 00 00 ....Gujarati....
004221D0 FF FF FF FF 05 00 00 00 4F 72 69 79 61 00 00 00 ........Oriya...
004221E0 FF FF FF FF 05 00 00 00 54 61 6D 69 6C 00 00 00 ........Tamil...
004221F0 FF FF FF FF 06 00 00 00 54 65 6C 75 67 75 00 00 ........Telugu..
00422200 FF FF FF FF 07 00 00 00 4B 61 6E 6E 61 64 61 00 ........Kannada.
00422210 FF FF FF FF 09 00 00 00 4D 61 6C 61 79 61 6C 61 ........Malayala
00422220 6D 00 00 00 FF FF FF FF 07 00 00 00 53 69 6E 68 m...........Sinh
00422230 61 6C 61 00 FF FF FF FF 04 00 00 00 54 68 61 69 ala.........Thai
00422240 00 00 00 00 FF FF FF FF 03 00 00 00 4C 61 6F 00 ............Lao.
00422250 FF FF FF FF 07 00 00 00 54 69 62 65 74 61 6E 00 ........Tibetan.
00422260 FF FF FF FF 07 00 00 00 4D 79 61 6E 6D 61 72 00 ........Myanmar.
00422270 FF FF FF FF 08 00 00 00 47 65 6F 72 67 69 61 6E ........Georgian
00422280 00 00 00 00 FF FF FF FF 0B 00 00 00 48 61 6E 67 ............Hang
00422290 75 6C 20 4A 61 6D 6F 00 FF FF FF FF 08 00 00 00 ul Jamo.........
004222A0 45 74 68 69 6F 70 69 63 00 00 00 00 FF FF FF FF Ethiopic........
004222B0 13 00 00 00 45 74 68 69 6F 70 69 63 20 53 75 70 ....Ethiopic Sup
004222C0 70 6C 65 6D 65 6E 74 00 FF FF FF FF 08 00 00 00 plement.........
004222D0 43 68 65 72 6F 6B 65 65 00 00 00 00 FF FF FF FF Cherokee........
004222E0 25 00 00 00 55 6E 69 66 69 65 64 20 43 61 6E 61 %...Unified Cana
004222F0 64 69 61 6E 20 41 62 6F 72 69 67 69 6E 61 6C 20 dian Aboriginal 
00422300 53 79 6C 6C 61 62 69 63 73 00 00 00 FF FF FF FF Syllabics.......
00422310 05 00 00 00 4F 67 68 61 6D 00 00 00 FF FF FF FF ....Ogham.......
00422320 05 00 00 00 52 75 6E 69 63 00 00 00 FF FF FF FF ....Runic.......
00422330 07 00 00 00 54 61 67 61 6C 6F 67 00 FF FF FF FF ....Tagalog.....
00422340 07 00 00 00 48 61 6E 75 6E 6F 6F 00 FF FF FF FF ....Hanunoo.....
00422350 05 00 00 00 42 75 68 69 64 00 00 00 FF FF FF FF ....Buhid.......
00422360 08 00 00 00 54 61 67 62 61 6E 77 61 00 00 00 00 ....Tagbanwa....
00422370 FF FF FF FF 05 00 00 00 4B 68 6D 65 72 00 00 00 ........Khmer...
00422380 FF FF FF FF 09 00 00 00 4D 6F 6E 67 6F 6C 69 61 ........Mongolia
00422390 6E 00 00 00 FF FF FF FF 2E 00 00 00 55 6E 69 66 n...........Unif
004223A0 69 65 64 20 43 61 6E 61 64 69 61 6E 20 41 62 6F ied Canadian Abo
004223B0 72 69 67 69 6E 61 6C 20 53 79 6C 6C 61 62 69 63 riginal Syllabic
004223C0 73 20 45 78 74 65 6E 64 65 64 00 00 FF FF FF FF s Extended......
004223D0 05 00 00 00 4C 69 6D 62 75 00 00 00 FF FF FF FF ....Limbu.......
004223E0 06 00 00 00 54 61 69 20 4C 65 00 00 FF FF FF FF ....Tai Le......
004223F0 0B 00 00 00 4E 65 77 20 54 61 69 20 4C 75 65 00 ....New Tai Lue.
00422400 FF FF FF FF 0D 00 00 00 4B 68 6D 65 72 20 53 79 ........Khmer Sy
00422410 6D 62 6F 6C 73 00 00 00 FF FF FF FF 08 00 00 00 mbols...........
00422420 42 75 67 69 6E 65 73 65 00 00 00 00 FF FF FF FF Buginese........
00422430 08 00 00 00 54 61 69 20 54 68 61 6D 00 00 00 00 ....Tai Tham....
00422440 FF FF FF FF 08 00 00 00 42 61 6C 69 6E 65 73 65 ........Balinese
00422450 00 00 00 00 FF FF FF FF 09 00 00 00 53 75 6E 64 ............Sund
00422460 61 6E 65 73 65 00 00 00 FF FF FF FF 05 00 00 00 anese...........
00422470 42 61 74 61 6B 00 00 00 FF FF FF FF 06 00 00 00 Batak...........
00422480 4C 65 70 63 68 61 00 00 FF FF FF FF 08 00 00 00 Lepcha..........
00422490 4F 6C 20 43 68 69 6B 69 00 00 00 00 FF FF FF FF Ol Chiki........
004224A0 10 00 00 00 56 65 64 69 63 20 45 78 74 65 6E 73 ....Vedic Extens
004224B0 69 6F 6E 73 00 00 00 00 FF FF FF FF 13 00 00 00 ions............
004224C0 50 68 6F 6E 65 74 69 63 20 45 78 74 65 6E 73 69 Phonetic Extensi
004224D0 6F 6E 73 00 FF FF FF FF 1E 00 00 00 50 68 6F 6E ons.........Phon
004224E0 65 74 69 63 20 45 78 74 65 6E 73 69 6F 6E 73 20 etic Extensions 
004224F0 53 75 70 70 6C 65 6D 65 6E 74 00 00 FF FF FF FF Supplement......
00422500 26 00 00 00 43 6F 6D 62 69 6E 69 6E 67 20 44 69 &...Combining Di
00422510 61 63 72 69 74 69 63 61 6C 20 4D 61 72 6B 73 20 acritical Marks 
00422520 53 75 70 70 6C 65 6D 65 6E 74 00 00 FF FF FF FF Supplement......
00422530 19 00 00 00 4C 61 74 69 6E 20 45 78 74 65 6E 64 ....Latin Extend
00422540 65 64 20 41 64 64 69 74 69 6F 6E 61 6C 00 00 00 ed Additional...
00422550 FF FF FF FF 0E 00 00 00 47 72 65 65 6B 20 45 78 ........Greek Ex
00422560 74 65 6E 64 65 64 00 00 FF FF FF FF 13 00 00 00 tended..........
00422570 47 65 6E 65 72 61 6C 20 50 75 6E 63 74 75 61 74 General Punctuat
00422580 69 6F 6E 00 FF FF FF FF 1B 00 00 00 53 75 70 65 ion.........Supe
00422590 72 73 63 72 69 70 74 73 20 61 6E 64 20 53 75 62 rscripts and Sub
004225A0 73 63 72 69 70 74 73 00 FF FF FF FF 10 00 00 00 scripts.........
004225B0 43 75 72 72 65 6E 63 79 20 53 79 6D 62 6F 6C 73 Currency Symbols
004225C0 00 00 00 00 FF FF FF FF 27 00 00 00 43 6F 6D 62 ........'...Comb
004225D0 69 6E 69 6E 67 20 44 69 61 63 72 69 74 69 63 61 ining Diacritica
004225E0 6C 20 4D 61 72 6B 73 20 66 6F 72 20 53 79 6D 62 l Marks for Symb
004225F0 6F 6C 73 00 FF FF FF FF 12 00 00 00 4C 65 74 74 ols.........Lett
00422600 65 72 6C 69 6B 65 20 53 79 6D 62 6F 6C 73 00 00 erlike Symbols..
00422610 FF FF FF FF 0C 00 00 00 4E 75 6D 62 65 72 20 46 ........Number F
00422620 6F 72 6D 73 00 00 00 00 FF FF FF FF 06 00 00 00 orms............
00422630 41 72 72 6F 77 73 00 00 FF FF FF FF 16 00 00 00 Arrows..........
00422640 4D 61 74 68 65 6D 61 74 69 63 61 6C 20 4F 70 65 Mathematical Ope
00422650 72 61 74 6F 72 73 00 00 FF FF FF FF 17 00 00 00 rators..........
00422660 4D 69 73 63 65 6C 6C 61 6E 65 6F 75 73 20 54 65 Miscellaneous Te
00422670 63 68 6E 69 63 61 6C 00 FF FF FF FF 10 00 00 00 chnical.........
00422680 43 6F 6E 74 72 6F 6C 20 50 69 63 74 75 72 65 73 Control Pictures
00422690 00 00 00 00 FF FF FF FF 1D 00 00 00 4F 70 74 69 ............Opti
004226A0 63 61 6C 20 43 68 61 72 61 63 74 65 72 20 52 65 cal Character Re
004226B0 63 6F 67 6E 69 74 69 6F 6E 00 00 00 FF FF FF FF cognition.......
004226C0 16 00 00 00 45 6E 63 6C 6F 73 65 64 20 41 6C 70 ....Enclosed Alp
004226D0 68 61 6E 75 6D 65 72 69 63 73 00 00 FF FF FF FF hanumerics......
004226E0 0B 00 00 00 42 6F 78 20 44 72 61 77 69 6E 67 00 ....Box Drawing.
004226F0 FF FF FF FF 0E 00 00 00 42 6C 6F 63 6B 20 45 6C ........Block El
00422700 65 6D 65 6E 74 73 00 00 FF FF FF FF 10 00 00 00 ements..........
00422710 47 65 6F 6D 65 74 72 69 63 20 53 68 61 70 65 73 Geometric Shapes
00422720 00 00 00 00 FF FF FF FF 15 00 00 00 4D 69 73 63 ............Misc
00422730 65 6C 6C 61 6E 65 6F 75 73 20 53 79 6D 62 6F 6C ellaneous Symbol
00422740 73 00 00 00 FF FF FF FF 08 00 00 00 44 69 6E 67 s...........Ding
00422750 62 61 74 73 00 00 00 00 FF FF FF FF 24 00 00 00 bats........$...
00422760 4D 69 73 63 65 6C 6C 61 6E 65 6F 75 73 20 4D 61 Miscellaneous Ma
00422770 74 68 65 6D 61 74 69 63 61 6C 20 53 79 6D 62 6F thematical Symbo
00422780 6C 73 2D 41 00 00 00 00 FF FF FF FF 15 00 00 00 ls-A............
00422790 53 75 70 70 6C 65 6D 65 6E 74 61 6C 20 41 72 72 Supplemental Arr
004227A0 6F 77 73 2D 41 00 00 00 FF FF FF FF 10 00 00 00 ows-A...........
004227B0 42 72 61 69 6C 6C 65 20 50 61 74 74 65 72 6E 73 Braille Patterns
004227C0 00 00 00 00 FF FF FF FF 15 00 00 00 53 75 70 70 ............Supp
004227D0 6C 65 6D 65 6E 74 61 6C 20 41 72 72 6F 77 73 2D lemental Arrows-
004227E0 42 00 00 00 FF FF FF FF 24 00 00 00 4D 69 73 63 B.......$...Misc
004227F0 65 6C 6C 61 6E 65 6F 75 73 20 4D 61 74 68 65 6D ellaneous Mathem
00422800 61 74 69 63 61 6C 20 53 79 6D 62 6F 6C 73 2D 42 atical Symbols-B
00422810 00 00 00 00 FF FF FF FF 23 00 00 00 53 75 70 70 ........#...Supp
00422820 6C 65 6D 65 6E 74 61 6C 20 4D 61 74 68 65 6D 61 lemental Mathema
00422830 74 69 63 61 6C 20 4F 70 65 72 61 74 6F 72 73 00 tical Operators.
00422840 FF FF FF FF 20 00 00 00 4D 69 73 63 65 6C 6C 61 .... ...Miscella
00422850 6E 65 6F 75 73 20 53 79 6D 62 6F 6C 73 20 61 6E neous Symbols an
00422860 64 20 41 72 72 6F 77 73 00 00 00 00 FF FF FF FF d Arrows........
00422870 0A 00 00 00 47 6C 61 67 6F 6C 69 74 69 63 00 00 ....Glagolitic..
00422880 FF FF FF FF 10 00 00 00 4C 61 74 69 6E 20 45 78 ........Latin Ex
00422890 74 65 6E 64 65 64 2D 43 00 00 00 00 FF FF FF FF tended-C........
004228A0 06 00 00 00 43 6F 70 74 69 63 00 00 FF FF FF FF ....Coptic......
004228B0 13 00 00 00 47 65 6F 72 67 69 61 6E 20 53 75 70 ....Georgian Sup
004228C0 70 6C 65 6D 65 6E 74 00 FF FF FF FF 08 00 00 00 plement.........
004228D0 54 69 66 69 6E 61 67 68 00 00 00 00 FF FF FF FF Tifinagh........
004228E0 11 00 00 00 45 74 68 69 6F 70 69 63 20 45 78 74 ....Ethiopic Ext
004228F0 65 6E 64 65 64 00 00 00 FF FF FF FF 13 00 00 00 ended...........
00422900 43 79 72 69 6C 6C 69 63 20 45 78 74 65 6E 64 65 Cyrillic Extende
00422910 64 2D 41 00 FF FF FF FF 18 00 00 00 53 75 70 70 d-A.........Supp
00422920 6C 65 6D 65 6E 74 61 6C 20 50 75 6E 63 74 75 61 lemental Punctua
00422930 74 69 6F 6E 00 00 00 00 FF FF FF FF 17 00 00 00 tion............
00422940 43 4A 4B 20 52 61 64 69 63 61 6C 73 20 53 75 70 CJK Radicals Sup
00422950 70 6C 65 6D 65 6E 74 00 FF FF FF FF 0F 00 00 00 plement.........
00422960 4B 61 6E 67 78 69 20 52 61 64 69 63 61 6C 73 00 Kangxi Radicals.
00422970 FF FF FF FF 22 00 00 00 49 64 65 6F 67 72 61 70 ...."...Ideograp
00422980 68 69 63 20 44 65 73 63 72 69 70 74 69 6F 6E 20 hic Description 
00422990 43 68 61 72 61 63 74 65 72 73 00 00 FF FF FF FF Characters......
004229A0 1B 00 00 00 43 4A 4B 20 53 79 6D 62 6F 6C 73 20 ....CJK Symbols 
004229B0 61 6E 64 20 50 75 6E 63 74 75 61 74 69 6F 6E 00 and Punctuation.
004229C0 FF FF FF FF 08 00 00 00 48 69 72 61 67 61 6E 61 ........Hiragana
004229D0 00 00 00 00 FF FF FF FF 08 00 00 00 4B 61 74 61 ............Kata
004229E0 6B 61 6E 61 00 00 00 00 FF FF FF FF 08 00 00 00 kana............
004229F0 42 6F 70 6F 6D 6F 66 6F 00 00 00 00 FF FF FF FF Bopomofo........
00422A00 19 00 00 00 48 61 6E 67 75 6C 20 43 6F 6D 70 61 ....Hangul Compa
00422A10 74 69 62 69 6C 69 74 79 20 4A 61 6D 6F 00 00 00 tibility Jamo...
00422A20 FF FF FF FF 06 00 00 00 4B 61 6E 62 75 6E 00 00 ........Kanbun..
00422A30 FF FF FF FF 11 00 00 00 42 6F 70 6F 6D 6F 66 6F ........Bopomofo
00422A40 20 45 78 74 65 6E 64 65 64 00 00 00 FF FF FF FF  Extended.......
00422A50 0B 00 00 00 43 4A 4B 20 53 74 72 6F 6B 65 73 00 ....CJK Strokes.
00422A60 FF FF FF FF 1C 00 00 00 4B 61 74 61 6B 61 6E 61 ........Katakana
00422A70 20 50 68 6F 6E 65 74 69 63 20 45 78 74 65 6E 73  Phonetic Extens
00422A80 69 6F 6E 73 00 00 00 00 FF FF FF FF 1F 00 00 00 ions............
00422A90 45 6E 63 6C 6F 73 65 64 20 43 4A 4B 20 4C 65 74 Enclosed CJK Let
00422AA0 74 65 72 73 20 61 6E 64 20 4D 6F 6E 74 68 73 00 ters and Months.
00422AB0 FF FF FF FF 11 00 00 00 43 4A 4B 20 43 6F 6D 70 ........CJK Comp
00422AC0 61 74 69 62 69 6C 69 74 79 00 00 00 FF FF FF FF atibility.......
00422AD0 22 00 00 00 43 4A 4B 20 55 6E 69 66 69 65 64 20 "...CJK Unified 
00422AE0 49 64 65 6F 67 72 61 70 68 73 20 45 78 74 65 6E Ideographs Exten
00422AF0 73 69 6F 6E 20 41 00 00 FF FF FF FF 17 00 00 00 sion A..........
00422B00 59 69 6A 69 6E 67 20 48 65 78 61 67 72 61 6D 20 Yijing Hexagram 
00422B10 53 79 6D 62 6F 6C 73 00 FF FF FF FF 16 00 00 00 Symbols.........
00422B20 43 4A 4B 20 55 6E 69 66 69 65 64 20 49 64 65 6F CJK Unified Ideo
00422B30 67 72 61 70 68 73 00 00 FF FF FF FF 0C 00 00 00 graphs..........
00422B40 59 69 20 53 79 6C 6C 61 62 6C 65 73 00 00 00 00 Yi Syllables....
00422B50 FF FF FF FF 0B 00 00 00 59 69 20 52 61 64 69 63 ........Yi Radic
00422B60 61 6C 73 00 FF FF FF FF 04 00 00 00 4C 69 73 75 als.........Lisu
00422B70 00 00 00 00 FF FF FF FF 03 00 00 00 56 61 69 00 ............Vai.
00422B80 FF FF FF FF 13 00 00 00 43 79 72 69 6C 6C 69 63 ........Cyrillic
00422B90 20 45 78 74 65 6E 64 65 64 2D 42 00 FF FF FF FF  Extended-B.....
00422BA0 05 00 00 00 42 61 6D 75 6D 00 00 00 FF FF FF FF ....Bamum.......
00422BB0 15 00 00 00 4D 6F 64 69 66 69 65 72 20 54 6F 6E ....Modifier Ton
00422BC0 65 20 4C 65 74 74 65 72 73 00 00 00 FF FF FF FF e Letters.......
00422BD0 10 00 00 00 4C 61 74 69 6E 20 45 78 74 65 6E 64 ....Latin Extend
00422BE0 65 64 2D 44 00 00 00 00 FF FF FF FF 0C 00 00 00 ed-D............
00422BF0 53 79 6C 6F 74 69 20 4E 61 67 72 69 00 00 00 00 Syloti Nagri....
00422C00 FF FF FF FF 19 00 00 00 43 6F 6D 6D 6F 6E 20 49 ........Common I
00422C10 6E 64 69 63 20 4E 75 6D 62 65 72 20 46 6F 72 6D ndic Number Form
00422C20 73 00 00 00 FF FF FF FF 08 00 00 00 50 68 61 67 s...........Phag
00422C30 73 2D 70 61 00 00 00 00 FF FF FF FF 0A 00 00 00 s-pa............
00422C40 53 61 75 72 61 73 68 74 72 61 00 00 FF FF FF FF Saurashtra......
00422C50 13 00 00 00 44 65 76 61 6E 61 67 61 72 69 20 45 ....Devanagari E
00422C60 78 74 65 6E 64 65 64 00 FF FF FF FF 08 00 00 00 xtended.........
00422C70 4B 61 79 61 68 20 4C 69 00 00 00 00 FF FF FF FF Kayah Li........
00422C80 06 00 00 00 52 65 6A 61 6E 67 00 00 FF FF FF FF ....Rejang......
00422C90 16 00 00 00 48 61 6E 67 75 6C 20 4A 61 6D 6F 20 ....Hangul Jamo 
00422CA0 45 78 74 65 6E 64 65 64 2D 41 00 00 FF FF FF FF Extended-A......
00422CB0 08 00 00 00 4A 61 76 61 6E 65 73 65 00 00 00 00 ....Javanese....
00422CC0 FF FF FF FF 04 00 00 00 43 68 61 6D 00 00 00 00 ........Cham....
00422CD0 FF FF FF FF 12 00 00 00 4D 79 61 6E 6D 61 72 20 ........Myanmar 
00422CE0 45 78 74 65 6E 64 65 64 2D 41 00 00 FF FF FF FF Extended-A......
00422CF0 08 00 00 00 54 61 69 20 56 69 65 74 00 00 00 00 ....Tai Viet....
00422D00 FF FF FF FF 13 00 00 00 45 74 68 69 6F 70 69 63 ........Ethiopic
00422D10 20 45 78 74 65 6E 64 65 64 2D 41 00 FF FF FF FF  Extended-A.....
00422D20 0C 00 00 00 4D 65 65 74 65 69 20 4D 61 79 65 6B ....Meetei Mayek
00422D30 00 00 00 00 FF FF FF FF 10 00 00 00 48 61 6E 67 ............Hang
00422D40 75 6C 20 53 79 6C 6C 61 62 6C 65 73 00 00 00 00 ul Syllables....
00422D50 FF FF FF FF 16 00 00 00 48 61 6E 67 75 6C 20 4A ........Hangul J
00422D60 61 6D 6F 20 45 78 74 65 6E 64 65 64 2D 42 00 00 amo Extended-B..
00422D70 FF FF FF FF 0F 00 00 00 48 69 67 68 20 53 75 72 ........High Sur
00422D80 72 6F 67 61 74 65 73 00 FF FF FF FF 1B 00 00 00 rogates.........
00422D90 48 69 67 68 20 50 72 69 76 61 74 65 20 55 73 65 High Private Use
00422DA0 20 53 75 72 72 6F 67 61 74 65 73 00 FF FF FF FF  Surrogates.....
00422DB0 0E 00 00 00 4C 6F 77 20 53 75 72 72 6F 67 61 74 ....Low Surrogat
00422DC0 65 73 00 00 FF FF FF FF 10 00 00 00 50 72 69 76 es..........Priv
00422DD0 61 74 65 20 55 73 65 20 41 72 65 61 00 00 00 00 ate Use Area....
00422DE0 FF FF FF FF 1C 00 00 00 43 4A 4B 20 43 6F 6D 70 ........CJK Comp
00422DF0 61 74 69 62 69 6C 69 74 79 20 49 64 65 6F 67 72 atibility Ideogr
00422E00 61 70 68 73 00 00 00 00 FF FF FF FF 1D 00 00 00 aphs............
00422E10 41 6C 70 68 61 62 65 74 69 63 20 50 72 65 73 65 Alphabetic Prese
00422E20 6E 74 61 74 69 6F 6E 20 46 6F 72 6D 73 00 00 00 ntation Forms...
00422E30 FF FF FF FF 1B 00 00 00 41 72 61 62 69 63 20 50 ........Arabic P
00422E40 72 65 73 65 6E 74 61 74 69 6F 6E 20 46 6F 72 6D resentation Form
00422E50 73 2D 41 00 FF FF FF FF 13 00 00 00 56 61 72 69 s-A.........Vari
00422E60 61 74 69 6F 6E 20 53 65 6C 65 63 74 6F 72 73 00 ation Selectors.
00422E70 FF FF FF FF 0E 00 00 00 56 65 72 74 69 63 61 6C ........Vertical
00422E80 20 46 6F 72 6D 73 00 00 FF FF FF FF 14 00 00 00  Forms..........
00422E90 43 6F 6D 62 69 6E 69 6E 67 20 48 61 6C 66 20 4D Combining Half M
00422EA0 61 72 6B 73 00 00 00 00 FF FF FF FF 17 00 00 00 arks............
00422EB0 43 4A 4B 20 43 6F 6D 70 61 74 69 62 69 6C 69 74 CJK Compatibilit
00422EC0 79 20 46 6F 72 6D 73 00 FF FF FF FF 13 00 00 00 y Forms.........
00422ED0 53 6D 61 6C 6C 20 46 6F 72 6D 20 56 61 72 69 61 Small Form Varia
00422EE0 6E 74 73 00 FF FF FF FF 1B 00 00 00 41 72 61 62 nts.........Arab
00422EF0 69 63 20 50 72 65 73 65 6E 74 61 74 69 6F 6E 20 ic Presentation 
00422F00 46 6F 72 6D 73 2D 42 00 FF FF FF FF 1D 00 00 00 Forms-B.........
00422F10 48 61 6C 66 77 69 64 74 68 20 61 6E 64 20 46 75 Halfwidth and Fu
00422F20 6C 6C 77 69 64 74 68 20 46 6F 72 6D 73 00 00 00 llwidth Forms...
00422F30 FF FF FF FF 08 00 00 00 53 70 65 63 69 61 6C 73 ........Specials
00422F40 00 00 00 00 FF FF FF FF 12 00 00 00 4C 69 6E 65 ............Line
00422F50 61 72 20 42 20 53 79 6C 6C 61 62 61 72 79 00 00 ar B Syllabary..
00422F60 FF FF FF FF 12 00 00 00 4C 69 6E 65 61 72 20 42 ........Linear B
00422F70 20 49 64 65 6F 67 72 61 6D 73 00 00 FF FF FF FF  Ideograms......
00422F80 0E 00 00 00 41 65 67 65 61 6E 20 4E 75 6D 62 65 ....Aegean Numbe
00422F90 72 73 00 00 FF FF FF FF 15 00 00 00 41 6E 63 69 rs..........Anci
00422FA0 65 6E 74 20 47 72 65 65 6B 20 4E 75 6D 62 65 72 ent Greek Number
00422FB0 73 00 00 00 FF FF FF FF 0F 00 00 00 41 6E 63 69 s...........Anci
00422FC0 65 6E 74 20 53 79 6D 62 6F 6C 73 00 FF FF FF FF ent Symbols.....
00422FD0 0D 00 00 00 50 68 61 69 73 74 6F 73 20 44 69 73 ....Phaistos Dis
00422FE0 63 00 00 00 FF FF FF FF 06 00 00 00 4C 79 63 69 c...........Lyci
00422FF0 61 6E 00 00 FF FF FF FF 06 00 00 00 43 61 72 69 an..........Cari
00423000 61 6E 00 00 FF FF FF FF 0A 00 00 00 4F 6C 64 20 an..........Old 
00423010 49 74 61 6C 69 63 00 00 FF FF FF FF 06 00 00 00 Italic..........
00423020 47 6F 74 68 69 63 00 00 FF FF FF FF 08 00 00 00 Gothic..........
00423030 55 67 61 72 69 74 69 63 00 00 00 00 FF FF FF FF Ugaritic........
00423040 0B 00 00 00 4F 6C 64 20 50 65 72 73 69 61 6E 00 ....Old Persian.
00423050 FF FF FF FF 07 00 00 00 44 65 73 65 72 65 74 00 ........Deseret.
00423060 FF FF FF FF 07 00 00 00 53 68 61 76 69 61 6E 00 ........Shavian.
00423070 FF FF FF FF 07 00 00 00 4F 73 6D 61 6E 79 61 00 ........Osmanya.
00423080 FF FF FF FF 11 00 00 00 43 79 70 72 69 6F 74 20 ........Cypriot 
00423090 53 79 6C 6C 61 62 61 72 79 00 00 00 FF FF FF FF Syllabary.......
004230A0 10 00 00 00 49 6D 70 65 72 69 61 6C 20 41 72 61 ....Imperial Ara
004230B0 6D 61 69 63 00 00 00 00 FF FF FF FF 0A 00 00 00 maic............
004230C0 50 68 6F 65 6E 69 63 69 61 6E 00 00 FF FF FF FF Phoenician......
004230D0 06 00 00 00 4C 79 64 69 61 6E 00 00 FF FF FF FF ....Lydian......
004230E0 0A 00 00 00 4B 68 61 72 6F 73 68 74 68 69 00 00 ....Kharoshthi..
004230F0 FF FF FF FF 11 00 00 00 4F 6C 64 20 53 6F 75 74 ........Old Sout
00423100 68 20 41 72 61 62 69 61 6E 00 00 00 FF FF FF FF h Arabian.......
00423110 07 00 00 00 41 76 65 73 74 61 6E 00 FF FF FF FF ....Avestan.....
00423120 16 00 00 00 49 6E 73 63 72 69 70 74 69 6F 6E 61 ....Inscriptiona
00423130 6C 20 50 61 72 74 68 69 61 6E 00 00 FF FF FF FF l Parthian......
00423140 15 00 00 00 49 6E 73 63 72 69 70 74 69 6F 6E 61 ....Inscriptiona
00423150 6C 20 50 61 68 6C 61 76 69 00 00 00 FF FF FF FF l Pahlavi.......
00423160 0A 00 00 00 4F 6C 64 20 54 75 72 6B 69 63 00 00 ....Old Turkic..
00423170 FF FF FF FF 14 00 00 00 52 75 6D 69 20 4E 75 6D ........Rumi Num
00423180 65 72 61 6C 20 53 79 6D 62 6F 6C 73 00 00 00 00 eral Symbols....
00423190 FF FF FF FF 06 00 00 00 42 72 61 68 6D 69 00 00 ........Brahmi..
004231A0 FF FF FF FF 06 00 00 00 4B 61 69 74 68 69 00 00 ........Kaithi..
004231B0 FF FF FF FF 09 00 00 00 43 75 6E 65 69 66 6F 72 ........Cuneifor
004231C0 6D 00 00 00 FF FF FF FF 21 00 00 00 43 75 6E 65 m.......!...Cune
004231D0 69 66 6F 72 6D 20 4E 75 6D 62 65 72 73 20 61 6E iform Numbers an
004231E0 64 20 50 75 6E 63 74 75 61 74 69 6F 6E 00 00 00 d Punctuation...
004231F0 FF FF FF FF 14 00 00 00 45 67 79 70 74 69 61 6E ........Egyptian
00423200 20 48 69 65 72 6F 67 6C 79 70 68 73 00 00 00 00  Hieroglyphs....
00423210 FF FF FF FF 10 00 00 00 42 61 6D 75 6D 20 53 75 ........Bamum Su
00423220 70 70 6C 65 6D 65 6E 74 00 00 00 00 FF FF FF FF pplement........
00423230 0F 00 00 00 4B 61 6E 61 20 53 75 70 70 6C 65 6D ....Kana Supplem
00423240 65 6E 74 00 FF FF FF FF 19 00 00 00 42 79 7A 61 ent.........Byza
00423250 6E 74 69 6E 65 20 4D 75 73 69 63 61 6C 20 53 79 ntine Musical Sy
00423260 6D 62 6F 6C 73 00 00 00 FF FF FF FF 0F 00 00 00 mbols...........
00423270 4D 75 73 69 63 61 6C 20 53 79 6D 62 6F 6C 73 00 Musical Symbols.
00423280 FF FF FF FF 1E 00 00 00 41 6E 63 69 65 6E 74 20 ........Ancient 
00423290 47 72 65 65 6B 20 4D 75 73 69 63 61 6C 20 4E 6F Greek Musical No
004232A0 74 61 74 69 6F 6E 00 00 FF FF FF FF 15 00 00 00 tation..........
004232B0 54 61 69 20 58 75 61 6E 20 4A 69 6E 67 20 53 79 Tai Xuan Jing Sy
004232C0 6D 62 6F 6C 73 00 00 00 FF FF FF FF 15 00 00 00 mbols...........
004232D0 43 6F 75 6E 74 69 6E 67 20 52 6F 64 20 4E 75 6D Counting Rod Num
004232E0 65 72 61 6C 73 00 00 00 FF FF FF FF 21 00 00 00 erals.......!...
004232F0 4D 61 74 68 65 6D 61 74 69 63 61 6C 20 41 6C 70 Mathematical Alp
00423300 68 61 6E 75 6D 65 72 69 63 20 53 79 6D 62 6F 6C hanumeric Symbol
00423310 73 00 00 00 FF FF FF FF 0D 00 00 00 4D 61 68 6A s...........Mahj
00423320 6F 6E 67 20 54 69 6C 65 73 00 00 00 FF FF FF FF ong Tiles.......
00423330 0C 00 00 00 44 6F 6D 69 6E 6F 20 54 69 6C 65 73 ....Domino Tiles
00423340 00 00 00 00 FF FF FF FF 0D 00 00 00 50 6C 61 79 ............Play
00423350 69 6E 67 20 43 61 72 64 73 00 00 00 FF FF FF FF ing Cards.......
00423360 20 00 00 00 45 6E 63 6C 6F 73 65 64 20 41 6C 70  ...Enclosed Alp
00423370 68 61 6E 75 6D 65 72 69 63 20 53 75 70 70 6C 65 hanumeric Supple
00423380 6D 65 6E 74 00 00 00 00 FF FF FF FF 1F 00 00 00 ment............
00423390 45 6E 63 6C 6F 73 65 64 20 49 64 65 6F 67 72 61 Enclosed Ideogra
004233A0 70 68 69 63 20 53 75 70 70 6C 65 6D 65 6E 74 00 phic Supplement.
004233B0 FF FF FF FF 25 00 00 00 4D 69 73 63 65 6C 6C 61 ....%...Miscella
004233C0 6E 65 6F 75 73 20 53 79 6D 62 6F 6C 73 20 41 6E neous Symbols An
004233D0 64 20 50 69 63 74 6F 67 72 61 70 68 73 00 00 00 d Pictographs...
004233E0 FF FF FF FF 09 00 00 00 45 6D 6F 74 69 63 6F 6E ........Emoticon
004233F0 73 00 00 00 FF FF FF FF 19 00 00 00 54 72 61 6E s...........Tran
00423400 73 70 6F 72 74 20 41 6E 64 20 4D 61 70 20 53 79 sport And Map Sy
00423410 6D 62 6F 6C 73 00 00 00 FF FF FF FF 12 00 00 00 mbols...........
00423420 41 6C 63 68 65 6D 69 63 61 6C 20 53 79 6D 62 6F Alchemical Symbo
00423430 6C 73 00 00 FF FF FF FF 22 00 00 00 43 4A 4B 20 ls......"...CJK 
00423440 55 6E 69 66 69 65 64 20 49 64 65 6F 67 72 61 70 Unified Ideograp
00423450 68 73 20 45 78 74 65 6E 73 69 6F 6E 20 42 00 00 hs Extension B..
00423460 FF FF FF FF 22 00 00 00 43 4A 4B 20 55 6E 69 66 ...."...CJK Unif
00423470 69 65 64 20 49 64 65 6F 67 72 61 70 68 73 20 45 ied Ideographs E
00423480 78 74 65 6E 73 69 6F 6E 20 43 00 00 FF FF FF FF xtension C......
00423490 22 00 00 00 43 4A 4B 20 55 6E 69 66 69 65 64 20 "...CJK Unified 
004234A0 49 64 65 6F 67 72 61 70 68 73 20 45 78 74 65 6E Ideographs Exten
004234B0 73 69 6F 6E 20 44 00 00 FF FF FF FF 27 00 00 00 sion D......'...
004234C0 43 4A 4B 20 43 6F 6D 70 61 74 69 62 69 6C 69 74 CJK Compatibilit
004234D0 79 20 49 64 65 6F 67 72 61 70 68 73 20 53 75 70 y Ideographs Sup
004234E0 70 6C 65 6D 65 6E 74 00 FF FF FF FF 04 00 00 00 plement.........
004234F0 54 61 67 73 00 00 00 00 FF FF FF FF 1E 00 00 00 Tags............
00423500 56 61 72 69 61 74 69 6F 6E 20 53 65 6C 65 63 74 Variation Select
00423510 6F 72 73 20 53 75 70 70 6C 65 6D 65 6E 74 00 00 ors Supplement..
00423520 FF FF FF FF 20 00 00 00 53 75 70 70 6C 65 6D 65 .... ...Suppleme
00423530 6E 74 61 72 79 20 50 72 69 76 61 74 65 20 55 73 ntary Private Us
00423540 65 20 41 72 65 61 2D 41 00 00 00 00 FF FF FF FF e Area-A........
00423550 20 00 00 00 53 75 70 70 6C 65 6D 65 6E 74 61 72  ...Supplementar
00423560 79 20 50 72 69 76 61 74 65 20 55 73 65 20 41 72 y Private Use Ar
00423570 65 61 2D 42 00 00 00 00 24 55 52 4C 3A 20 68 74 ea-B....$URL: ht
00423580 74 70 73 3A 2F 2F 6A 63 6C 2E 73 76 6E 2E 73 6F tps://jcl.svn.so
00423590 75 72 63 65 66 6F 72 67 65 2E 6E 65 74 2F 73 76 urceforge.net/sv
004235A0 6E 72 6F 6F 74 2F 6A 63 6C 2F 74 61 67 73 2F 4A nroot/jcl/tags/J
004235B0 43 4C 2D 32 2E 34 2D 42 75 69 6C 64 34 35 37 31 CL-2.4-Build4571
004235C0 2F 6A 63 6C 2F 73 6F 75 72 63 65 2F 63 6F 6D 6D /jcl/source/comm
004235D0 6F 6E 2F 4A 63 6C 55 6E 69 63 6F 64 65 2E 70 61 on/JclUnicode.pa
004235E0 73 20 24 00 24 52 65 76 69 73 69 6F 6E 3A 20 33 s $.$Revision: 3
004235F0 38 36 31 20 24 00 00 00 24 44 61 74 65 3A 20 32 861 $...$Date: 2
00423600 30 31 32 2D 30 39 2D 30 34 20 31 36 3A 30 38 3A 012-09-04 16:08:
00423610 30 34 20 2B 30 32 30 30 20 28 54 75 65 2C 20 30 04 +0200 (Tue, 0
00423620 34 20 53 65 70 20 32 30 31 32 29 20 24 00 00 00 4 Sep 2012) $...
00423630 4A 43 4C 5C 73 6F 75 72 63 65 5C 63 6F 6D 6D 6F JCL\source\commo
00423640 6E 00 00 00 00 00 00 00 4C 36 42 00 11 03 2E 38 n.......L6B....8
00423650 31 0B 00 00 00 00 00 00 00 FF FF FF FF 74 1F 42 1............t.B
00423660 00 0A 4A 63 6C 55 6E 69 63 6F 64 65 70 36 42 00 ..JclUnicodep6B.
00423670 11 10 54 43 61 74 65 67 6F 72 69 65 73 41 72 72 ..TCategoriesArr
00423680 61 79 04 00 00 00 48 36 42 00 FF FF FF FF 74 1F ay....H6B.....t.
00423690 42 00 0A 4A 63 6C 55 6E 69 63 6F 64 65 8D 40 00 B..JclUnicode.@.
004236A0 A4 36 42 00 0D 05 54 43 61 73 65 10 00 00 00 04 .6B...TCase.....
004236B0 00 00 00 98 DA 41 00 90 BC 36 42 00 11 03 2E 30 .....A...6B....0
004236C0 32 10 00 00 00 A0 36 42 00 FF FF FF FF A0 36 42 2.....6B......6B
004236D0 00 0A 4A 63 6C 55 6E 69 63 6F 64 65 E0 36 42 00 ..JclUnicode.6B.
004236E0 11 0A 54 43 61 73 65 41 72 72 61 79 04 00 00 00 ..TCaseArray....
004236F0 B8 36 42 00 FF FF FF FF A0 36 42 00 0A 4A 63 6C .6B......6B..Jcl
00423700 55 6E 69 63 6F 64 65 90 0C 37 42 00 0E 0E 54 44 Unicode..7B...TD
00423710 65 63 6F 6D 70 6F 73 69 74 69 6F 6E 08 00 00 00 ecomposition....
00423720 01 00 00 00 98 DA 41 00 04 00 00 00 30 37 42 00 ......A.....07B.
00423730 11 03 2E 32 32 08 00 00 00 08 37 42 00 FF FF FF ...22.....7B....
00423740 FF 08 37 42 00 0A 4A 63 6C 55 6E 69 63 6F 64 65 ..7B..JclUnicode
00423750 54 37 42 00 11 0F 54 44 65 63 6F 6D 70 6F 73 69 T7B...TDecomposi
00423760 74 69 6F 6E 73 04 00 00 00 2C 37 42 00 FF FF FF tions....,7B....
00423770 FF 08 37 42 00 0A 4A 63 6C 55 6E 69 63 6F 64 65 ..7B..JclUnicode
00423780 84 37 42 00 11 03 2E 33 32 01 00 00 00 00 00 00 .7B....32.......
00423790 00 11 00 00 00 18 10 40 00 0A 4A 63 6C 55 6E 69 .......@..JclUni
004237A0 63 6F 64 65 A8 37 42 00 11 0B 54 43 6C 61 73 73 code.7B...TClass
004237B0 41 72 72 61 79 04 00 00 00 80 37 42 00 11 00 00 Array.....7B....
004237C0 00 18 10 40 00 0A 4A 63 6C 55 6E 69 63 6F 64 65 ...@..JclUnicode
004237D0 D4 37 42 00 11 03 2E 35 32 08 00 00 00 00 00 00 .7B....52.......
004237E0 00 FF FF FF FF 00 00 00 00 0A 4A 63 6C 55 6E 69 ..........JclUni
004237F0 63 6F 64 65 F8 37 42 00 11 03 2E 36 32 08 00 00 code.7B....62...
00423800 00 00 00 00 00 FF FF FF FF 00 00 00 00 0A 4A 63 ..............Jc
00423810 6C 55 6E 69 63 6F 64 65 1C 38 42 00 11 03 2E 37 lUnicode.8B....7
00423820 32 04 00 00 00 00 00 00 00 03 00 00 00 2C 10 40 2............,.@
00423830 00 0A 4A 63 6C 55 6E 69 63 6F 64 65 40 38 42 00 ..JclUnicode@8B.
00423840 0E 0C 54 43 6F 6D 70 6F 73 69 74 69 6F 6E 10 00 ..TComposition..
00423850 00 00 01 00 00 00 18 38 42 00 0C 00 00 00 8B C0 .......8B.......
00423860 64 38 42 00 11 03 2E 38 32 10 00 00 00 3C 38 42 d8B....82....<8B
00423870 00 FF FF FF FF 3C 38 42 00 0A 4A 63 6C 55 6E 69 .....<8B..JclUni
00423880 63 6F 64 65 55 8B EC 83 C4 F4 53 33 D2 89 55 F4 codeU.....S3..U.
00423890 33 D2 55 68 E8 38 42 00 64 FF 32 64 89 22 6A 06 3.Uh.8B.d.2d."j.
004238A0 8D 55 F9 52 68 04 10 00 00 50 E8 01 2C FE FF 8D .U.Rh....P..,...
004238B0 45 F4 8D 55 F9 B9 07 00 00 00 E8 F1 0B FE FF 8B E..U............
004238C0 45 F4 50 E8 A0 2B FE FF 8B D0 58 E8 6C 42 FE FF E.P..+....X.lB..
004238D0 8B D8 33 C0 5A 59 59 64 89 10 68 EF 38 42 00 8D ..3.ZYYd..h.8B..
004238E0 45 F4 E8 59 09 FE FF C3 E9 37 03 FE FF EB F0 8B E..Y.....7......
004238F0 C3 5B 8B E5 5D C3 8B C0 55 8B EC 83 C4 EC 53 56 .[..]...U.....SV
00423900 57 33 DB 89 5D F0 89 5D EC 89 4D F4 89 55 F8 89 W3..]..]..M..U..
00423910 45 FC 33 C0 55 68 E7 39 42 00 64 FF 30 64 89 20 E.3.Uh.9B.d.0d. 
00423920 8B 45 FC E8 44 11 FE FF 8B D8 8B 45 F8 E8 3A 11 .E..D......E..:.
00423930 FE FF 8B F0 8D 45 F0 8B D3 E8 F2 0E FE FF 8D 45 .....E.........E
00423940 EC 8B D6 E8 E8 0E FE FF 8B 45 F4 E8 34 FF FF FF .........E..4...
00423950 8B F8 6A 00 6A 00 53 8B 45 F0 E8 A1 0D FE FF 50 ..j.j.S.E......P
00423960 53 8B 45 FC E8 F3 10 FE FF 50 6A 00 0F B7 C7 50 S.E......Pj....P
00423970 E8 33 2C FE FF 6A 00 6A 00 56 8B 45 EC E8 7E 0D .3,..j.j.V.E..~.
00423980 FE FF 50 56 8B 45 F8 E8 D0 10 FE FF 50 6A 00 0F ..PV.E......Pj..
00423990 B7 C7 50 E8 10 2C FE FF 8B 45 EC E8 60 0B FE FF ..P..,...E..`...
004239A0 50 8B 45 EC E8 57 0D FE FF 50 8B 45 F0 E8 4E 0B P.E..W...P.E..N.
004239B0 FE FF 50 8B 45 F0 E8 45 0D FE FF 50 6A 01 8B 45 ..P.E..E...Pj..E
004239C0 F4 50 E8 21 2A FE FF 8B D8 83 EB 02 33 C0 5A 59 .P.!*.......3.ZY
004239D0 59 64 89 10 68 EE 39 42 00 8D 45 EC BA 02 00 00 Yd..h.9B..E.....
004239E0 00 E8 7E 08 FE FF C3 E9 38 02 FE FF EB EB 8B C3 ..~.....8.......
004239F0 5F 5E 5B 8B E5 5D C3 90 53 56 57 8B F9 8B F2 8B _^[..]..SVW.....
00423A00 D8 8B C6 E8 64 10 FE FF 50 8B C6 E8 4C 10 FE FF ....d...P...L...
00423A10 50 8B C3 E8 54 10 FE FF 50 8B C3 E8 3C 10 FE FF P...T...P...<...
00423A20 50 6A 01 57 E8 C7 29 FE FF 83 E8 02 5F 5E 5B C3 Pj.W..)....._^[.
00423A30 B2 01 A1 FC 50 42 00 E8 24 19 00 00 A3 7C B9 42 ....PB..$....|.B
00423A40 00 A1 D8 A9 42 00 F6 00 02 74 0B C7 05 74 B9 42 ....B....t...t.B
00423A50 00 F8 39 42 00 C3 C7 05 74 B9 42 00 F8 38 42 00 ..9B....t.B..8B.
00423A60 C3 8D 40 00 B8 7C B9 42 00 E8 D2 8E FE FF C3 90 ..@..|.B........
00423A70 55 8B EC 33 C0 55 68 43 3B 42 00 64 FF 30 64 89 U..3.UhC;B.d.0d.
00423A80 20 FF 05 78 B9 42 00 0F 85 A8 00 00 00 A1 68 B6  ..x.B........h.
00423A90 42 00 E8 81 28 00 00 E8 C8 FF FF FF B8 88 C9 42 B...(..........B
00423AA0 00 8B 15 60 38 42 00 E8 D0 19 FE FF B8 84 C9 42 ...`8B.........B
00423AB0 00 8B 15 F4 37 42 00 E8 C0 19 FE FF B8 80 C9 42 ....7B.........B
00423AC0 00 8B 15 D0 37 42 00 E8 B0 19 FE FF B8 80 C5 42 ....7B.........B
00423AD0 00 B9 00 01 00 00 8B 15 A4 37 42 00 E8 CB 11 FE .........7B.....
00423AE0 FF B8 80 C1 42 00 B9 00 01 00 00 8B 15 50 37 42 ....B........P7B
00423AF0 00 E8 B6 11 FE FF B8 80 BD 42 00 B9 00 01 00 00 .........B......
00423B00 8B 15 DC 36 42 00 E8 A1 11 FE FF B8 80 B9 42 00 ...6B.........B.
00423B10 B9 00 01 00 00 8B 15 6C 36 42 00 E8 8C 11 FE FF .......l6B......
00423B20 B8 60 99 42 00 B9 D2 00 00 00 8B 15 94 1F 42 00 .`.B..........B.
00423B30 E8 77 11 FE FF 33 C0 5A 59 59 64 89 10 68 4A 3B .w...3.ZYYd..hJ;
00423B40 42 00 C3 E9 DC 00 FE FF EB F8 5D C3 55 8B EC 33 B.........].U..3
00423B50 C0 55 68 88 3B 42 00 64 FF 30 64 89 20 83 2D 78 .Uh.;B.d.0d. .-x
00423B60 B9 42 00 01 73 14 E8 C5 FE FF FF BA 38 A3 42 00 .B..s.......8.B.
00423B70 A1 68 B6 42 00 E8 82 27 00 00 33 C0 5A 59 59 64 .h.B...'..3.ZYYd
00423B80 89 10 68 8F 3B 42 00 C3 E9 97 00 FE FF EB F8 5D ..h.;B.........]
00423B90 C3 8D 40 00 24 55 52 4C 3A 20 68 74 74 70 73 3A ..@.$URL: https:
00423BA0 2F 2F 6A 63 6C 2E 73 76 6E 2E 73 6F 75 72 63 65 //jcl.svn.source
00423BB0 66 6F 72 67 65 2E 6E 65 74 2F 73 76 6E 72 6F 6F forge.net/svnroo
00423BC0 74 2F 6A 63 6C 2F 74 61 67 73 2F 4A 43 4C 2D 32 t/jcl/tags/JCL-2
00423BD0 2E 34 2D 42 75 69 6C 64 34 35 37 31 2F 6A 63 6C .4-Build4571/jcl
00423BE0 2F 73 6F 75 72 63 65 2F 63 6F 6D 6D 6F 6E 2F 4A /source/common/J
00423BF0 63 6C 57 69 64 65 53 74 72 69 6E 67 73 2E 70 61 clWideStrings.pa
00423C00 73 20 24 00 24 52 65 76 69 73 69 6F 6E 3A 20 33 s $.$Revision: 3
00423C10 37 35 39 20 24 00 00 00 24 44 61 74 65 3A 20 32 759 $...$Date: 2
00423C20 30 31 32 2D 30 33 2D 30 34 20 31 39 3A 33 39 3A 012-03-04 19:39:
00423C30 34 37 20 2B 30 31 30 30 20 28 53 75 6E 2C 20 30 47 +0100 (Sun, 0
00423C40 34 20 4D 61 72 20 32 30 31 32 29 20 24 00 00 00 4 Mar 2012) $...
00423C50 4A 43 4C 5C 73 6F 75 72 63 65 5C 63 6F 6D 6D 6F JCL\source\commo
00423C60 6E 00 00 00 00 00 00 00 55 8B EC 33 C0 55 68 99 n.......U..3.Uh.
00423C70 3C 42 00 64 FF 30 64 89 20 FF 05 8C C9 42 00 75 <B.d.0d. ....B.u
00423C80 0A A1 68 B6 42 00 E8 8D 26 00 00 33 C0 5A 59 59 ..h.B...&..3.ZYY
00423C90 64 89 10 68 A0 3C 42 00 C3 E9 86 FF FD FF EB F8 d..h.<B.........
00423CA0 5D C3 8B C0 83 2D 8C C9 42 00 01 73 0F BA 50 A3 ]....-..B..s..P.
00423CB0 42 00 A1 68 B6 42 00 E8 40 26 00 00 C3 8D 40 00 B..h.B..@&....@.
00423CC0 24 55 52 4C 3A 20 68 74 74 70 73 3A 2F 2F 6A 63 $URL: https://jc
00423CD0 6C 2E 73 76 6E 2E 73 6F 75 72 63 65 66 6F 72 67 l.svn.sourceforg
00423CE0 65 2E 6E 65 74 2F 73 76 6E 72 6F 6F 74 2F 6A 63 e.net/svnroot/jc
00423CF0 6C 2F 74 61 67 73 2F 4A 43 4C 2D 32 2E 34 2D 42 l/tags/JCL-2.4-B
00423D00 75 69 6C 64 34 35 37 31 2F 6A 63 6C 2F 73 6F 75 uild4571/jcl/sou
00423D10 72 63 65 2F 77 69 6E 64 6F 77 73 2F 4A 63 6C 53 rce/windows/JclS
00423D20 68 65 6C 6C 2E 70 61 73 20 24 00 00 24 52 65 76 hell.pas $..$Rev
00423D30 69 73 69 6F 6E 3A 20 33 35 39 39 20 24 00 00 00 ision: 3599 $...
00423D40 24 44 61 74 65 3A 20 32 30 31 31 2D 30 39 2D 30 $Date: 2011-09-0
00423D50 33 20 30 30 3A 30 37 3A 35 30 20 2B 30 32 30 30 3 00:07:50 +0200
00423D60 20 28 53 61 74 2C 20 30 33 20 53 65 70 20 32 30  (Sat, 03 Sep 20
00423D70 31 31 29 20 24 00 00 00 4A 43 4C 5C 73 6F 75 72 11) $...JCL\sour
00423D80 63 65 5C 77 69 6E 64 6F 77 73 00 00 00 00 00 00 ce\windows......
00423D90 55 8B EC 33 C0 55 68 CB 3D 42 00 64 FF 30 64 89 U..3.Uh.=B.d.0d.
00423DA0 20 FF 05 90 C9 42 00 75 14 A1 68 B6 42 00 E8 65  ....B.u..h.B..e
00423DB0 25 00 00 B8 68 A3 42 00 E8 CB 1C 00 00 33 C0 5A %...h.B......3.Z
00423DC0 59 59 64 89 10 68 D2 3D 42 00 C3 E9 54 FE FD FF YYd..h.=B...T...
00423DD0 EB F8 5D C3 83 2D 90 C9 42 00 01 73 0F BA 6C A3 ..]..-..B..s..l.
00423DE0 42 00 A1 68 B6 42 00 E8 10 25 00 00 C3 8D 40 00 B..h.B...%....@.
00423DF0 24 55 52 4C 3A 20 68 74 74 70 73 3A 2F 2F 6A 63 $URL: https://jc
00423E00 6C 2E 73 76 6E 2E 73 6F 75 72 63 65 66 6F 72 67 l.svn.sourceforg
00423E10 65 2E 6E 65 74 2F 73 76 6E 72 6F 6F 74 2F 6A 63 e.net/svnroot/jc
00423E20 6C 2F 74 61 67 73 2F 4A 43 4C 2D 32 2E 34 2D 42 l/tags/JCL-2.4-B
00423E30 75 69 6C 64 34 35 37 31 2F 6A 63 6C 2F 73 6F 75 uild4571/jcl/sou
00423E40 72 63 65 2F 77 69 6E 64 6F 77 73 2F 4A 63 6C 53 rce/windows/JclS
00423E50 65 63 75 72 69 74 79 2E 70 61 73 20 24 00 00 00 ecurity.pas $...
00423E60 24 52 65 76 69 73 69 6F 6E 3A 20 33 35 39 39 20 $Revision: 3599 
00423E70 24 00 00 00 24 44 61 74 65 3A 20 32 30 31 31 2D $...$Date: 2011-
00423E80 30 39 2D 30 33 20 30 30 3A 30 37 3A 35 30 20 2B 09-03 00:07:50 +
00423E90 30 32 30 30 20 28 53 61 74 2C 20 30 33 20 53 65 0200 (Sat, 03 Se
00423EA0 70 20 32 30 31 31 29 20 24 00 00 00 4A 43 4C 5C p 2011) $...JCL\
00423EB0 73 6F 75 72 63 65 5C 77 69 6E 64 6F 77 73 00 00 source\windows..
00423EC0 00 00 00 00 55 8B EC 33 C0 55 68 F5 3E 42 00 64 ....U..3.Uh.>B.d
00423ED0 FF 30 64 89 20 FF 05 94 C9 42 00 75 0A A1 68 B6 .0d. ....B.u..h.
00423EE0 42 00 E8 31 24 00 00 33 C0 5A 59 59 64 89 10 68 B..1$..3.ZYYd..h
00423EF0 FC 3E 42 00 C3 E9 2A FD FD FF EB F8 5D C3 8B C0 .>B...*.....]...
00423F00 83 2D 94 C9 42 00 01 73 0F BA 84 A3 42 00 A1 68 .-..B..s....B..h
00423F10 B6 42 00 E8 E4 23 00 00 C3 8D 40 00 24 55 52 4C .B...#....@.$URL
00423F20 3A 20 68 74 74 70 73 3A 2F 2F 6A 63 6C 2E 73 76 : https://jcl.sv
00423F30 6E 2E 73 6F 75 72 63 65 66 6F 72 67 65 2E 6E 65 n.sourceforge.ne
00423F40 74 2F 73 76 6E 72 6F 6F 74 2F 6A 63 6C 2F 74 61 t/svnroot/jcl/ta
00423F50 67 73 2F 4A 43 4C 2D 32 2E 34 2D 42 75 69 6C 64 gs/JCL-2.4-Build
00423F60 34 35 37 31 2F 6A 63 6C 2F 73 6F 75 72 63 65 2F 4571/jcl/source/
00423F70 63 6F 6D 6D 6F 6E 2F 4A 63 6C 44 61 74 65 54 69 common/JclDateTi
00423F80 6D 65 2E 70 61 73 20 24 00 00 00 00 24 52 65 76 me.pas $....$Rev
00423F90 69 73 69 6F 6E 3A 20 33 35 39 39 20 24 00 00 00 ision: 3599 $...
00423FA0 24 44 61 74 65 3A 20 32 30 31 31 2D 30 39 2D 30 $Date: 2011-09-0
00423FB0 33 20 30 30 3A 30 37 3A 35 30 20 2B 30 32 30 30 3 00:07:50 +0200
00423FC0 20 28 53 61 74 2C 20 30 33 20 53 65 70 20 32 30  (Sat, 03 Sep 20
00423FD0 31 31 29 20 24 00 00 00 4A 43 4C 5C 73 6F 75 72 11) $...JCL\sour
00423FE0 63 65 5C 63 6F 6D 6D 6F 6E 00 00 00 00 00 00 00 ce\common.......
00423FF0 55 8B EC 33 C0 55 68 21 40 42 00 64 FF 30 64 89 U..3.Uh!@B.d.0d.
00424000 20 FF 05 98 C9 42 00 75 0A A1 68 B6 42 00 E8 05  ....B.u..h.B...
00424010 23 00 00 33 C0 5A 59 59 64 89 10 68 28 40 42 00 #..3.ZYYd..h(@B.
00424020 C3 E9 FE FB FD FF EB F8 5D C3 8B C0 83 2D 98 C9 ........]....-..
00424030 42 00 01 73 0F BA 9C A3 42 00 A1 68 B6 42 00 E8 B..s....B..h.B..
00424040 B8 22 00 00 C3 8D 40 00 24 55 52 4C 3A 20 68 74 ."....@.$URL: ht
00424050 74 70 73 3A 2F 2F 6A 63 6C 2E 73 76 6E 2E 73 6F tps://jcl.svn.so
00424060 75 72 63 65 66 6F 72 67 65 2E 6E 65 74 2F 73 76 urceforge.net/sv
00424070 6E 72 6F 6F 74 2F 6A 63 6C 2F 74 61 67 73 2F 4A nroot/jcl/tags/J
00424080 43 4C 2D 32 2E 34 2D 42 75 69 6C 64 34 35 37 31 CL-2.4-Build4571
00424090 2F 6A 63 6C 2F 73 6F 75 72 63 65 2F 77 69 6E 64 /jcl/source/wind
004240A0 6F 77 73 2F 4A 63 6C 43 6F 6E 73 6F 6C 65 2E 70 ows/JclConsole.p
004240B0 61 73 20 24 00 00 00 00 24 52 65 76 69 73 69 6F as $....$Revisio
004240C0 6E 3A 20 33 37 32 34 20 24 00 00 00 24 44 61 74 n: 3724 $...$Dat
004240D0 65 3A 20 32 30 31 32 2D 30 32 2D 31 32 20 32 33 e: 2012-02-12 23
004240E0 3A 33 30 3A 30 38 20 2B 30 31 30 30 20 28 53 75 :30:08 +0100 (Su
004240F0 6E 2C 20 31 32 20 46 65 62 20 32 30 31 32 29 20 n, 12 Feb 2012) 
00424100 24 00 00 00 4A 43 4C 5C 73 6F 75 72 63 65 5C 77 $...JCL\source\w
00424110 69 6E 64 6F 77 73 00 00 00 00 00 00 55 8B EC 33 indows......U..3
00424120 C0 55 68 4D 41 42 00 64 FF 30 64 89 20 FF 05 9C .UhMAB.d.0d. ...
00424130 C9 42 00 75 0A A1 68 B6 42 00 E8 D9 21 00 00 33 .B.u..h.B...!..3
00424140 C0 5A 59 59 64 89 10 68 54 41 42 00 C3 E9 D2 FA .ZYYd..hTAB.....
00424150 FD FF EB F8 5D C3 8B C0 83 2D 9C C9 42 00 01 73 ....]....-..B..s
00424160 0F BA B4 A3 42 00 A1 68 B6 42 00 E8 8C 21 00 00 ....B..h.B...!..
00424170 C3 8D 40 00 24 55 52 4C 3A 20 68 74 74 70 73 3A ..@.$URL: https:
00424180 2F 2F 6A 63 6C 2E 73 76 6E 2E 73 6F 75 72 63 65 //jcl.svn.source
00424190 66 6F 72 67 65 2E 6E 65 74 2F 73 76 6E 72 6F 6F forge.net/svnroo
004241A0 74 2F 6A 63 6C 2F 74 61 67 73 2F 4A 43 4C 2D 32 t/jcl/tags/JCL-2
004241B0 2E 34 2D 42 75 69 6C 64 34 35 37 31 2F 6A 63 6C .4-Build4571/jcl
004241C0 2F 73 6F 75 72 63 65 2F 63 6F 6D 6D 6F 6E 2F 4A /source/common/J
004241D0 63 6C 53 74 72 65 61 6D 73 2E 70 61 73 20 24 00 clStreams.pas $.
004241E0 24 52 65 76 69 73 69 6F 6E 3A 20 33 38 36 31 20 $Revision: 3861 
004241F0 24 00 00 00 24 44 61 74 65 3A 20 32 30 31 32 2D $...$Date: 2012-
00424200 30 39 2D 30 34 20 31 36 3A 30 38 3A 30 34 20 2B 09-04 16:08:04 +
00424210 30 32 30 30 20 28 54 75 65 2C 20 30 34 20 53 65 0200 (Tue, 04 Se
00424220 70 20 32 30 31 32 29 20 24 00 00 00 4A 43 4C 5C p 2012) $...JCL\
00424230 73 6F 75 72 63 65 5C 63 6F 6D 6D 6F 6E 00 00 00 source\common...
00424240 00 00 00 00 55 8B EC 33 C0 55 68 75 42 42 00 64 ....U..3.UhuBB.d
00424250 FF 30 64 89 20 FF 05 A0 C9 42 00 75 0A A1 68 B6 .0d. ....B.u..h.
00424260 42 00 E8 B1 20 00 00 33 C0 5A 59 59 64 89 10 68 B... ..3.ZYYd..h
00424270 7C 42 42 00 C3 E9 AA F9 FD FF EB F8 5D C3 8B C0 |BB.........]...
00424280 83 2D A0 C9 42 00 01 73 0F BA CC A3 42 00 A1 68 .-..B..s....B..h
00424290 B6 42 00 E8 64 20 00 00 C3 8D 40 00 24 55 52 4C .B..d ....@.$URL
004242A0 3A 20 68 74 74 70 73 3A 2F 2F 6A 63 6C 2E 73 76 : https://jcl.sv
004242B0 6E 2E 73 6F 75 72 63 65 66 6F 72 67 65 2E 6E 65 n.sourceforge.ne
004242C0 74 2F 73 76 6E 72 6F 6F 74 2F 6A 63 6C 2F 74 61 t/svnroot/jcl/ta
004242D0 67 73 2F 4A 43 4C 2D 32 2E 34 2D 42 75 69 6C 64 gs/JCL-2.4-Build
004242E0 34 35 37 31 2F 6A 63 6C 2F 73 6F 75 72 63 65 2F 4571/jcl/source/
004242F0 63 6F 6D 6D 6F 6E 2F 4A 63 6C 41 6E 73 69 53 74 common/JclAnsiSt
00424300 72 69 6E 67 73 2E 70 61 73 20 24 00 24 52 65 76 rings.pas $.$Rev
00424310 69 73 69 6F 6E 3A 20 33 36 36 38 20 24 00 00 00 ision: 3668 $...
00424320 24 44 61 74 65 3A 20 32 30 31 32 2D 30 31 2D 30 $Date: 2012-01-0
00424330 33 20 32 30 3A 30 33 3A 35 31 20 2B 30 31 30 30 3 20:03:51 +0100
00424340 20 28 54 75 65 2C 20 30 33 20 4A 61 6E 20 32 30  (Tue, 03 Jan 20
00424350 31 32 29 20 24 00 00 00 4A 43 4C 5C 73 6F 75 72 12) $...JCL\sour
00424360 63 65 5C 63 6F 6D 6D 6F 6E 00 00 00 00 00 00 00 ce\common.......
00424370 53 56 57 51 8B F4 8D 7C 24 02 C6 06 00 BB A4 CC SVWQ...|$.......
00424380 42 00 66 C7 07 00 00 57 6A 01 56 6A 01 68 00 04 B.f....Wj.Vj.h..
00424390 00 00 E8 49 21 FE FF 66 8B 07 66 89 03 FE 06 83 ...I!..f..f.....
004243A0 C3 02 80 3E 00 75 DB 5A 5F 5E 5B C3 53 56 51 80 ...>.u.Z_^[.SVQ.
004243B0 3D E4 A3 42 00 00 75 6B 33 DB BE A4 C9 42 00 88 =..B..uk3....B..
004243C0 5C 24 01 88 1C 24 6A 01 8D 44 24 05 50 E8 46 23 \$...$j..D$.P.F#
004243D0 FE FF 6A 01 8D 44 24 04 50 E8 5A 23 FE FF 8B C3 ..j..D$.P.Z#....
004243E0 E8 57 00 00 00 84 C0 74 06 8A 44 24 01 EB 12 8B .W.....t..D$....
004243F0 C3 E8 32 00 00 00 84 C0 74 05 8A 04 24 EB 02 8B ..2.....t...$...
00424400 C3 8A 54 24 01 88 16 8A 14 24 88 96 00 01 00 00 ..T$.....$......
00424410 88 86 00 02 00 00 43 46 84 DB 75 A3 C6 05 E4 A3 ......CF..u.....
00424420 42 00 01 5A 5E 5B C3 90 25 FF 00 00 00 F6 04 45 B..Z^[..%......E
00424430 A4 CC 42 00 02 0F 95 C0 C3 8D 40 00 25 FF 00 00 ..B.......@.%...
00424440 00 F6 04 45 A4 CC 42 00 01 0F 95 C0 C3 8D 40 00 ...E..B.......@.
00424450 55 8B EC 33 C0 55 68 81 44 42 00 64 FF 30 64 89 U..3.Uh.DB.d.0d.
00424460 20 FF 05 A4 CE 42 00 75 0A A1 68 B6 42 00 E8 A5  ....B.u..h.B...
00424470 1E 00 00 33 C0 5A 59 59 64 89 10 68 88 44 42 00 ...3.ZYYd..h.DB.
00424480 C3 E9 9E F7 FD FF EB F8 5D C3 8B C0 83 2D A4 CE ........]....-..
00424490 42 00 01 73 19 E8 D6 FE FF FF E8 0D FF FF FF BA B..s............
004244A0 E8 A3 42 00 A1 68 B6 42 00 E8 4E 1E 00 00 C3 90 ..B..h.B..N.....
004244B0 FC 44 42 00 00 00 00 00 00 00 00 00 00 00 00 00 .DB.............
004244C0 00 00 00 00 00 00 00 00 00 00 00 00 00 00 00 00 ................
004244D0 FC 44 42 00 0C 00 00 00 E0 D9 41 00 54 39 40 00 .DB.......A.T9@.
004244E0 60 39 40 00 64 39 40 00 68 39 40 00 5C 39 40 00 `9@.d9@.h9@.\9@.
004244F0 B8 36 40 00 D4 36 40 00 10 37 40 00 0F 45 4A 63 .6@..6@..7@..EJc
00424500 6C 53 74 72 69 6E 67 45 72 72 6F 72 24 55 52 4C lStringError$URL
00424510 3A 20 68 74 74 70 73 3A 2F 2F 6A 63 6C 2E 73 76 : https://jcl.sv
00424520 6E 2E 73 6F 75 72 63 65 66 6F 72 67 65 2E 6E 65 n.sourceforge.ne
00424530 74 2F 73 76 6E 72 6F 6F 74 2F 6A 63 6C 2F 74 61 t/svnroot/jcl/ta
00424540 67 73 2F 4A 43 4C 2D 32 2E 34 2D 42 75 69 6C 64 gs/JCL-2.4-Build
00424550 34 35 37 31 2F 6A 63 6C 2F 73 6F 75 72 63 65 2F 4571/jcl/source/
00424560 63 6F 6D 6D 6F 6E 2F 4A 63 6C 53 74 72 69 6E 67 common/JclString
00424570 73 2E 70 61 73 20 24 00 24 52 65 76 69 73 69 6F s.pas $.$Revisio
00424580 6E 3A 20 33 37 37 30 20 24 00 00 00 24 44 61 74 n: 3770 $...$Dat
00424590 65 3A 20 32 30 31 32 2D 30 33 2D 31 31 20 31 38 e: 2012-03-11 18
004245A0 3A 32 37 3A 34 34 20 2B 30 31 30 30 20 28 53 75 :27:44 +0100 (Su
004245B0 6E 2C 20 31 31 20 4D 61 72 20 32 30 31 32 29 20 n, 11 Mar 2012) 
004245C0 24 00 00 00 4A 43 4C 5C 73 6F 75 72 63 65 5C 63 $...JCL\source\c
004245D0 6F 6D 6D 6F 6E 00 00 00 00 00 00 00 53 56 57 51 ommon.......SVWQ
004245E0 8B F4 8D 7C 24 02 C6 06 00 BB A8 D1 42 00 66 C7 ...|$.......B.f.
004245F0 07 00 00 57 6A 01 56 6A 01 68 00 04 00 00 E8 D5 ...Wj.Vj.h......
00424600 1E FE FF 66 8B 07 66 89 03 FE 06 83 C3 02 80 3E ...f..f........>
00424610 00 75 DB 5A 5F 5E 5B C3 53 56 51 80 3D 00 A4 42 .u.Z_^[.SVQ.=..B
00424620 00 00 75 6B 33 DB BE A8 CE 42 00 88 5C 24 01 88 ..uk3....B..\$..
00424630 1C 24 6A 01 8D 44 24 05 50 E8 D2 20 FE FF 6A 01 .$j..D$.P.. ..j.
00424640 8D 44 24 04 50 E8 E6 20 FE FF 8B C3 E8 AF 03 00 .D$.P.. ........
00424650 00 84 C0 74 06 8A 44 24 01 EB 12 8B C3 E8 8A 03 ...t..D$........
00424660 00 00 84 C0 74 05 8A 04 24 EB 02 8B C3 8A 54 24 ....t...$.....T$
00424670 01 88 16 8A 14 24 88 96 00 01 00 00 88 86 00 02 .....$..........
00424680 00 00 43 46 84 DB 75 A3 C6 05 00 A4 42 00 01 5A ..CF..u.....B..Z
00424690 5E 5B C3 90                                     ^[..           

;; fn00424694: 00424694
;;   Called from:
;;     00424701 (in fn004246FC)
fn00424694 proc
	push	ebx
	push	esi
	push	edi
	push	ecx
	mov	esi,edx
	mov	edi,eax
	mov	eax,[edi]
	call	00404500
	mov	ebx,eax
	test	ebx,ebx
	jle	004246D9

l004246A9:
	mov	eax,edi
	call	00404750
	mov	eax,[edi]
	call	00404700
	mov	[esp],eax
	mov	eax,ebx
	test	eax,eax
	jle	004246D9

l004246C0:
	mov	edx,[esp]
	movzx	edx,byte ptr [edx]
	add	edx,esi
	mov	dl,[edx+0042CEA8]
	mov	ecx,[esp]
	mov	[ecx],dl
	inc	dword ptr [esp]
	dec	eax
	jnz	004246C0

l004246D9:
	pop	edx
	pop	edi
	pop	esi
	pop	ebx
	ret
004246DE                                           8B C0               ..

;; fn004246E0: 004246E0
;;   Called from:
;;     004247A4 (in fn00424784)
;;     004247B2 (in fn00424784)
fn004246E0 proc
	push	ebx
	push	esi
	mov	ebx,edx
	mov	esi,eax
	mov	eax,ebx
	mov	edx,esi
	call	00404294
	mov	eax,ebx
	call	004246FC
	pop	esi
	pop	ebx
	ret
004246F9                            8D 40 00                      .@.   

;; fn004246FC: 004246FC
;;   Called from:
;;     004246F1 (in fn004246E0)
fn004246FC proc
	mov	edx,00000100
	call	00424694
	ret
00424707                      90                                .       

;; fn00424708: 00424708
;;   Called from:
;;     0042499B (in fn00424988)
fn00424708 proc
	push	ebp
	mov	ebp,esp
	push	00
	push	ebx
	push	esi
	push	edi
	mov	edi,ecx
	mov	ebx,edx
	mov	esi,eax
	xor	eax,eax
	push	ebp
	push	00424775
	push	dword ptr fs:[eax]
	mov	fs:[eax],esp
	test	esi,esi
	jz	0042475D

l00424728:
	test	ebx,ebx
	jz	0042475D

l0042472C:
	lea	eax,[ebp-04]
	push	eax
	mov	eax,ebx
	call	00404500
	mov	ecx,eax
	sub	ecx,edi
	inc	ecx
	mov	edx,edi
	mov	eax,ebx
	call	00404760
	mov	edx,[ebp-04]
	mov	eax,esi
	call	00424784
	test	eax,eax
	jnz	00424757

l00424753:
	xor	ebx,ebx
	jmp	0042475F

l00424757:
	lea	ebx,[eax+edi]
	dec	ebx
	jmp	0042475F

l0042475D:
	xor	ebx,ebx

l0042475F:
	xor	eax,eax
	pop	edx
	pop	ecx
	pop	ecx
	mov	fs:[eax],edx
	push	0042477C
	lea	eax,[ebp-04]
	call	00404240
	ret
00424775                E9 AA F4 FD FF EB F0 8B C3 5F 5E      ........._^
00424780 5B 59 5D C3                                     [Y].           

;; fn00424784: 00424784
;;   Called from:
;;     0042474A (in fn00424708)
fn00424784 proc
	push	ebp
	mov	ebp,esp
	push	00
	push	00
	push	ebx
	push	esi
	mov	esi,edx
	mov	ebx,eax
	xor	eax,eax
	push	ebp
	push	004247DD
	push	dword ptr fs:[eax]
	mov	fs:[eax],esp
	lea	edx,[ebp-04]
	mov	eax,esi
	call	004246E0
	mov	eax,[ebp-04]
	push	eax
	lea	edx,[ebp-08]
	mov	eax,ebx
	call	004246E0
	mov	eax,[ebp-08]
	pop	edx
	call	004047E8
	mov	ebx,eax
	xor	eax,eax
	pop	edx
	pop	ecx
	pop	ecx
	mov	fs:[eax],edx
	push	004247E4
	lea	eax,[ebp-08]
	mov	edx,00000002
	call	00404264
	ret
004247DD                                        E9 42 F4              .B.
004247E0 FD FF EB EB 8B C3 5E 5B 59 59 5D C3             ......^[YY].   

;; fn004247EC: 004247EC
;;   Called from:
;;     004269D2 (in fn00426954)
;;     004269FD (in fn00426954)
fn004247EC proc
	push	ebx
	push	esi
	push	edi
	push	ebp
	add	esp,E8
	mov	[esp+04],ecx
	mov	[esp],edx
	mov	ebp,eax
	lea	edi,[esp+08]
	lea	esi,[esp+0C]
	test	ebp,ebp
	jnz	0042481F

l00424808:
	mov	ecx,[0042A9D4]
	mov	dl,01
	mov	eax,[004244B0]
	call	0040B0C4
	call	00403C5C

l0042481F:
	mov	eax,ebp
	mov	edx,00424984
	call	0040464C
	setz	bl
	test	bl,bl
	jnz	00424970

l00424836:
	cmp	dword ptr [esp],00
	jz	00424970

l00424840:
	cmp	dword ptr [esp+04],00
	jle	00424855

l00424847:
	mov	eax,[esp]
	call	00404500
	cmp	eax,[esp+04]
	jge	0042486C

l00424855:
	mov	ecx,[0042A8EC]
	mov	dl,01
	mov	eax,[004244B0]
	call	0040B0C4
	call	00403C5C

l0042486C:
	mov	eax,[esp]
	mov	edx,[esp+04]
	lea	eax,[eax+edx-01]
	mov	[edi],eax
	mov	eax,ebp
	call	00404700
	mov	[esi],eax
	xor	eax,eax
	mov	[esp+10],eax
	xor	eax,eax
	mov	[esp+14],eax

l0042488E:
	mov	eax,[esi]
	mov	dl,[eax]
	mov	eax,edx
	sub	al,01
	jc	004248A2

l00424898:
	sub	al,29
	jz	004248D6

l0042489C:
	sub	al,15
	jz	004248E0

l004248A0:
	jmp	004248F1

l004248A2:
	mov	eax,[edi]
	cmp	byte ptr [eax],00
	setz	bl
	test	bl,bl
	jnz	00424970

l004248B2:
	cmp	dword ptr [esp+10],00
	jz	00424970

l004248BD:
	cmp	dword ptr [esp+14],00
	jz	00424970

l004248C8:
	mov	eax,[esp+10]
	mov	[edi],eax
	mov	eax,[esp+14]
	mov	[esi],eax
	jmp	00424922

l004248D6:
	inc	dword ptr [esi]
	mov	eax,[esi]
	mov	[esp+14],eax
	jmp	00424922

l004248E0:
	mov	eax,[edi]
	cmp	byte ptr [eax],00
	jz	00424970

l004248EB:
	inc	dword ptr [edi]
	inc	dword ptr [esi]
	jmp	0042488E

l004248F1:
	mov	eax,[edi]
	mov	al,[eax]
	test	al,al
	jz	00424970

l004248F9:
	cmp	dl,al
	jz	00424919

l004248FD:
	cmp	dword ptr [esp+10],00
	jz	00424970

l00424904:
	cmp	dword ptr [esp+14],00
	jz	00424970

l0042490B:
	mov	eax,[esp+10]
	mov	[edi],eax
	mov	eax,[esp+14]
	mov	[esi],eax
	jmp	00424922

l00424919:
	inc	dword ptr [edi]
	inc	dword ptr [esi]
	jmp	0042488E

l00424922:
	mov	eax,[esi]
	mov	al,[eax]
	sub	al,01
	jc	00424934

l0042492A:
	sub	al,29
	jz	00424938

l0042492E:
	sub	al,15
	jz	00424942

l00424932:
	jmp	0042494F

l00424934:
	mov	bl,01
	jmp	00424970

l00424938:
	inc	dword ptr [esi]
	mov	eax,[esi]
	mov	[esp+14],eax
	jmp	00424922

l00424942:
	mov	eax,[edi]
	cmp	byte ptr [eax],00
	jz	00424970

l00424949:
	inc	dword ptr [edi]
	inc	dword ptr [esi]
	jmp	00424922

l0042494F:
	mov	eax,[edi]
	mov	al,[eax]
	test	al,al
	jz	00424970

l00424957:
	mov	edx,[esi]
	cmp	al,[edx]
	jz	00424961

l0042495D:
	inc	dword ptr [edi]
	jmp	0042494F

l00424961:
	inc	dword ptr [edi]
	mov	eax,[edi]
	mov	[esp+10],eax
	inc	dword ptr [esi]
	jmp	0042488E

l00424970:
	mov	eax,ebx
	add	esp,18
	pop	ebp
	pop	edi
	pop	esi
	pop	ebx
	ret
0042497A                               00 00 FF FF FF FF           ......
00424980 01 00 00 00 2A 00 00 00                         ....*...       

;; fn00424988: 00424988
;;   Called from:
;;     00426544 (in fn004264A0)
fn00424988 proc
	push	ebx
	push	esi
	push	edi
	push	ebp
	mov	ebp,ecx
	mov	edi,edx
	mov	esi,eax
	mov	ecx,00000001
	mov	edx,edi
	mov	eax,esi
	call	00424708
	mov	ebx,eax
	test	ebx,ebx
	jg	004249AF

l004249A6:
	mov	eax,ebp
	call	00404240
	jmp	004249C3

l004249AF:
	mov	eax,esi
	call	00404500
	mov	edx,eax
	add	edx,ebx
	mov	ecx,ebp
	mov	eax,edi
	call	004249C8

l004249C3:
	pop	ebp
	pop	edi
	pop	esi
	pop	ebx
	ret

;; fn004249C8: 004249C8
;;   Called from:
;;     004249BE (in fn00424988)
fn004249C8 proc
	push	ebx
	push	esi
	push	edi
	mov	edi,ecx
	mov	esi,edx
	mov	ebx,eax
	push	edi
	mov	eax,ebx
	call	00404500
	mov	ecx,eax
	sub	ecx,esi
	inc	ecx
	mov	edx,esi
	mov	eax,ebx
	call	00404760
	pop	edi
	pop	esi
	pop	ebx
	ret
004249EB                                  90 25 FF 00 00            .%...
004249F0 00 F6 04 45 A8 D1 42 00 02 0F 95 C0 C3 8D 40 00 ...E..B.......@.
00424A00 25 FF 00 00 00 F6 04 45 A8 D1 42 00 01 0F 95 C0 %......E..B.....
00424A10 C3 8D 40 00                                     ..@.           

;; fn00424A14: 00424A14
;;   Called from:
;;     00424B00 (in fn00424AA8)
fn00424A14 proc
	push	ebp
	mov	ebp,esp
	add	esp,F8
	push	ebx
	push	esi
	push	edi
	xor	ebx,ebx
	mov	[ebp-08],ebx
	mov	edi,ecx
	mov	[ebp-01],dl
	mov	ebx,eax
	xor	eax,eax
	push	ebp
	push	00424A98
	push	dword ptr fs:[eax]
	mov	fs:[eax],esp
	lea	eax,[ebp-08]
	mov	dl,[ebp-01]
	call	00404428
	mov	eax,[ebp-08]
	mov	edx,[ebx]
	call	004047E8
	mov	esi,eax
	test	esi,esi
	jz	00424A72

l00424A52:
	push	edi
	mov	ecx,esi
	dec	ecx
	mov	eax,[ebx]
	mov	edx,00000001
	call	00404760
	mov	eax,ebx
	mov	ecx,esi
	mov	edx,00000001
	call	004047A0
	jmp	00424A82

l00424A72:
	mov	eax,edi
	mov	edx,[ebx]
	call	00404294
	mov	eax,ebx
	call	00404240

l00424A82:
	xor	eax,eax
	pop	edx
	pop	ecx
	pop	ecx
	mov	fs:[eax],edx
	push	00424A9F
	lea	eax,[ebp-08]
	call	00404240
	ret
00424A98                         E9 87 F1 FD FF EB F0 5F         ......._
00424AA0 5E 5B 59 59 5D C3 8B C0                         ^[YY]...       

;; fn00424AA8: 00424AA8
;;   Called from:
;;     0042655D (in fn004264A0)
fn00424AA8 proc
	push	ebp
	mov	ebp,esp
	add	esp,F4
	push	ebx
	xor	ebx,ebx
	mov	[ebp-0C],ebx
	mov	[ebp-08],ecx
	mov	ebx,edx
	mov	[ebp-04],eax
	mov	eax,[ebp-04]
	call	004046F0
	xor	eax,eax
	push	ebp
	push	00424B51
	push	dword ptr fs:[eax]
	mov	fs:[eax],esp
	cmp	dword ptr [ebp-08],00
	jz	00424B33

l00424AD8:
	mov	eax,[ebp-08]
	call	00414AAC
	xor	eax,eax
	push	ebp
	push	00424B2C
	push	dword ptr fs:[eax]
	mov	fs:[eax],esp
	mov	eax,[ebp-08]
	mov	edx,[eax]
	call	dword ptr [edx+44]
	jmp	00424B10

l00424AF8:
	lea	ecx,[ebp-0C]
	lea	eax,[ebp-04]
	mov	edx,ebx
	call	00424A14
	mov	edx,[ebp-0C]
	mov	eax,[ebp-08]
	mov	ecx,[eax]
	call	dword ptr [ecx+38]

l00424B10:
	cmp	dword ptr [ebp-04],00
	jnz	00424AF8

l00424B16:
	xor	eax,eax
	pop	edx
	pop	ecx
	pop	ecx
	mov	fs:[eax],edx
	push	00424B33
	mov	eax,[ebp-08]
	call	00414B68
	ret
00424B2C                                     E9 F3 F0 FD             ....
00424B30 FF EB F0                                        ...            

l00424B33:
	xor	eax,eax
	pop	edx
	pop	ecx
	pop	ecx
	mov	fs:[eax],edx
	push	00424B58
	lea	eax,[ebp-0C]
	call	00404240
	lea	eax,[ebp-04]
	call	00404240
	ret
00424B51    E9 CE F0 FD FF EB E8 5B 8B E5 5D C3 8D 40 00  .......[..]..@.
00424B60 FF FF FF FF 05 00 00 00 66 61 6C 73 65 00 00 00 ........false...
00424B70 FF FF FF FF 04 00 00 00 74 72 75 65 00 00 00 00 ........true....
00424B80 55 8B EC 33 C0 55 68 C6 4B 42 00 64 FF 30 64 89 U..3.Uh.KB.d.0d.
00424B90 20 FF 05 A8 D3 42 00 75 1F A1 68 B6 42 00 E8 75  ....B.u..h.B..u
00424BA0 17 00 00 B8 1C A4 42 00 B9 02 00 00 00 8B 15 44 ......B........D
00424BB0 10 40 00 E8 F4 00 FE FF 33 C0 5A 59 59 64 89 10 .@......3.ZYYd..
00424BC0 68 CD 4B 42 00 C3 E9 59 F0 FD FF EB F8 5D C3 90 h.KB...Y.....]..
00424BD0 83 2D A8 D3 42 00 01 73 19 E8 FE F9 FF FF E8 35 .-..B..s.......5
00424BE0 FA FF FF BA 04 A4 42 00 A1 68 B6 42 00 E8 0A 17 ......B..h.B....
00424BF0 00 00 C3 90 F8 4B 42 00 0E 08 54 52 6F 6F 74 4B .....KB...TRootK
00424C00 65 79 0C 00 00 00 02 00 00 00 44 10 40 00 04 00 ey........D.@...
00424C10 00 00 50 10 40 00 08 00 00 00 8B C0 FF FF FF FF ..P.@...........
00424C20 11 00 00 00 48 4B 45 59 5F 43 4C 41 53 53 45 53 ....HKEY_CLASSES
00424C30 5F 52 4F 4F 54 00 00 00 22 00 00 00 48 00 4B 00 _ROOT..."...H.K.
00424C40 45 00 59 00 5F 00 43 00 4C 00 41 00 53 00 53 00 E.Y._.C.L.A.S.S.
00424C50 45 00 53 00 5F 00 52 00 4F 00 4F 00 54 00 00 00 E.S._.R.O.O.T...
00424C60 FF FF FF FF 11 00 00 00 48 4B 45 59 5F 43 55 52 ........HKEY_CUR
00424C70 52 45 4E 54 5F 55 53 45 52 00 00 00 22 00 00 00 RENT_USER..."...
00424C80 48 00 4B 00 45 00 59 00 5F 00 43 00 55 00 52 00 H.K.E.Y._.C.U.R.
00424C90 52 00 45 00 4E 00 54 00 5F 00 55 00 53 00 45 00 R.E.N.T._.U.S.E.
00424CA0 52 00 00 00 FF FF FF FF 12 00 00 00 48 4B 45 59 R...........HKEY
00424CB0 5F 4C 4F 43 41 4C 5F 4D 41 43 48 49 4E 45 00 00 _LOCAL_MACHINE..
00424CC0 24 00 00 00 48 00 4B 00 45 00 59 00 5F 00 4C 00 $...H.K.E.Y._.L.
00424CD0 4F 00 43 00 41 00 4C 00 5F 00 4D 00 41 00 43 00 O.C.A.L._.M.A.C.
00424CE0 48 00 49 00 4E 00 45 00 00 00 00 00 FF FF FF FF H.I.N.E.........
00424CF0 0A 00 00 00 48 4B 45 59 5F 55 53 45 52 53 00 00 ....HKEY_USERS..
00424D00 14 00 00 00 48 00 4B 00 45 00 59 00 5F 00 55 00 ....H.K.E.Y._.U.
00424D10 53 00 45 00 52 00 53 00 00 00 00 00 FF FF FF FF S.E.R.S.........
00424D20 15 00 00 00 48 4B 45 59 5F 50 45 52 46 4F 52 4D ....HKEY_PERFORM
00424D30 41 4E 43 45 5F 44 41 54 41 00 00 00 2A 00 00 00 ANCE_DATA...*...
00424D40 48 00 4B 00 45 00 59 00 5F 00 50 00 45 00 52 00 H.K.E.Y._.P.E.R.
00424D50 46 00 4F 00 52 00 4D 00 41 00 4E 00 43 00 45 00 F.O.R.M.A.N.C.E.
00424D60 5F 00 44 00 41 00 54 00 41 00 00 00 FF FF FF FF _.D.A.T.A.......
00424D70 13 00 00 00 48 4B 45 59 5F 43 55 52 52 45 4E 54 ....HKEY_CURRENT
00424D80 5F 43 4F 4E 46 49 47 00 26 00 00 00 48 00 4B 00 _CONFIG.&...H.K.
00424D90 45 00 59 00 5F 00 43 00 55 00 52 00 52 00 45 00 E.Y._.C.U.R.R.E.
00424DA0 4E 00 54 00 5F 00 43 00 4F 00 4E 00 46 00 49 00 N.T._.C.O.N.F.I.
00424DB0 47 00 00 00 FF FF FF FF 0D 00 00 00 48 4B 45 59 G...........HKEY
00424DC0 5F 44 59 4E 5F 44 41 54 41 00 00 00 1A 00 00 00 _DYN_DATA.......
00424DD0 48 00 4B 00 45 00 59 00 5F 00 44 00 59 00 4E 00 H.K.E.Y._.D.Y.N.
00424DE0 5F 00 44 00 41 00 54 00 41 00 00 00 FF FF FF FF _.D.A.T.A.......
00424DF0 04 00 00 00 48 4B 43 52 00 00 00 00 08 00 00 00 ....HKCR........
00424E00 48 00 4B 00 43 00 52 00 00 00 00 00 FF FF FF FF H.K.C.R.........
00424E10 04 00 00 00 48 4B 43 55 00 00 00 00 08 00 00 00 ....HKCU........
00424E20 48 00 4B 00 43 00 55 00 00 00 00 00 FF FF FF FF H.K.C.U.........
00424E30 04 00 00 00 48 4B 4C 4D 00 00 00 00 08 00 00 00 ....HKLM........
00424E40 48 00 4B 00 4C 00 4D 00 00 00 00 00 FF FF FF FF H.K.L.M.........
00424E50 04 00 00 00 48 4B 55 53 00 00 00 00 08 00 00 00 ....HKUS........
00424E60 48 00 4B 00 55 00 53 00 00 00 00 00 FF FF FF FF H.K.U.S.........
00424E70 04 00 00 00 48 4B 50 44 00 00 00 00 08 00 00 00 ....HKPD........
00424E80 48 00 4B 00 50 00 44 00 00 00 00 00 FF FF FF FF H.K.P.D.........
00424E90 04 00 00 00 48 4B 43 43 00 00 00 00 08 00 00 00 ....HKCC........
00424EA0 48 00 4B 00 43 00 43 00 00 00 00 00 FF FF FF FF H.K.C.C.........
00424EB0 04 00 00 00 48 4B 44 44 00 00 00 00 08 00 00 00 ....HKDD........
00424EC0 48 00 4B 00 44 00 44 00 00 00 00 00 24 55 52 4C H.K.D.D.....$URL
00424ED0 3A 20 68 74 74 70 73 3A 2F 2F 6A 63 6C 2E 73 76 : https://jcl.sv
00424EE0 6E 2E 73 6F 75 72 63 65 66 6F 72 67 65 2E 6E 65 n.sourceforge.ne
00424EF0 74 2F 73 76 6E 72 6F 6F 74 2F 6A 63 6C 2F 74 61 t/svnroot/jcl/ta
00424F00 67 73 2F 4A 43 4C 2D 32 2E 34 2D 42 75 69 6C 64 gs/JCL-2.4-Build
00424F10 34 35 37 31 2F 6A 63 6C 2F 73 6F 75 72 63 65 2F 4571/jcl/source/
00424F20 77 69 6E 64 6F 77 73 2F 4A 63 6C 52 65 67 69 73 windows/JclRegis
00424F30 74 72 79 2E 70 61 73 20 24 00 00 00 24 52 65 76 try.pas $...$Rev
00424F40 69 73 69 6F 6E 3A 20 33 38 36 31 20 24 00 00 00 ision: 3861 $...
00424F50 24 44 61 74 65 3A 20 32 30 31 32 2D 30 39 2D 30 $Date: 2012-09-0
00424F60 34 20 31 36 3A 30 38 3A 30 34 20 2B 30 32 30 30 4 16:08:04 +0200
00424F70 20 28 54 75 65 2C 20 30 34 20 53 65 70 20 32 30  (Tue, 04 Sep 20
00424F80 31 32 29 20 24 00 00 00 4A 43 4C 5C 73 6F 75 72 12) $...JCL\sour
00424F90 63 65 5C 77 69 6E 64 6F 77 73 00 00 00 00 00 00 ce\windows......
00424FA0 0E 00 00 00 C8 A4 42 00 C0 4E 42 00 BC A4 42 00 ......B..NB...B.
00424FB0 A0 4E 42 00 B0 A4 42 00 80 4E 42 00 A4 A4 42 00 .NB...B..NB...B.
00424FC0 60 4E 42 00 98 A4 42 00 40 4E 42 00 8C A4 42 00 `NB...B.@NB...B.
00424FD0 20 4E 42 00 80 A4 42 00 00 4E 42 00 74 A4 42 00  NB...B..NB.t.B.
00424FE0 D0 4D 42 00 68 A4 42 00 8C 4D 42 00 5C A4 42 00 .MB.h.B..MB.\.B.
00424FF0 40 4D 42 00 50 A4 42 00 04 4D 42 00 44 A4 42 00 @MB.P.B..MB.D.B.
00425000 C4 4C 42 00 38 A4 42 00 80 4C 42 00 2C A4 42 00 .LB.8.B..LB.,.B.
00425010 3C 4C 42 00 55 8B EC 33 C0 55 68 5A 50 42 00 64 <LB.U..3.UhZPB.d
00425020 FF 30 64 89 20 FF 05 AC D3 42 00 75 1F A1 68 B6 .0d. ....B.u..h.
00425030 42 00 E8 E1 12 00 00 B8 24 A4 42 00 B9 0E 00 00 B.......$.B.....
00425040 00 8B 15 F4 4B 42 00 E8 60 FC FD FF 33 C0 5A 59 ....KB..`...3.ZY
00425050 59 64 89 10 68 61 50 42 00 C3 E9 C5 EB FD FF EB Yd..haPB........
00425060 F8 5D C3 90 83 2D AC D3 42 00 01 73 19 B8 A0 4F .]...-..B..s...O
00425070 42 00 E8 9D EF FD FF BA CC A4 42 00 A1 68 B6 42 B.........B..h.B
00425080 00 E8 76 12 00 00 C3 90 D4 50 42 00 00 00 00 00 ..v......PB.....
00425090 00 00 00 00 D4 50 42 00 00 00 00 00 00 00 00 00 .....PB.........
004250A0 00 00 00 00 00 00 00 00 E6 50 42 00 10 00 00 00 .........PB.....
004250B0 60 10 40 00 54 39 40 00 60 39 40 00 64 39 40 00 `.@.T9@.`9@.d9@.
004250C0 68 39 40 00 5C 39 40 00 B8 36 40 00 D4 36 40 00 h9@.\9@..6@..6@.
004250D0 18 53 42 00 0E 00 00 00 00 00 01 00 00 00 44 10 .SB...........D.
004250E0 40 00 0C 00 00 00 14 54 4A 63 6C 44 69 73 70 61 @......TJclDispa
004250F0 74 63 68 65 72 4F 62 6A 65 63 74 90 48 51 42 00 tcherObject.HQB.
00425100 00 00 00 00 00 00 00 00 00 00 00 00 00 00 00 00 ................
00425110 00 00 00 00 00 00 00 00 00 00 00 00 4C 51 42 00 ............LQB.
00425120 1C 00 00 00 60 10 40 00 54 39 40 00 60 39 40 00 ....`.@.T9@.`9@.
00425130 64 39 40 00 68 39 40 00 5C 39 40 00 B8 36 40 00 d9@.h9@.\9@..6@.
00425140 D4 36 40 00 A0 53 42 00 60 53 42 00 13 54 4A 63 .6@..SB.`SB..TJc
00425150 6C 43 72 69 74 69 63 61 6C 53 65 63 74 69 6F 6E lCriticalSection
00425160 AC 51 42 00 00 00 00 00 00 00 00 00 00 00 00 00 .QB.............
00425170 00 00 00 00 00 00 00 00 00 00 00 00 00 00 00 00 ................
00425180 AC 51 42 00 10 00 00 00 88 50 42 00 54 39 40 00 .QB......PB.T9@.
00425190 60 39 40 00 64 39 40 00 68 39 40 00 5C 39 40 00 `9@.d9@.h9@.\9@.
004251A0 B8 36 40 00 D4 36 40 00 18 53 42 00 09 54 4A 63 .6@..6@..SB..TJc
004251B0 6C 4D 75 74 65 78 8B C0 04 52 42 00 00 00 00 00 lMutex...RB.....
004251C0 00 00 00 00 00 00 00 00 00 00 00 00 00 00 00 00 ................
004251D0 00 00 00 00 00 00 00 00 04 52 42 00 14 00 00 00 .........RB.....
004251E0 60 DC 41 00 54 39 40 00 60 39 40 00 64 39 40 00 `.A.T9@.`9@.d9@.
004251F0 68 39 40 00 5C 39 40 00 B8 36 40 00 D4 36 40 00 h9@.\9@..6@..6@.
00425200 10 37 40 00 0E 45 4A 63 6C 4D 75 74 65 78 45 72 .7@..EJclMutexEr
00425210 72 6F 72 90 24 55 52 4C 3A 20 68 74 74 70 73 3A ror.$URL: https:
00425220 2F 2F 6A 63 6C 2E 73 76 6E 2E 73 6F 75 72 63 65 //jcl.svn.source
00425230 66 6F 72 67 65 2E 6E 65 74 2F 73 76 6E 72 6F 6F forge.net/svnroo
00425240 74 2F 6A 63 6C 2F 74 61 67 73 2F 4A 43 4C 2D 32 t/jcl/tags/JCL-2
00425250 2E 34 2D 42 75 69 6C 64 34 35 37 31 2F 6A 63 6C .4-Build4571/jcl
00425260 2F 73 6F 75 72 63 65 2F 63 6F 6D 6D 6F 6E 2F 4A /source/common/J
00425270 63 6C 53 79 6E 63 68 2E 70 61 73 20 24 00 00 00 clSynch.pas $...
00425280 24 52 65 76 69 73 69 6F 6E 3A 20 33 37 35 39 20 $Revision: 3759 
00425290 24 00 00 00 24 44 61 74 65 3A 20 32 30 31 32 2D $...$Date: 2012-
004252A0 30 33 2D 30 34 20 31 39 3A 33 39 3A 34 37 20 2B 03-04 19:39:47 +
004252B0 30 31 30 30 20 28 53 75 6E 2C 20 30 34 20 4D 61 0100 (Sun, 04 Ma
004252C0 72 20 32 30 31 32 29 20 24 00 00 00 4A 43 4C 5C r 2012) $...JCL\
004252D0 73 6F 75 72 63 65 5C 63 6F 6D 6D 6F 6E 00 00 00 source\common...
004252E0 00 00 00 00 3D 80 00 00 00 7F 0C 74 18 83 E8 FF ....=......t....
004252F0 74 1F 48 74 13 EB 1D 2D C0 00 00 00 74 10 83 E8 t.Ht...-....t...
00425300 42 74 08 EB 0F 33 C0 C3 B0 03 C3 B0 04 C3 B0 02 Bt...3..........
00425310 C3 B0 01 C3 B0 01 C3 90 53 56 E8 D9 E6 FD FF 8B ........SV......
00425320 DA 8B F0 8B 46 08 50 E8 AC 10 FE FF 8B D3 80 E2 ....F.P.........
00425330 FC 8B C6 E8 D8 E3 FD FF 84 DB 7E 07 8B C6 E8 9D ..........~.....
00425340 E6 FD FF 5E 5B C3 8B C0 53 56 8B F2 8B D8 56 8B ...^[...SV....V.
00425350 43 08 50 E8 48 12 FE FF E8 87 FF FF FF 5E 5B C3 C.P.H........^[.
00425360 53 56 84 D2 74 08 83 C4 F0 E8 22 E6 FD FF 8B DA SV..t.....".....
00425370 8B F0 33 D2 8B C6 E8 75 E3 FD FF 8D 46 04 50 E8 ..3....u....F.P.
00425380 AC 11 FE FF 8B C6 84 DB 74 0F E8 59 E6 FD FF 64 ........t..Y...d
00425390 8F 05 00 00 00 00 83 C4 0C 8B C6 5E 5B C3 8B C0 ...........^[...
004253A0 53 56 E8 51 E6 FD FF 8B DA 8B F0 8D 46 04 50 E8 SV.Q........F.P.
004253B0 5C 10 FE FF 8B D3 80 E2 FC 8B C6 E8 50 E3 FD FF \...........P...
004253C0 84 DB 7E 07 8B C6 E8 15 E6 FD FF 5E 5B C3 8B C0 ..~........^[...
004253D0 55 8B EC 83 C4 F8 53 56 57 84 D2 74 08 83 C4 F0 U.....SVW..t....
004253E0 E8 AB E5 FD FF 89 4D F8 88 55 FF 8B D8 8B 75 08 ......M..U....u.
004253F0 33 D2 8B C3 E8 F7 E2 FD FF 8D 43 0C 8B D6 E8 91 3.........C.....
00425400 EE FD FF 8B C6 E8 F6 F2 FD FF 50 33 C0 8A 45 0C ..........P3..E.
00425410 50 8B 45 F8 50 E8 6E 8A FF FF 8B F8 89 7B 08 85 P.E.P.n......{..
00425420 FF 75 17 8B 0D 18 A9 42 00 B2 01 A1 B8 51 42 00 .u.....B.....QB.
00425430 E8 67 89 FF FF E8 22 E8 FD FF E8 61 10 FE FF 3D .g...."....a...=
00425440 B7 00 00 00 0F 94 C0 88 43 04 8B C3 80 7D FF 00 ........C....}..
00425450 74 0F E8 91 E5 FD FF 64 8F 05 00 00 00 00 83 C4 t......d........
00425460 0C 8B C3 5F 5E 5B 59 59 5D C2 08 00 53 8B D8 8B ..._^[YY]...S...
00425470 43 08 50 E8 F0 10 FE FF 83 F8 01 1B C0 40 5B C3 C.P..........@[.
00425480 55 8B EC 33 C0 55 68 B1 54 42 00 64 FF 30 64 89 U..3.Uh.TB.d.0d.
00425490 20 FF 05 B0 D3 42 00 75 0A A1 68 B6 42 00 E8 75  ....B.u..h.B..u
004254A0 0E 00 00 33 C0 5A 59 59 64 89 10 68 B8 54 42 00 ...3.ZYYd..h.TB.
004254B0 C3 E9 6E E7 FD FF EB F8 5D C3 8B C0 83 2D B0 D3 ..n.....]....-..
004254C0 42 00 01 73 0F BA E4 A4 42 00 A1 68 B6 42 00 E8 B..s....B..h.B..
004254D0 28 0E 00 00 C3 8D 40 00 24 55 42 00 00 00 00 00 (.....@.$UB.....
004254E0 00 00 00 00 00 00 00 00 00 00 00 00 00 00 00 00 ................
004254F0 00 00 00 00 00 00 00 00 24 55 42 00 0C 00 00 00 ........$UB.....
00425500 E0 D9 41 00 54 39 40 00 60 39 40 00 64 39 40 00 ..A.T9@.`9@.d9@.
00425510 68 39 40 00 5C 39 40 00 B8 36 40 00 D4 36 40 00 h9@.\9@..6@..6@.
00425520 10 37 40 00 0F 45 53 68 61 72 65 64 4D 65 6D 45 .7@..ESharedMemE
00425530 72 72 6F 72 CC 83 44 24 04 F0 E9 F9 06 FE FF 83 rror..D$........
00425540 44 24 04 F0 E9 CB 05 00 00 83 44 24 04 F0 E9 D5 D$........D$....
00425550 05 00 00 CC 35 55 42 00 3F 55 42 00 49 55 42 00 ....5UB.?UB.IUB.
00425560 01 00 00 00 00 00 00 00 00 00 00 00 C0 00 00 00 ................
00425570 00 00 00 46 54 55 42 00 10 00 00 00 00 00 00 00 ...FTUB.........
00425580 CC 55 42 00 60 55 42 00 00 00 00 00 00 00 00 00 .UB.`UB.........
00425590 00 00 00 00 00 00 00 00 00 00 00 00 00 00 00 00 ................
004255A0 CC 55 42 00 14 00 00 00 54 11 40 00 54 39 40 00 .UB.....T.@.T9@.
004255B0 0C 5C 40 00 18 5C 40 00 68 39 40 00 5C 39 40 00 .\@..\@.h9@.\9@.
004255C0 28 5C 40 00 D4 36 40 00 E4 5A 42 00 17 54 4A 63 (\@..6@..ZB..TJc
004255D0 6C 49 6E 74 66 43 72 69 74 69 63 61 6C 53 65 63 lIntfCriticalSec
004255E0 74 69 6F 6E 24 55 52 4C 3A 20 68 74 74 70 73 3A tion$URL: https:
004255F0 2F 2F 6A 63 6C 2E 73 76 6E 2E 73 6F 75 72 63 65 //jcl.svn.source
00425600 66 6F 72 67 65 2E 6E 65 74 2F 73 76 6E 72 6F 6F forge.net/svnroo
00425610 74 2F 6A 63 6C 2F 74 61 67 73 2F 4A 43 4C 2D 32 t/jcl/tags/JCL-2
00425620 2E 34 2D 42 75 69 6C 64 34 35 37 31 2F 6A 63 6C .4-Build4571/jcl
00425630 2F 73 6F 75 72 63 65 2F 63 6F 6D 6D 6F 6E 2F 4A /source/common/J
00425640 63 6C 53 79 73 55 74 69 6C 73 2E 70 61 73 20 24 clSysUtils.pas $
00425650 00 00 00 00 24 52 65 76 69 73 69 6F 6E 3A 20 33 ....$Revision: 3
00425660 38 36 30 20 24 00 00 00 24 44 61 74 65 3A 20 32 860 $...$Date: 2
00425670 30 31 32 2D 30 39 2D 30 33 20 31 36 3A 35 32 3A 012-09-03 16:52:
00425680 30 36 20 2B 30 32 30 30 20 28 4D 6F 6E 2C 20 30 06 +0200 (Mon, 0
00425690 33 20 53 65 70 20 32 30 31 32 29 20 24 00 00 00 3 Sep 2012) $...
004256A0 4A 43 4C 5C 73 6F 75 72 63 65 5C 63 6F 6D 6D 6F JCL\source\commo
004256B0 6E 00 00 00 00 00 00 00 85 D2 7E 0A C6 00 00 33 n.........~....3
004256C0 C9 E8 5A D9 FD FF C3 90 CC 56 42 00 0E 12 54 4D ..Z......VB...TM
004256D0 4D 46 48 61 6E 64 6C 65 4C 69 73 74 49 74 65 6D MFHandleListItem
004256E0 14 00 00 00 01 00 00 00 44 10 40 00 0C 00 00 00 ........D.@.....
004256F0 53 56 51 8B F0 83 3D 1C A5 42 00 00 75 34 80 3D SVQ...=..B..u4.=
00425700 18 A5 42 00 00 75 2B B2 01 A1 80 55 42 00 E8 8D ..B..u+....UB...
00425710 03 00 00 8B D8 6A 00 53 68 1C A5 42 00 E8 3E 0D .....j.Sh..B..>.
00425720 FE FF 89 04 24 83 3C 24 00 74 07 8B C3 E8 EE DF ....$.<$.t......
00425730 FD FF 8B C6 8B 15 1C A5 42 00 85 D2 74 03 83 EA ........B...t...
00425740 F0 E8 9A 04 FE FF 5A 5E 5B C3 8B C0 55 8B EC 83 ......Z^[...U...
00425750 C4 E0 53 56 57 33 DB 89 5D E8 89 4D FC 8B DA 8B ..SVW3..]..M....
00425760 F8 8B 75 08 33 C0 55 68 58 59 42 00 64 FF 30 64 ..u.3.UhXYB.d.0d
00425770 89 20 33 C0 89 45 F8 33 C0 89 07 33 D2 B8 05 00 . 3..E.3...3....
00425780 00 00 E8 01 61 FE FF 84 C0 75 38 85 DB 74 10 8B ....a....u8..t..
00425790 D3 B8 74 59 42 00 E8 4D F0 FD FF 85 C0 7E 24 89 ..tYB..M.....~$.
004257A0 5D E0 C6 45 E4 0B 8D 45 E0 50 6A 00 8B 0D E8 A5 ]..E...E.Pj.....
004257B0 42 00 B2 01 A1 D8 54 42 00 E8 42 59 FE FF E8 99 B.....TB..BY....
004257C0 E4 FD FF 8D 45 E8 E8 25 FF FF FF A1 14 A5 42 00 ....E..%......B.
004257D0 89 45 F0 83 7D F0 00 74 39 8B 45 F0 8B 40 0C 8B .E..}..t9.E..@..
004257E0 D3 E8 4A 20 FE FF 85 C0 75 1A 8B 45 F0 FF 40 10 ..J ....u..E..@.
004257F0 8B 45 F0 8B 40 04 89 07 C7 45 F8 B7 00 00 00 E9 .E..@....E......
00425800 3E 01 00 00 8B 45 F0 8B 00 89 45 F0 83 7D F0 00 >....E....E..}..
00425810 75 C7 8B C3 E8 E7 EE FD FF 50 6A 00 56 E8 36 0D u........Pj.V.6.
00425820 FE FF 89 45 F4 83 7D F4 00 75 67 83 7D FC 00 75 ...E..}..ug.}..u
00425830 24 89 5D E0 C6 45 E4 0B 8D 45 E0 50 6A 00 8B 0D $.]..E...E.Pj...
00425840 9C A6 42 00 B2 01 A1 D8 54 42 00 E8 B0 58 FE FF ..B.....TB...X..
00425850 E8 07 E4 FD FF C7 45 EC 04 00 00 00 A1 D8 A9 42 ......E........B
00425860 00 83 38 01 75 0C 83 FE 01 75 07 C7 45 EC 08 00 ..8.u....u..E...
00425870 00 00 8B C3 E8 87 EE FD FF 50 8B 45 FC 50 6A 00 .........P.E.Pj.
00425880 8B 45 EC 50 6A 00 6A FF E8 7B 0B FE FF 89 45 F4 .E.Pj.j..{....E.
00425890 EB 07 C7 45 F8 B7 00 00 00 E8 02 0C FE FF 3D B7 ...E..........=.
004258A0 00 00 00 75 09 C7 45 F8 B7 00 00 00 EB 0B 83 7D ...u..E........}
004258B0 F4 00 75 05 E8 DB 6A FE FF 8B 45 FC 50 6A 00 6A ..u...j...E.Pj.j
004258C0 00 56 8B 45 F4 50 E8 75 0C FE FF 89 07 83 3F 00 .V.E.P.u......?.
004258D0 75 35 33 C0 55 68 EF 58 42 00 64 FF 30 64 89 20 u53.Uh.XB.d.0d. 
004258E0 E8 AF 6A FE FF 33 C0 5A 59 59 64 89 10 EB 18 E9 ..j..3.ZYYd.....
004258F0 04 E2 FD FF 8B 45 F4 50 E8 DB 0A FE FF E8 82 E3 .....E.P........
00425900 FD FF E8 D1 E3 FD FF 8B 15 C8 56 42 00 B8 14 00 ..........VB....
00425910 00 00 E8 B5 F6 FD FF 8B F0 8D 46 0C 8B D3 E8 71 ..........F....q
00425920 E9 FD FF 8B 45 F4 89 46 08 8B 07 89 46 04 C7 46 ....E..F....F..F
00425930 10 01 00 00 00 A1 14 A5 42 00 89 06 89 35 14 A5 ........B....5..
00425940 42 00 33 C0 5A 59 59 64 89 10 68 5F 59 42 00 8D B.3.ZYYd..h_YB..
00425950 45 E8 E8 71 02 FE FF C3 E9 C7 E2 FD FF EB F0 8B E..q............
00425960 45 F8 5F 5E 5B 8B E5 5D C2 04 00 00 FF FF FF FF E._^[..]........
00425970 01 00 00 00 5C 00 00 00 55 8B EC 83 C4 F0 53 56 ....\...U.....SV
00425980 33 D2 89 55 F0 8B D8 8D 75 F4 33 C0 55 68 51 5A 3..U....u.3.UhQZ
00425990 42 00 64 FF 30 64 89 20 83 3B 00 0F 84 96 00 00 B.d.0d. .;......
004259A0 00 C6 45 FF 00 8D 45 F0 E8 43 FD FF FF A1 14 A5 ..E...E..C......
004259B0 42 00 89 06 33 C0 89 45 F8 83 3E 00 74 7D 8B 06 B...3..E..>.t}..
004259C0 8B 40 04 3B 03 75 5E 8B 06 83 78 10 01 7E 0F 8B .@.;.u^...x..~..
004259D0 06 FF 48 10 33 C0 89 03 C6 45 FF 01 EB 5D 8B 06 ..H.3....E...]..
004259E0 8B 40 04 50 E8 A7 0B FE FF 8B 06 8B 40 08 50 E8 .@.P........@.P.
004259F0 E4 09 FE FF 83 7D F8 00 75 0B 8B 06 8B 00 A3 14 .....}..u.......
00425A00 A5 42 00 EB 09 8B 06 8B 00 8B 55 F8 89 02 8B 15 .B........U.....
00425A10 C8 56 42 00 8B 06 E8 C5 F5 FD FF 33 C0 89 03 C6 .VB........3....
00425A20 45 FF 01 EB 16 8B 06 89 45 F8 8B 06 8B 00 89 06 E.......E.......
00425A30 83 3E 00 75 89 EB 04 C6 45 FF 01 33 C0 5A 59 59 .>.u....E..3.ZYY
00425A40 64 89 10 68 58 5A 42 00 8D 45 F0 E8 78 01 FE FF d..hXZB..E..x...
00425A50 C3 E9 CE E1 FD FF EB F0 8A 45 FF 5E 5B 8B E5 5D .........E.^[..]
00425A60 C3 8D 40 00 E8 0F FF FF FF C3 8B C0 FF FF FF FF ..@.............
00425A70 03 00 00 00 69 6E 66 00 FF FF FF FF 04 00 00 00 ....inf.........
00425A80 2D 69 6E 66 00 00 00 00 53 8B D8 83 3B 00 74 08 -inf....S...;.t.
00425A90 8B 03 50 E8 C0 09 FE FF 33 C0 89 03 5B C3 8B C0 ..P.....3...[...
00425AA0 53 56 84 D2 74 08 83 C4 F0 E8 E2 DE FD FF 8B DA SV..t...........
00425AB0 8B F0 33 D2 8B C6 E8 35 DC FD FF B2 01 A1 14 D4 ..3....5........
00425AC0 41 00 E8 BD 79 FF FF 89 46 0C 8B C6 84 DB 74 0F A...y...F.....t.
00425AD0 E8 13 DF FD FF 64 8F 05 00 00 00 00 83 C4 0C 8B .....d..........
00425AE0 C6 5E 5B C3 53 56 E8 0D DF FD FF 8B DA 8B F0 8B .^[.SV..........
00425AF0 46 0C E8 29 DC FD FF 8B D3 80 E2 FC 8B C6 E8 0D F..)............
00425B00 DC FD FF 84 DB 7E 07 8B C6 E8 D2 DE FD FF 5E 5B .....~........^[
00425B10 C3 8D 40 00 55 8B EC 8B 45 08 8B 40 0C 8B 10 FF ..@.U...E..@....
00425B20 12 83 C8 FF 5D C2 04 00 55 8B EC 8B 45 08 8B 40 ....]...U...E..@
00425B30 0C 8B 10 FF 52 04 83 C8 FF 5D C2 04 00 8D 40 00 ....R....]....@.
00425B40 55 8B EC 33 C0 55 68 AA 5B 42 00 64 FF 30 64 89 U..3.Uh.[B.d.0d.
00425B50 20 FF 05 B8 D3 42 00 75 43 A1 68 B6 42 00 E8 B5  ....B.uC.h.B...
00425B60 07 00 00 C6 05 18 A5 42 00 01 B8 1C A5 42 00 E8 .......B.....B..
00425B70 CC 6D FE FF 83 3D B4 D3 42 00 00 74 0A B8 B4 D3 .m...=..B..t....
00425B80 42 00 E8 B9 6D FE FF B8 20 A5 42 00 B9 02 00 00 B...m... .B.....
00425B90 00 8B 15 44 10 40 00 E8 10 F1 FD FF 33 C0 5A 59 ...D.@......3.ZY
00425BA0 59 64 89 10 68 B1 5B 42 00 C3 E9 75 E0 FD FF EB Yd..h.[B...u....
00425BB0 F8 5D C3 90 83 2D B8 D3 42 00 01 73 16 33 C0 A3 .]...-..B..s.3..
00425BC0 B4 D3 42 00 BA FC A4 42 00 A1 68 B6 42 00 E8 29 ..B....B..h.B..)
00425BD0 07 00 00 C3 20 5C 42 00 00 00 00 00 00 00 00 00 .... \B.........
00425BE0 00 00 00 00 00 00 00 00 00 00 00 00 00 00 00 00 ................
00425BF0 00 00 00 00 20 5C 42 00 08 00 00 00 60 10 40 00 .... \B.....`.@.
00425C00 54 39 40 00 60 39 40 00 64 39 40 00 68 39 40 00 T9@.`9@.d9@.h9@.
00425C10 5C 39 40 00 B8 36 40 00 D4 36 40 00 10 37 40 00 \9@..6@..6@..7@.
00425C20 0C 54 55 6E 69 74 56 65 72 73 69 6F 6E 8D 40 00 .TUnitVersion.@.
00425C30 7C 5C 42 00 00 00 00 00 00 00 00 00 00 00 00 00 |\B.............
00425C40 00 00 00 00 00 00 00 00 00 00 00 00 00 00 00 00 ................
00425C50 7C 5C 42 00 0C 00 00 00 60 10 40 00 54 39 40 00 |\B.....`.@.T9@.
00425C60 60 39 40 00 64 39 40 00 68 39 40 00 5C 39 40 00 `9@.d9@.h9@.\9@.
00425C70 B8 36 40 00 D4 36 40 00 58 5E 42 00 15 54 55 6E .6@..6@.X^B..TUn
00425C80 69 74 56 65 72 73 69 6F 6E 69 6E 67 4D 6F 64 75 itVersioningModu
00425C90 6C 65 8B C0 E0 5C 42 00 00 00 00 00 00 00 00 00 le...\B.........
00425CA0 00 00 00 00 00 00 00 00 00 00 00 00 00 00 00 00 ................
00425CB0 00 00 00 00 E8 5C 42 00 0C 00 00 00 60 10 40 00 .....\B.....`.@.
00425CC0 54 39 40 00 60 39 40 00 64 39 40 00 68 39 40 00 T9@.`9@.d9@.h9@.
00425CD0 5C 39 40 00 B8 36 40 00 D4 36 40 00 48 5F 42 00 \9@..6@..6@.H_B.
00425CE0 80 5F 42 00 00 60 42 00 0F 54 55 6E 69 74 56 65 ._B..`B..TUnitVe
00425CF0 72 73 69 6F 6E 69 6E 67 24 55 52 4C 3A 20 68 74 rsioning$URL: ht
00425D00 74 70 73 3A 2F 2F 6A 63 6C 2E 73 76 6E 2E 73 6F tps://jcl.svn.so
00425D10 75 72 63 65 66 6F 72 67 65 2E 6E 65 74 2F 73 76 urceforge.net/sv
00425D20 6E 72 6F 6F 74 2F 6A 63 6C 2F 74 61 67 73 2F 4A nroot/jcl/tags/J
00425D30 43 4C 2D 32 2E 34 2D 42 75 69 6C 64 34 35 37 31 CL-2.4-Build4571
00425D40 2F 6A 63 6C 2F 73 6F 75 72 63 65 2F 63 6F 6D 6D /jcl/source/comm
00425D50 6F 6E 2F 4A 63 6C 55 6E 69 74 56 65 72 73 69 6F on/JclUnitVersio
00425D60 6E 69 6E 67 2E 70 61 73 20 24 00 00 24 52 65 76 ning.pas $..$Rev
00425D70 69 73 69 6F 6E 3A 20 33 38 36 31 20 24 00 00 00 ision: 3861 $...
00425D80 24 44 61 74 65 3A 20 32 30 31 32 2D 30 39 2D 30 $Date: 2012-09-0
00425D90 34 20 31 36 3A 30 38 3A 30 34 20 2B 30 32 30 30 4 16:08:04 +0200
00425DA0 20 28 54 75 65 2C 20 30 34 20 53 65 70 20 32 30  (Tue, 04 Sep 20
00425DB0 31 32 29 20 24 00 00 00 4A 43 4C 5C 73 6F 75 72 12) $...JCL\sour
00425DC0 63 65 5C 63 6F 6D 6D 6F 6E 00 00 00 00 00 00 00 ce\common.......
00425DD0 53 56 57 84 D2 74 08 83 C4 F0 E8 B1 DB FD FF 8B SVW..t..........
00425DE0 F1 8B DA 8B F8 33 D2 8B C7 E8 02 D9 FD FF 89 77 .....3.........w
00425DF0 04 8B C7 84 DB 74 0F E8 EC DB FD FF 64 8F 05 00 .....t......d...
00425E00 00 00 00 83 C4 0C 8B C7 5F 5E 5B C3 53 56 57 84 ........_^[.SVW.
00425E10 D2 74 08 83 C4 F0 E8 75 DB FD FF 8B F1 8B DA 8B .t.....u........
00425E20 F8 33 D2 8B C7 E8 C6 D8 FD FF 89 77 04 B2 01 A1 .3.........w....
00425E30 8C D2 41 00 E8 C3 74 FF FF 89 47 08 8B C7 84 DB ..A...t...G.....
00425E40 74 0F E8 A1 DB FD FF 64 8F 05 00 00 00 00 83 C4 t......d........
00425E50 0C 8B C7 5F 5E 5B C3 90 53 56 E8 99 DB FD FF 8B ..._^[..SV......
00425E60 DA 8B F0 8B 46 08 E8 B5 D8 FD FF 8B D3 80 E2 FC ....F...........
00425E70 8B C6 E8 99 D8 FD FF 84 DB 7E 07 8B C6 E8 5E DB .........~....^.
00425E80 FD FF 5E 5B C3 8D 40 00 53 56 8B F2 8B D8 8B D6 ..^[..@.SV......
00425E90 8B 43 08 E8 A0 74 FF FF 5E 5B C3 90 53 56 8B F2 .C...t..^[..SV..
00425EA0 8B D8 8B CE B2 01 A1 D4 5B 42 00 E8 20 FF FF FF ........[B.. ...
00425EB0 8B D0 8B 43 08 E8 3A 74 FF FF 5E 5B C3 8D 40 00 ...C..:t..^[..@.
00425EC0 53 56 57 55 8B EA 8B F8 8B 47 08 8B 58 08 4B 85 SVWU.....G..X.K.
00425ED0 DB 7C 15 43 33 F6 8B D6 8B C7 E8 A9 FF FF FF 3B .|.C3..........;
00425EE0 68 04 74 07 46 4B 75 EE 83 CE FF 8B C6 5D 5F 5E h.t.FKu......]_^
00425EF0 5B C3 8B C0 53 56 84 D2 74 08 83 C4 F0 E8 8E DA [...SV..t.......
00425F00 FD FF 8B DA 8B F0 33 D2 8B C6 E8 E1 D7 FD FF B2 ......3.........
00425F10 01 A1 8C D2 41 00 E8 E1 73 FF FF 89 46 04 B2 01 ....A...s...F...
00425F20 A1 8C D2 41 00 E8 D2 73 FF FF 89 46 08 8B C6 84 ...A...s...F....
00425F30 DB 74 0F E8 B0 DA FD FF 64 8F 05 00 00 00 00 83 .t......d.......
00425F40 C4 0C 8B C6 5E 5B C3 90 53 56 E8 A9 DA FD FF 8B ....^[..SV......
00425F50 DA 8B F0 8B 46 08 E8 C5 D7 FD FF 8B 46 04 E8 BD ....F.......F...
00425F60 D7 FD FF 8B D3 80 E2 FC 8B C6 E8 A1 D7 FD FF 84 ................
00425F70 DB 7E 07 8B C6 E8 66 DA FD FF 5E 5B C3 8D 40 00 .~....f...^[..@.
00425F80 53 56 57 55 83 C4 F8 89 4C 24 04 89 14 24 8B E8 SVWU....L$...$..
00425F90 8B 45 04 8B 70 08 4E 85 F6 7C 35 46 33 FF 8B D7 .E..p.N..|5F3...
00425FA0 8B C5 E8 B5 00 00 00 8B D8 8B 43 04 3B 04 24 75 ..........C.;.$u
00425FB0 1B 8B 54 24 04 8B C3 E8 04 FF FF FF 40 75 37 8B ..T$........@u7.
00425FC0 54 24 04 8B C3 E8 D2 FE FF FF EB 2A 47 4E 75 CE T$.........*GNu.
00425FD0 8B 0C 24 B2 01 A1 30 5C 42 00 E8 2D FE FF FF 8B ..$...0\B..-....
00425FE0 D8 8B 45 04 8B D3 E8 09 73 FF FF 8B 54 24 04 8B ..E.....s...T$..
00425FF0 C3 E8 A6 FE FF FF 59 5A 5D 5F 5E 5B C3 8D 40 00 ......YZ]_^[..@.
00426000 53 56 57 55 8B EA 8B F0 8B 46 04 8B 58 08 4B 83 SVWU.....F..X.K.
00426010 FB 00 7C 20 8B D3 8B C6 E8 3F 00 00 00 3B 68 04 ..| .....?...;h.
00426020 75 0C 8B D3 8B 46 04 E8 2C E2 FE FF EB 06 4B 83 u....F..,.....K.
00426030 FB FF 75 E0 8B 46 08 8B 78 08 4F 85 FF 7C 18 47 ..u..F..x.O..|.G
00426040 33 DB 8B D3 8B 46 08 E8 EC 72 FF FF 8B D5 8B 08 3....F...r......
00426050 FF 51 08 43 4F 75 EB 5D 5F 5E 5B C3 53 56 8B F2 .Q.COu.]_^[.SV..
00426060 8B D8 8B D6 8B 43 04 E8 CC 72 FF FF 5E 5B C3 90 .....C...r..^[..
00426070 55 8B EC 33 C9 51 51 51 51 53 33 C0 55 68 30 62 U..3.QQQQS3.Uh0b
00426080 42 00 64 FF 30 64 89 20 80 3D 4C A5 42 00 00 74 B.d.0d. .=L.B..t
00426090 07 33 DB E9 7D 01 00 00 83 3D C0 D3 42 00 00 75 .3..}....=..B..u
004260A0 3A 6A 00 E8 D0 03 FE FF 33 D2 52 50 8D 45 F8 E8 :j......3.RP.E..
004260B0 38 1A FE FF 8B 4D F8 8D 45 FC BA 48 62 42 00 E8 8....M..E..HbB..
004260C0 88 E4 FD FF 8B 45 FC 50 33 C9 B2 01 A1 60 51 42 .....E.P3....`QB
004260D0 00 E8 FA F2 FF FF A3 C0 D3 42 00 83 3D 44 A5 42 .........B..=D.B
004260E0 00 00 0F 85 D8 00 00 00 83 CA FF A1 C0 D3 42 00 ..............B.
004260F0 E8 53 F2 FF FF 33 C0 55 68 B9 61 42 00 64 FF 30 .S...3.Uh.aB.d.0
00426100 64 89 20 83 3D 48 A5 42 00 00 75 38 68 1F 00 0F d. .=H.B..u8h...
00426110 00 E8 62 03 FE FF 33 D2 52 50 8D 45 F0 E8 CA 19 ..b...3.RP.E....
00426120 FE FF 8B 4D F0 8D 45 F4 BA 6C 62 42 00 E8 1A E4 ...M..E..lbB....
00426130 FD FF 8B 55 F4 B8 48 A5 42 00 B9 04 00 00 00 E8 ...U..H.B.......
00426140 08 F6 FF FF 83 3D 48 A5 42 00 00 74 3C A1 48 A5 .....=H.B..t<.H.
00426150 42 00 8B 00 A3 44 A5 42 00 83 3D 44 A5 42 00 00 B....D.B..=D.B..
00426160 75 3F B2 01 A1 94 5C 42 00 E8 86 FD FF FF A3 44 u?....\B.......D
00426170 A5 42 00 A1 48 A5 42 00 8B 15 44 A5 42 00 89 10 .B..H.B...D.B...
00426180 C6 05 40 A5 42 00 01 EB 18 B2 01 A1 94 5C 42 00 ..@.B........\B.
00426190 E8 5F FD FF FF A3 44 A5 42 00 C6 05 40 A5 42 00 ._....D.B...@.B.
004261A0 01 33 C0 5A 59 59 64 89 10 68 0F 62 42 00 A1 C0 .3.ZYYd..h.bB...
004261B0 D3 42 00 E8 B4 F2 FF FF C3 E9 66 DA FD FF EB EE .B........f.....
004261C0 83 3D 48 A5 42 00 00 74 46 83 CA FF A1 C0 D3 42 .=H.B..tF......B
004261D0 00 E8 72 F1 FF FF 33 C0 55 68 08 62 42 00 64 FF ..r...3.Uh.bB.d.
004261E0 30 64 89 20 A1 48 A5 42 00 8B 00 A3 44 A5 42 00 0d. .H.B....D.B.
004261F0 33 C0 5A 59 59 64 89 10 68 0F 62 42 00 A1 C0 D3 3.ZYYd..h.bB....
00426200 42 00 E8 65 F2 FF FF C3 E9 17 DA FD FF EB EE 8B B..e............
00426210 1D 44 A5 42 00 33 C0 5A 59 59 64 89 10 68 37 62 .D.B.3.ZYYd..h7b
00426220 42 00 8D 45 F0 BA 04 00 00 00 E8 35 E0 FD FF C3 B..E.......5....
00426230 E9 EF D9 FD FF EB EB 8B C3 5B 8B E5 5D C3 00 00 .........[..]...
00426240 FF FF FF FF 18 00 00 00 4D 75 74 65 78 4E 50 41 ........MutexNPA
00426250 5F 55 6E 69 74 56 65 72 73 69 6F 6E 69 6E 67 5F _UnitVersioning_
00426260 00 00 00 00 FF FF FF FF 16 00 00 00 53 68 6D 4E ............ShmN
00426270 50 41 5F 55 6E 69 74 56 65 72 73 69 6F 6E 69 6E PA_UnitVersionin
00426280 67 5F 00 00 55 8B EC 53 56 57 C6 05 4C A5 42 00 g_..U..SVW..L.B.
00426290 01 33 C0 55 68 E1 62 42 00 64 FF 30 64 89 20 83 .3.Uh.bB.d.0d. .
004262A0 3D 48 A5 42 00 00 74 0A B8 48 A5 42 00 E8 B2 F7 =H.B..t..H.B....
004262B0 FF FF 83 3D 44 A5 42 00 00 74 15 80 3D 40 A5 42 ...=D.B..t..=@.B
004262C0 00 00 74 0C B8 44 A5 42 00 E8 72 66 FE FF EB 07 ..t..D.B..rf....
004262D0 33 C0 A3 44 A5 42 00 33 C0 5A 59 59 64 89 10 EB 3..D.B.3.ZYYd...
004262E0 0A E9 12 D8 FD FF E8 ED D9 FD FF B8 C0 D3 42 00 ..............B.
004262F0 E8 4B 66 FE FF 5F 5E 5B 5D C3 8B C0 53 56 8B F2 .Kf.._^[]...SV..
00426300 8B D8 E8 69 FD FF FF 85 C0 74 08 8B CE 8B D3 8B ...i.....t......
00426310 18 FF 13 5E 5B C3 8B C0 53 8B D8 E8 50 FD FF FF ...^[...S...P...
00426320 85 C0 74 07 8B D3 8B 08 FF 51 04 5B C3 8D 40 00 ..t......Q.[..@.
00426330 55 8B EC 33 C0 55 68 66 63 42 00 64 FF 30 64 89 U..3.UhfcB.d.0d.
00426340 20 FF 05 BC D3 42 00 75 0F A1 68 B6 42 00 E8 C5  ....B.u..h.B...
00426350 FF FF FF E8 2C FF FF FF 33 C0 5A 59 59 64 89 10 ....,...3.ZYYd..
00426360 68 6D 63 42 00 C3 E9 B9 D8 FD FF EB F8 5D C3 90 hmcB.........]..
00426370 83 2D BC D3 42 00 01 73 0F BA 28 A5 42 00 A1 68 .-..B..s..(.B..h
00426380 B6 42 00 E8 74 FF FF FF C3 8D 40 00 24 55 52 4C .B..t.....@.$URL
00426390 3A 20 68 74 74 70 73 3A 2F 2F 6A 63 6C 2E 73 76 : https://jcl.sv
004263A0 6E 2E 73 6F 75 72 63 65 66 6F 72 67 65 2E 6E 65 n.sourceforge.ne
004263B0 74 2F 73 76 6E 72 6F 6F 74 2F 6A 63 6C 2F 74 61 t/svnroot/jcl/ta
004263C0 67 73 2F 4A 43 4C 2D 32 2E 34 2D 42 75 69 6C 64 gs/JCL-2.4-Build
004263D0 34 35 37 31 2F 6A 63 6C 2F 73 6F 75 72 63 65 2F 4571/jcl/source/
004263E0 63 6F 6D 6D 6F 6E 2F 4A 63 6C 46 69 6C 65 55 74 common/JclFileUt
004263F0 69 6C 73 2E 70 61 73 20 24 00 00 00 24 52 65 76 ils.pas $...$Rev
00426400 69 73 69 6F 6E 3A 20 33 38 36 31 20 24 00 00 00 ision: 3861 $...
00426410 24 44 61 74 65 3A 20 32 30 31 32 2D 30 39 2D 30 $Date: 2012-09-0
00426420 34 20 31 36 3A 30 38 3A 30 34 20 2B 30 32 30 30 4 16:08:04 +0200
00426430 20 28 54 75 65 2C 20 30 34 20 53 65 70 20 32 30  (Tue, 04 Sep 20
00426440 31 32 29 20 24 00 00 00 4A 43 4C 5C 73 6F 75 72 12) $...JCL\sour
00426450 63 65 5C 63 6F 6D 6D 6F 6E 00 00 00 00 00 00 00 ce\common.......

;; fn00426460: 00426460
;;   Called from:
;;     00426529 (in fn004264A0)
fn00426460 proc
	push	ebx
	push	esi
	mov	esi,edx
	mov	ebx,eax
	mov	eax,esi
	mov	edx,ebx
	call	00404294
	test	ebx,ebx
	jz	00426481

l00426473:
	mov	eax,ebx
	call	00404500
	cmp	byte ptr [ebx+eax-01],5C
	jz	0042648F

l00426481:
	mov	eax,esi
	mov	ecx,0042649C
	mov	edx,ebx
	call	0040454C

l0042648F:
	pop	esi
	pop	ebx
	ret
00426492       00 00 FF FF FF FF 01 00 00 00 5C 00 00 00   ..........\...

;; fn004264A0: 004264A0
;;   Called from:
;;     00427B19 (in Win32CrtStartup)
fn004264A0 proc
	push	ebp
	mov	ebp,esp
	add	esp,FFFFFE80
	push	ebx
	push	esi
	push	edi
	xor	ebx,ebx
	mov	[ebp-00000180],ebx
	mov	[ebp-0000017C],ebx
	mov	[ebp-00000178],ebx
	mov	[ebp-00000174],ebx
	mov	[ebp-14],ebx
	mov	[ebp-18],ebx
	mov	[ebp-08],ecx
	mov	[ebp-04],edx
	mov	ebx,eax
	lea	eax,[ebp-00000170]
	mov	edx,[00406B54]
	call	00404B90
	xor	eax,eax
	push	ebp
	push	0042670D
	push	dword ptr fs:[eax]
	mov	fs:[eax],esp
	mov	dl,01
	mov	eax,[00413940]
	call	004036F0
	mov	[ebp-10],eax
	xor	eax,eax
	push	ebp
	push	004266CA
	push	dword ptr fs:[eax]
	mov	fs:[eax],esp
	lea	edx,[ebp-18]
	mov	eax,ebx
	call	00407FE8
	cmp	dword ptr [ebp-18],00
	jz	0042654B

l00426520:
	lea	edx,[ebp-00000174]
	mov	eax,[ebp-18]
	call	00426460
	mov	edx,[ebp-00000174]
	lea	eax,[ebp-18]
	call	004042D8
	lea	ecx,[ebp-14]
	mov	edx,ebx
	mov	eax,[ebp-18]
	call	00424988
	jmp	00426555

l0042654B:
	lea	eax,[ebp-14]
	mov	edx,ebx
	call	004042D8

l00426555:
	mov	ecx,[ebp-10]
	mov	dl,3B
	mov	eax,[ebp-14]
	call	00424AA8
	lea	eax,[ebp-00000178]
	mov	ecx,00426728
	mov	edx,[ebp-18]
	call	0040454C
	mov	eax,[ebp-00000178]
	lea	ecx,[ebp-00000170]
	mov	edx,0000003F
	call	00407ED0
	test	eax,eax
	setz	byte ptr [ebp-09]
	mov	eax,[ebp-08]
	call	00414AAC
	xor	eax,eax
	push	ebp
	push	004266AD
	push	dword ptr fs:[eax]
	mov	fs:[eax],esp
	jmp	00426682

l004265AC:
	mov	eax,[ebp-10]
	mov	edx,[eax]
	call	dword ptr [edx+14]
	mov	ebx,eax
	dec	ebx
	test	ebx,ebx
	jl	00426669

l004265BF:
	inc	ebx
	xor	esi,esi

l004265C2:
	mov	eax,[ebp-00000164]
	mov	edx,00426734
	call	0040464C
	jz	00426661

l004265D8:
	mov	eax,[ebp-00000164]
	mov	edx,00426740
	call	0040464C
	jz	00426661

l004265EA:
	mov	eax,[ebp-00000168]
	and	eax,[ebp-04]
	mov	edx,[ebp-00000168]
	and	edx,3F
	cmp	eax,edx
	jnz	00426661

l00426600:
	lea	ecx,[ebp-0000017C]
	mov	edx,esi
	mov	eax,[ebp-10]
	mov	edi,[eax]
	call	dword ptr [edi+0C]
	mov	edx,[ebp-0000017C]
	xor	ecx,ecx
	mov	eax,[ebp-00000164]
	call	00426954
	test	al,al
	jz	00426661

l00426627:
	cmp	byte ptr [ebp+08],00
	jz	00426651

l0042662D:
	lea	eax,[ebp-00000180]
	mov	ecx,[ebp-00000164]
	mov	edx,[ebp-18]
	call	0040454C
	mov	edx,[ebp-00000180]
	mov	eax,[ebp-08]
	mov	ecx,[eax]
	call	dword ptr [ecx+38]
	jmp	00426669

l00426651:
	mov	edx,[ebp-00000164]
	mov	eax,[ebp-08]
	mov	ecx,[eax]
	call	dword ptr [ecx+38]
	jmp	00426669

l00426661:
	inc	esi
	dec	ebx
	jnz	004265C2

l00426669:
	lea	eax,[ebp-00000170]
	call	00407F20
	sub	eax,01
	jc	00426682

l00426679:
	sub	eax,11
	jz	0042668C

l0042667E:
	mov	byte ptr [ebp-09],00

l00426682:
	cmp	byte ptr [ebp-09],00
	jnz	004265AC

l0042668C:
	xor	eax,eax
	pop	edx
	pop	ecx
	pop	ecx
	mov	fs:[eax],edx
	push	004266B4
	lea	eax,[ebp-00000170]
	call	00407F44
	mov	eax,[ebp-08]
	call	00414B68
	ret
004266AD                                        E9 72 D5              .r.
004266B0 FD FF EB E5 33 C0 5A 59 59 64 89 10 68 D1 66 42 ....3.ZYYd..h.fB
004266C0 00 8B 45 F0 E8 57 D0 FD FF C3 E9 55 D5 FD FF EB ..E..W.....U....
004266D0 F0 33 C0 5A 59 59 64 89 10 68 14 67 42 00 8D 85 .3.ZYYd..h.gB...
004266E0 80 FE FF FF BA 04 00 00 00 E8 76 DB FD FF 8D 85 ..........v.....
004266F0 90 FE FF FF 8B 15 54 6B 40 00 E8 61 E5 FD FF 8D ......Tk@..a....
00426700 45 E8 BA 02 00 00 00 E8 58 DB FD FF C3 E9 12 D5 E.......X.......
00426710 FD FF EB CA 8A 45 F7 5F 5E 5B 8B E5 5D C2 04 00 .....E._^[..]...
00426720 FF FF FF FF 01 00 00 00 2A 00 00 00 FF FF FF FF ........*.......
00426730 01 00 00 00 2E 00 00 00 FF FF FF FF 02 00 00 00 ................
00426740 2E 2E 00 00 53 56 57 8B F2 8B F8 BB 05 01 00 00 ....SVW.........
00426750 8B C6 8B D3 E8 D7 E0 FD FF 53 8B 06 50 57 E8 55 .........S..PW.U
00426760 FD FD FF 8B D8 8B C6 8B D3 E8 C2 E0 FD FF 5F 5E .............._^
00426770 5B C3 8B C0 FF FF FF FF 08 00 00 00 43 6F 6D 6D [...........Comm
00426780 65 6E 74 73 00 00 00 00 FF FF FF FF 0B 00 00 00 ents............
00426790 43 6F 6D 70 61 6E 79 4E 61 6D 65 00 FF FF FF FF CompanyName.....
004267A0 0F 00 00 00 46 69 6C 65 44 65 73 63 72 69 70 74 ....FileDescript
004267B0 69 6F 6E 00 FF FF FF FF 0B 00 00 00 46 69 6C 65 ion.........File
004267C0 56 65 72 73 69 6F 6E 00 FF FF FF FF 0C 00 00 00 Version.........
004267D0 49 6E 74 65 72 6E 61 6C 4E 61 6D 65 00 00 00 00 InternalName....
004267E0 FF FF FF FF 0E 00 00 00 4C 65 67 61 6C 43 6F 70 ........LegalCop
004267F0 79 72 69 67 68 74 00 00 FF FF FF FF 0F 00 00 00 yright..........
00426800 4C 65 67 61 6C 54 72 61 64 65 4D 61 72 6B 73 00 LegalTradeMarks.
00426810 FF FF FF FF 10 00 00 00 4F 72 69 67 69 6E 61 6C ........Original
00426820 46 69 6C 65 6E 61 6D 65 00 00 00 00 FF FF FF FF Filename........
00426830 0B 00 00 00 50 72 6F 64 75 63 74 4E 61 6D 65 00 ....ProductName.
00426840 FF FF FF FF 0E 00 00 00 50 72 6F 64 75 63 74 56 ........ProductV
00426850 65 72 73 69 6F 6E 00 00 FF FF FF FF 0C 00 00 00 ersion..........
00426860 53 70 65 63 69 61 6C 42 75 69 6C 64 00 00 00 00 SpecialBuild....
00426870 FF FF FF FF 0C 00 00 00 50 72 69 76 61 74 65 42 ........PrivateB
00426880 75 69 6C 64 00 00 00 00 55 8B EC 83 C4 EC 53 56 uild....U.....SV
00426890 57 33 C9 89 4D F0 89 55 FC 8B F0 33 C0 55 68 3E W3..M..U...3.Uh>
004268A0 69 42 00 64 FF 30 64 89 20 33 DB 33 C0 89 45 F4 iB.d.0d. 3.3..E.
004268B0 8D 45 F4 50 8B C6 E8 45 DE FD FF 50 E8 FF FC FD .E.P...E...P....
004268C0 FF 8B F8 85 FF 76 61 8D 45 F0 8B D7 E8 5F DF FD .....va.E...._..
004268D0 FF 33 C0 89 45 F8 33 C0 89 45 EC 8B 45 F0 50 57 .3..E.3..E..E.PW
004268E0 8B 45 F4 50 8B C6 E8 15 DE FD FF 50 E8 C7 FC FD .E.P.......P....
004268F0 FF 85 C0 74 33 8D 45 F8 50 8D 45 EC 50 68 50 69 ...t3.E.P.E.PhPi
00426900 42 00 8B 45 F0 50 E8 BD FC FD FF 85 C0 74 19 83 B..E.P.......t..
00426910 7D F8 34 75 13 B3 01 8B 45 EC 8B 55 FC 8B F0 8B }.4u....E..U....
00426920 FA B9 0D 00 00 00 F3 A5 33 C0 5A 59 59 64 89 10 ........3.ZYYd..
00426930 68 45 69 42 00 8D 45 F0 E8 03 D9 FD FF C3 E9 E1 hEiB..E.........
00426940 D2 FD FF EB F0 8B C3 5F 5E 5B 8B E5 5D C3 00 00 ......._^[..]...
00426950 5C 00 00 00                                     \...           

;; fn00426954: 00426954
;;   Called from:
;;     0042661E (in fn004264A0)
fn00426954 proc
	push	ebp
	mov	ebp,esp
	add	esp,F0
	push	ebx
	push	esi
	xor	ebx,ebx
	mov	[ebp-0C],ebx
	mov	[ebp-10],ebx
	mov	[ebp-05],cl
	mov	esi,edx
	mov	[ebp-04],eax
	mov	eax,[ebp-04]
	call	004046F0
	xor	eax,eax
	push	ebp
	push	00426A27
	push	dword ptr fs:[eax]
	mov	fs:[eax],esp
	mov	bl,01
	test	esi,esi
	jz	00426A04

l00426988:
	mov	eax,esi
	mov	edx,00426A40
	call	0040464C
	jz	00426A04

l00426996:
	mov	eax,esi
	mov	edx,00426A4C
	call	0040464C
	jz	00426A04

l004269A4:
	mov	edx,[ebp-04]
	mov	eax,00426A58
	call	004047E8
	test	eax,eax
	jnz	004269C2

l004269B5:
	lea	eax,[ebp-04]
	mov	edx,00426A58
	call	00404508

l004269C2:
	cmp	byte ptr [ebp-05],00
	jz	004269DB

l004269C8:
	mov	ecx,00000001
	mov	edx,[ebp-04]
	mov	eax,esi
	call	004247EC
	mov	ebx,eax
	jmp	00426A04

l004269DB:
	lea	edx,[ebp-0C]
	mov	eax,[ebp-04]
	call	004078A8
	mov	eax,[ebp-0C]
	push	eax
	lea	edx,[ebp-10]
	mov	eax,esi
	call	004078A8
	mov	eax,[ebp-10]
	mov	ecx,00000001
	pop	edx
	call	004247EC
	mov	ebx,eax

l00426A04:
	xor	eax,eax
	pop	edx
	pop	ecx
	pop	ecx
	mov	fs:[eax],edx
	push	00426A2E
	lea	eax,[ebp-10]
	mov	edx,00000002
	call	00404264
	lea	eax,[ebp-04]
	call	00404240
	ret
00426A27                      E9 F8 D1 FD FF EB E3 8B C3        .........
00426A30 5E 5B 8B E5 5D C3 00 00 FF FF FF FF 01 00 00 00 ^[..]...........
00426A40 2A 00 00 00 FF FF FF FF 03 00 00 00 2A 2E 2A 00 *...........*.*.
00426A50 FF FF FF FF 01 00 00 00 2E 00 00 00 55 8B EC 33 ............U..3
00426A60 C0 55 68 A2 6A 42 00 64 FF 30 64 89 20 FF 05 C4 .Uh.jB.d.0d. ...
00426A70 D3 42 00 75 1F A1 68 B6 42 00 E8 99 F8 FF FF B8 .B.u..h.B.......
00426A80 68 A5 42 00 B9 0C 00 00 00 8B 15 44 10 40 00 E8 h.B........D.@..
00426A90 18 E2 FD FF 33 C0 5A 59 59 64 89 10 68 A9 6A 42 ....3.ZYYd..h.jB
00426AA0 00 C3 E9 7D D1 FD FF EB F8 5D C3 90 83 2D C4 D3 ...}.....]...-..
00426AB0 42 00 01 73 0F BA 50 A5 42 00 A1 68 B6 42 00 E8 B..s..P.B..h.B..
00426AC0 38 F8 FF FF C3 8D 40 00                         8.....@.       

;; fn00426AC8: 00426AC8
;;   Called from:
;;     00427AE3 (in Win32CrtStartup)
fn00426AC8 proc
	push	ebp
	mov	ebp,esp
	add	esp,EC
	push	ebx
	push	esi
	push	edi
	mov	edi,edx
	mov	esi,eax
	mov	dl,01
	mov	eax,[00417A20]
	call	0041B01C
	mov	ebx,eax
	mov	eax,ebx
	call	0041B578
	mov	[ebp-04],eax
	xor	eax,eax
	push	ebp
	push	00426BE4
	push	dword ptr fs:[eax]
	mov	fs:[eax],esp
	mov	dl,03
	mov	eax,ebx
	call	0041C3E4
	mov	edx,esi
	mov	eax,ebx
	mov	ecx,[eax]
	call	dword ptr [ecx+40]
	mov	edx,edi
	mov	eax,ebx
	mov	ecx,[eax]
	call	dword ptr [ecx+34]
	mov	eax,[ebp-04]
	mov	eax,[eax+14]
	xor	edx,edx
	call	00418F80
	mov	eax,[ebp-04]
	mov	eax,[eax+14]
	xor	edx,edx
	call	00418E64
	mov	eax,ebx
	mov	edx,[eax]
	call	dword ptr [edx+20]
	push	eax
	lea	eax,[ebp-14]
	push	eax
	mov	eax,ebx
	mov	edx,[eax]
	call	dword ptr [edx+2C]
	mov	ecx,eax
	xor	edx,edx
	xor	eax,eax
	call	00413CD0
	lea	edx,[ebp-14]
	mov	eax,[ebp-04]
	call	004190D4
	mov	eax,[ebp-04]
	mov	eax,[eax+14]
	mov	edx,00FFFFFF
	call	00418E64
	push	19
	lea	eax,[ebp-14]
	push	eax
	mov	eax,ebx
	mov	edx,[eax]
	call	dword ptr [edx+2C]
	mov	ecx,eax
	xor	edx,edx
	xor	eax,eax
	call	00413CD0
	lea	edx,[ebp-14]
	mov	eax,[ebp-04]
	call	004190D4
	mov	eax,ebx
	mov	edx,[eax]
	call	dword ptr [edx+20]
	push	eax
	lea	eax,[ebp-14]
	push	eax
	mov	eax,ebx
	mov	edx,[eax]
	call	dword ptr [edx+2C]
	push	eax
	mov	eax,ebx
	mov	edx,[eax]
	call	dword ptr [edx+20]
	mov	edx,eax
	sub	edx,000000AF
	xor	eax,eax
	pop	ecx
	call	00413CD0
	lea	edx,[ebp-14]
	mov	eax,[ebp-04]
	call	004190D4
	mov	edx,00426BFC
	mov	eax,ebx
	mov	ecx,[eax]
	call	dword ptr [ecx+50]
	xor	eax,eax
	pop	edx
	pop	ecx
	pop	ecx
	mov	fs:[eax],edx
	push	00426BEB
	mov	eax,[ebp-04]
	call	00403720
	ret
00426BE4             E9 3B D0 FD FF EB F0 5F 5E 5B 8B E5     .;....._^[..
00426BF0 5D C3 00 00 FF FF FF FF 08 00 00 00 6D 61 73 6B ]...........mask
00426C00 2E 62 6D 70 00 00 00 00 0C 6C 42 00 11 02 2E 31 .bmp.....lB....1
00426C10 04 00 00 00 00 00 00 00 03 00 00 00 00 10 40 00 ..............@.
00426C20 0C 72 65 73 69 7A 65 66 72 61 6D 65 73 8D 40 00 .resizeframes.@.

;; fn00426C30: 00426C30
;;   Called from:
;;     00427BFB (in Win32CrtStartup)
fn00426C30 proc
	push	ebp
	mov	ebp,esp
	add	esp,C4
	push	ebx
	push	esi
	push	edi
	xor	ebx,ebx
	mov	[ebp-20],ebx
	mov	ebx,ecx
	mov	[ebp-08],edx
	mov	[ebp-04],eax
	xor	eax,eax
	push	ebp
	push	0042713D
	push	dword ptr fs:[eax]
	mov	fs:[eax],esp
	mov	dl,01
	mov	eax,[0041CD1C]
	call	0041B01C
	mov	[ebp-0C],eax
	mov	dl,01
	mov	eax,[0041CD1C]
	call	0041B01C
	mov	[ebp-10],eax
	mov	dl,01
	mov	eax,[0041CD1C]
	call	0041B01C
	mov	[ebp-1C],eax
	xor	edx,edx
	push	ebp
	push	0042711A
	push	dword ptr fs:[edx]
	mov	fs:[edx],esp
	mov	edx,[ebp-08]
	mov	eax,[ebp-10]
	mov	ecx,[eax]
	call	dword ptr [ecx+40]
	mov	edx,ebx
	mov	eax,[ebp-10]
	mov	ecx,[eax]
	call	dword ptr [ecx+34]
	mov	edx,[ebp-04]
	mov	eax,[ebp-0C]
	mov	ecx,[eax]
	call	dword ptr [ecx+4C]
	mov	eax,[ebp-0C]
	mov	edx,[eax]
	call	dword ptr [edx+2C]
	cmp	eax,[ebp-08]
	jl	00426CD2

l00426CBC:
	mov	eax,[ebp-0C]
	mov	edx,[eax]
	call	dword ptr [edx+20]
	cmp	ebx,eax
	jg	00426CD2

l00426CC8:
	call	00403D08
	jmp	00427121

l00426CD2:
	mov	eax,[ebp-0C]
	call	0041B664
	mov	edx,eax
	mov	eax,[ebp-10]
	call	0041C3E4
	mov	eax,[ebp-0C]
	mov	edx,[eax]
	call	dword ptr [edx+24]
	mov	edx,eax
	mov	eax,[ebp-10]
	mov	ecx,[eax]
	call	dword ptr [ecx+38]
	mov	edx,[0042A5C8]
	mov	eax,[ebp-1C]
	mov	ecx,[eax]
	call	dword ptr [ecx+40]
	mov	edx,[0042A5CC]
	mov	eax,[ebp-1C]
	mov	ecx,[eax]
	call	dword ptr [ecx+34]
	mov	eax,[ebp-1C]
	mov	edx,[eax]
	call	dword ptr [edx+2C]
	push	eax
	mov	eax,[ebp-1C]
	mov	edx,[eax]
	call	dword ptr [edx+20]
	push	eax
	mov	eax,[ebp-0C]
	push	eax
	mov	eax,[0042A5D0]
	push	eax
	mov	eax,[0042A5D4]
	push	eax
	xor	ecx,ecx
	xor	edx,edx
	mov	eax,[ebp-1C]
	call	0041D178
	mov	eax,[ebp-10]
	mov	edx,[eax]
	call	dword ptr [edx+2C]
	mov	ecx,eax
	sub	ecx,[0042A598]
	sub	ecx,[0042A5B0]
	mov	eax,ecx
	mov	ebx,[0042A5C8]
	cdq
	idiv	ebx
	mov	[ebp-14],eax
	mov	eax,ecx
	cdq
	idiv	ebx
	test	edx,edx
	jle	00426D70

l00426D6D:
	inc	dword ptr [ebp-14]

l00426D70:
	dec	dword ptr [ebp-14]

l00426D73:
	inc	dword ptr [ebp-14]
	mov	edi,[ebp-14]
	add	edi,edi
	sub	edi,02
	mov	ebx,[ebp-14]
	imul	ebx,[0042A5C8]
	sub	ebx,ecx
	mov	eax,ebx
	cdq
	idiv	edi
	mov	esi,eax
	cmp	esi,14
	jle	00426D73

l00426D96:
	push	edi
	lea	eax,[ebp-20]
	mov	ecx,00000001
	mov	edx,[00426C08]
	call	00405470
	add	esp,04
	mov	eax,[ebp-20]
	call	0040529C
	test	eax,eax
	jl	00426DD5

l00426DB9:
	inc	eax
	mov	[ebp-2C],eax
	mov	dword ptr [ebp-18],00000000

l00426DC4:
	mov	eax,[ebp-20]
	mov	edx,[ebp-18]
	mov	[eax+edx*4],esi
	inc	dword ptr [ebp-18]
	dec	dword ptr [ebp-2C]
	jnz	00426DC4

l00426DD5:
	mov	eax,ebx
	cdq
	idiv	edi
	dec	edx
	test	edx,edx
	jl	00426DFB

l00426DDF:
	inc	edx
	mov	[ebp-2C],edx
	mov	dword ptr [ebp-18],00000000

l00426DEA:
	mov	eax,[ebp-20]
	mov	edx,[ebp-18]
	inc	dword ptr [eax+edx*4]
	inc	dword ptr [ebp-18]
	dec	dword ptr [ebp-2C]
	jnz	00426DEA

l00426DFB:
	mov	eax,[0042A598]
	mov	[ebp-24],eax
	mov	eax,[ebp-14]
	dec	eax
	test	eax,eax
	jl	00426EFF

l00426E0F:
	inc	eax
	mov	[ebp-2C],eax
	mov	dword ptr [ebp-18],00000000
	mov	dl,01
	mov	eax,[0041CD1C]
	call	0041B01C
	mov	[ebp-28],eax
	xor	edx,edx
	push	ebp
	push	00426EEC
	push	dword ptr fs:[edx]
	mov	fs:[edx],esp
	mov	edx,[ebp-1C]
	mov	eax,[ebp-28]
	mov	ecx,[eax]
	call	dword ptr [ecx+08]
	mov	eax,[ebp-18]
	and	eax,80000001
	jns	00426E51

l00426E4C:
	dec	eax
	or	eax,FE
	inc	eax

l00426E51:
	dec	eax
	jnz	00426E5C

l00426E54:
	mov	eax,[ebp-28]
	call	0041CE08

l00426E5C:
	cmp	dword ptr [ebp-18],00
	jnz	00426E71

l00426E62:
	mov	eax,[ebp-20]
	mov	edx,[eax]
	mov	eax,[ebp-28]
	call	0041D068
	jmp	00426EAC

l00426E71:
	mov	eax,[ebp-14]
	dec	eax
	cmp	eax,[ebp-18]
	jnz	00426E92

l00426E7A:
	mov	eax,[ebp-20]
	call	0040529C
	mov	edx,[ebp-20]
	mov	edx,[edx+eax*4]
	mov	eax,[ebp-28]
	call	0041D010
	jmp	00426EAC

l00426E92:
	mov	eax,[ebp-18]
	add	eax,eax
	mov	edx,[ebp-20]
	mov	ecx,[edx+eax*4]
	mov	edx,[ebp-20]
	mov	edx,[edx+eax*4-04]
	mov	eax,[ebp-28]
	call	0041CF50

l00426EAC:
	mov	eax,[ebp-10]
	push	eax
	mov	eax,[ebp-10]
	mov	edx,[eax]
	call	dword ptr [edx+20]
	mov	ecx,eax
	sub	ecx,[0042A5CC]
	mov	edx,[ebp-24]
	mov	eax,[ebp-28]
	call	0041D1C8
	mov	eax,[ebp-28]
	mov	edx,[eax]
	call	dword ptr [edx+2C]
	add	[ebp-24],eax
	xor	eax,eax
	pop	edx
	pop	ecx
	pop	ecx
	mov	fs:[eax],edx
	push	00426EF3
	mov	eax,[ebp-28]
	call	00403720
	ret
00426EEC                                     E9 33 CD FD             .3..
00426EF0 FF EB F0 FF 45 E8 FF 4D D4 0F 85 1B FF FF FF    ....E..M.......

l00426EFF:
	push	00
	lea	eax,[ebp-20]
	mov	ecx,00000001
	mov	edx,[00426C08]
	call	00405470
	add	esp,04
	push	00000400
	push	19
	mov	eax,[ebp-0C]
	push	eax
	push	00
	push	00
	xor	ecx,ecx
	xor	edx,edx
	mov	eax,[ebp-10]
	call	0041D178
	mov	eax,[ebp-08]
	push	eax
	push	19
	mov	eax,[ebp-0C]
	push	eax
	mov	eax,[ebp-08]
	sub	eax,00000400
	mov	edx,00000400
	sub	edx,eax
	push	edx
	push	00
	xor	ecx,ecx
	mov	edx,00000400
	mov	eax,[ebp-10]
	call	0041D178
	mov	eax,[0042A598]
	push	eax
	mov	eax,[ebp-10]
	mov	edx,[eax]
	call	dword ptr [edx+20]
	push	eax
	mov	eax,[ebp-0C]
	push	eax
	push	00
	mov	eax,[ebp-0C]
	mov	edx,[eax]
	call	dword ptr [edx+20]
	sub	eax,[0042A59C]
	push	eax
	mov	eax,[ebp-10]
	mov	edx,[eax]
	call	dword ptr [edx+20]
	mov	ecx,eax
	sub	ecx,[0042A59C]
	xor	edx,edx
	mov	eax,[ebp-10]
	call	0041D178
	mov	eax,[ebp-10]
	mov	edx,[eax]
	call	dword ptr [edx+2C]
	push	eax
	mov	eax,[ebp-10]
	mov	edx,[eax]
	call	dword ptr [edx+20]
	push	eax
	mov	eax,[ebp-0C]
	push	eax
	mov	eax,[ebp-0C]
	mov	edx,[eax]
	call	dword ptr [edx+2C]
	sub	eax,[0042A5B0]
	push	eax
	mov	eax,[ebp-0C]
	mov	edx,[eax]
	call	dword ptr [edx+20]
	sub	eax,[0042A5B4]
	push	eax
	mov	eax,[ebp-10]
	mov	edx,[eax]
	call	dword ptr [edx+20]
	sub	eax,[0042A5B4]
	push	eax
	mov	eax,[ebp-10]
	mov	edx,[eax]
	call	dword ptr [edx+2C]
	mov	edx,eax
	sub	edx,[0042A5B0]
	mov	eax,[ebp-10]
	pop	ecx
	call	0041D178
	mov	eax,[ebp-04]
	mov	edx,00427154
	call	0040464C
	jnz	00427058

l00427006:
	push	05
	push	05
	mov	eax,[ebp-0C]
	push	eax
	mov	eax,00000400
	sub	eax,[0042A5B0]
	sub	eax,03
	push	eax
	mov	eax,00000300
	mov	ebx,[0042A5CC]
	sub	eax,ebx
	add	eax,0C
	push	eax
	mov	eax,[ebp-10]
	mov	edx,[eax]
	call	dword ptr [edx+20]
	sub	eax,ebx
	add	eax,0C
	push	eax
	mov	eax,[ebp-10]
	mov	edx,[eax]
	call	dword ptr [edx+2C]
	mov	edx,eax
	sub	edx,[0042A5B0]
	sub	edx,03
	mov	eax,[ebp-10]
	pop	ecx
	call	0041D178

l00427058:
	mov	eax,[ebp-0C]
	call	0041B578
	mov	ecx,00000180
	mov	edx,00000200
	call	00419290
	mov	ebx,eax
	mov	eax,[ebp-10]
	call	0041B578
	mov	eax,[eax+14]
	xor	edx,edx
	call	00418F80
	mov	eax,[ebp-10]
	call	0041B578
	mov	eax,[eax+14]
	mov	edx,ebx
	call	00418E64
	push	00000251
	lea	eax,[ebp-3C]
	push	eax
	mov	ecx,[ebp-08]
	mov	edx,00000019
	xor	eax,eax
	call	00413CD0
	lea	eax,[ebp-3C]
	push	eax
	mov	eax,[ebp-10]
	call	0041B578
	pop	edx
	call	004190D4
	mov	edx,[ebp-04]
	mov	eax,[ebp-10]
	mov	ecx,[eax]
	call	dword ptr [ecx+50]
	xor	eax,eax
	pop	edx
	pop	ecx
	pop	ecx
	mov	fs:[eax],edx
	push	00427121
	cmp	dword ptr [ebp-20],00
	jz	00427101

l004270DD:
	mov	eax,[ebp-20]
	call	00405294
	test	eax,eax
	jle	00427101

l004270E9:
	push	00
	lea	eax,[ebp-20]
	mov	ecx,00000001
	mov	edx,[00426C08]
	call	00405470
	add	esp,04

l00427101:
	mov	eax,[ebp-0C]
	call	00403720
	mov	eax,[ebp-10]
	call	00403720
	mov	eax,[ebp-1C]
	call	00403720
	ret
0042711A                               E9 05 CB FD FF EB           ......
00427120 B6                                              .              

l00427121:
	xor	eax,eax
	pop	edx
	pop	ecx
	pop	ecx
	mov	fs:[eax],edx
	push	00427144
	lea	eax,[ebp-20]
	mov	edx,[00426C08]
	call	0040547C
	ret
0042713D                                        E9 E2 CA              ...
00427140 FD FF EB EA 5F 5E 5B 8B E5 5D C3 00 FF FF FF FF ...._^[..]......
00427150 0C 00 00 00 69 6E 74 35 31 31 32 31 2E 62 6D 70 ....int51121.bmp
00427160 00 00 00 00 68 71 42 00 11 02 2E 32 04 00 00 00 ....hqB....2....
00427170 00 00 00 00 03 00 00 00 00 10 40 00 0C 72 65 73 ..........@..res
00427180 69 7A 65 66 72 61 6D 65 73 8D 40 00             izeframes.@.   

;; fn0042718C: 0042718C
;;   Called from:
;;     004277DD (in fn004277A4)
fn0042718C proc
	push	ebp
	mov	ebp,esp
	add	esp,DC
	push	ebx
	push	esi
	push	edi
	xor	ecx,ecx
	mov	[ebp-18],ecx
	mov	[ebp-08],edx
	mov	[ebp-04],eax
	xor	eax,eax
	push	ebp
	push	00427452
	push	dword ptr fs:[eax]
	mov	fs:[eax],esp
	cmp	dword ptr [ebp-04],00
	jz	00427436

l004271B8:
	mov	eax,[ebp-04]
	mov	edx,[eax]
	call	dword ptr [edx+2C]
	cmp	eax,[ebp-08]
	jge	00427436

l004271C9:
	mov	dl,01
	mov	eax,[0041CD1C]
	call	0041B01C
	mov	[ebp-0C],eax
	xor	edx,edx
	push	ebp
	push	0042742F
	push	dword ptr fs:[edx]
	mov	fs:[edx],esp
	mov	edx,[ebp-08]
	mov	eax,[ebp-0C]
	mov	ecx,[eax]
	call	dword ptr [ecx+40]
	mov	eax,[ebp-04]
	mov	edx,[eax]
	call	dword ptr [edx+20]
	mov	edx,eax
	mov	eax,[ebp-0C]
	mov	ecx,[eax]
	call	dword ptr [ecx+34]
	mov	eax,[ebp-04]
	call	0041B664
	mov	edx,eax
	mov	eax,[ebp-0C]
	call	0041C3E4
	mov	eax,[ebp-04]
	mov	edx,[eax]
	call	dword ptr [edx+24]
	mov	edx,eax
	mov	eax,[ebp-0C]
	mov	ecx,[eax]
	call	dword ptr [ecx+38]
	mov	eax,[ebp-08]
	test	eax,eax
	jns	00427233

l0042722E:
	add	eax,000003FF

l00427233:
	sar	eax,0A
	mov	[ebp-10],eax
	mov	eax,[ebp-08]
	and	eax,800003FF
	jns	0042724A

l00427243:
	dec	eax
	or	eax,FFFFFC00
	inc	eax

l0042724A:
	test	eax,eax
	jle	00427251

l0042724E:
	inc	dword ptr [ebp-10]

l00427251:
	dec	dword ptr [ebp-10]

l00427254:
	inc	dword ptr [ebp-10]
	mov	ebx,[ebp-10]
	add	ebx,ebx
	sub	ebx,02
	mov	esi,[ebp-10]
	shl	esi,0A
	sub	esi,[ebp-08]
	mov	eax,esi
	cdq
	idiv	ebx
	mov	edi,eax
	cmp	edi,64
	jle	00427254

l00427274:
	push	ebx
	lea	eax,[ebp-18]
	mov	ecx,00000001
	mov	edx,[00427164]
	call	00405470
	add	esp,04
	mov	eax,[ebp-18]
	call	0040529C
	test	eax,eax
	jl	004272B3

l00427297:
	inc	eax
	mov	[ebp-24],eax
	mov	dword ptr [ebp-14],00000000

l004272A2:
	mov	eax,[ebp-18]
	mov	edx,[ebp-14]
	mov	[eax+edx*4],edi
	inc	dword ptr [ebp-14]
	dec	dword ptr [ebp-24]
	jnz	004272A2

l004272B3:
	mov	eax,esi
	cdq
	idiv	ebx
	dec	edx
	test	edx,edx
	jl	004272D9

l004272BD:
	inc	edx
	mov	[ebp-24],edx
	mov	dword ptr [ebp-14],00000000

l004272C8:
	mov	eax,[ebp-18]
	mov	edx,[ebp-14]
	inc	dword ptr [eax+edx*4]
	inc	dword ptr [ebp-14]
	dec	dword ptr [ebp-24]
	jnz	004272C8

l004272D9:
	xor	eax,eax
	mov	[ebp-1C],eax
	mov	eax,[ebp-10]
	dec	eax
	test	eax,eax
	jl	004273CC

l004272EA:
	inc	eax
	mov	[ebp-24],eax
	mov	dword ptr [ebp-14],00000000
	mov	dl,01
	mov	eax,[0041CD1C]
	call	0041B01C
	mov	[ebp-20],eax
	xor	edx,edx
	push	ebp
	push	004273B9
	push	dword ptr fs:[edx]
	mov	fs:[edx],esp
	mov	edx,[ebp-04]
	mov	eax,[ebp-20]
	mov	ecx,[eax]
	call	dword ptr [ecx+08]
	mov	eax,[ebp-14]
	and	eax,80000001
	jns	0042732C

l00427327:
	dec	eax
	or	eax,FE
	inc	eax

l0042732C:
	dec	eax
	jnz	00427337

l0042732F:
	mov	eax,[ebp-20]
	call	0041CE08

l00427337:
	cmp	dword ptr [ebp-14],00
	jnz	0042734C

l0042733D:
	mov	eax,[ebp-18]
	mov	edx,[eax]
	mov	eax,[ebp-20]
	call	0041D068
	jmp	00427387

l0042734C:
	mov	eax,[ebp-10]
	dec	eax
	cmp	eax,[ebp-14]
	jnz	0042736D

l00427355:
	mov	eax,[ebp-18]
	call	0040529C
	mov	edx,[ebp-18]
	mov	edx,[edx+eax*4]
	mov	eax,[ebp-20]
	call	0041D010
	jmp	00427387

l0042736D:
	mov	eax,[ebp-14]
	add	eax,eax
	mov	edx,[ebp-18]
	mov	ecx,[edx+eax*4]
	mov	edx,[ebp-18]
	mov	edx,[edx+eax*4-04]
	mov	eax,[ebp-20]
	call	0041CF50

l00427387:
	mov	eax,[ebp-0C]
	push	eax
	xor	ecx,ecx
	mov	edx,[ebp-1C]
	mov	eax,[ebp-20]
	call	0041D1C8
	mov	eax,[ebp-20]
	mov	edx,[eax]
	call	dword ptr [edx+2C]
	add	[ebp-1C],eax
	xor	eax,eax
	pop	edx
	pop	ecx
	pop	ecx
	mov	fs:[eax],edx
	push	004273C0
	mov	eax,[ebp-20]
	call	00403720
	ret
004273B9                            E9 66 C8 FD FF EB F0          .f.....
004273C0 FF 45 EC FF 4D DC 0F 85 29 FF FF FF             .E..M...)...   

l004273CC:
	push	00
	lea	eax,[ebp-18]
	mov	ecx,00000001
	mov	edx,[00427164]
	call	00405470
	add	esp,04
	mov	edx,[ebp-0C]
	mov	eax,[ebp-04]
	mov	ecx,[eax]
	call	dword ptr [ecx+08]
	xor	eax,eax
	pop	edx
	pop	ecx
	pop	ecx
	mov	fs:[eax],edx
	push	00427436
	cmp	dword ptr [ebp-18],00
	jz	00427426

l00427402:
	mov	eax,[ebp-18]
	call	00405294
	test	eax,eax
	jle	00427426

l0042740E:
	push	00
	lea	eax,[ebp-18]
	mov	ecx,00000001
	mov	edx,[00427164]
	call	00405470
	add	esp,04

l00427426:
	mov	eax,[ebp-0C]
	call	00403720
	ret
0042742F                                              E9                .
00427430 F0 C7 FD FF EB C6                               ......         

l00427436:
	xor	eax,eax
	pop	edx
	pop	ecx
	pop	ecx
	mov	fs:[eax],edx
	push	00427459
	lea	eax,[ebp-18]
	mov	edx,[00427164]
	call	0040547C
	ret
00427452       E9 CD C7 FD FF EB EA 5F 5E 5B 8B E5 5D C3   ......._^[..].
00427460 64 74 42 00 11 02 2E 33 04 00 00 00 00 00 00 00 dtB....3........
00427470 03 00 00 00 00 10 40 00 0C 72 65 73 69 7A 65 66 ......@..resizef
00427480 72 61 6D 65 73 8D 40 00                         rames.@.       

;; fn00427488: 00427488
;;   Called from:
;;     004277E7 (in fn004277A4)
fn00427488 proc
	push	ebp
	mov	ebp,esp
	add	esp,CC
	push	ebx
	push	esi
	push	edi
	xor	ecx,ecx
	mov	[ebp-18],ecx
	mov	ebx,edx
	mov	[ebp-04],eax
	xor	eax,eax
	push	ebp
	push	00427794
	push	dword ptr fs:[eax]
	mov	fs:[eax],esp
	cmp	dword ptr [ebp-04],00
	jz	00427778

l004274B3:
	mov	eax,[ebp-04]
	mov	edx,[eax]
	call	dword ptr [edx+20]
	cmp	ebx,eax
	jz	00427778

l004274C3:
	mov	eax,[ebp-04]
	mov	edx,[eax]
	call	dword ptr [edx+20]
	cmp	ebx,eax
	jge	0042750B

l004274CF:
	push	ebx
	lea	eax,[ebp-34]
	push	eax
	mov	eax,[ebp-04]
	mov	edx,[eax]
	call	dword ptr [edx+2C]
	mov	ecx,eax
	xor	edx,edx
	xor	eax,eax
	call	00413CD0
	lea	eax,[ebp-34]
	push	eax
	mov	eax,[ebp-04]
	call	0041B578
	mov	ecx,[ebp-04]
	pop	edx
	call	00419164
	mov	edx,ebx
	mov	eax,[ebp-04]
	mov	ecx,[eax]
	call	dword ptr [ecx+34]
	jmp	00427778

l0042750B:
	mov	dl,01
	mov	eax,[0041CD1C]
	call	0041B01C
	mov	[ebp-08],eax
	xor	edx,edx
	push	ebp
	push	00427771
	push	dword ptr fs:[edx]
	mov	fs:[edx],esp
	mov	eax,[ebp-04]
	mov	edx,[eax]
	call	dword ptr [edx+2C]
	mov	edx,eax
	mov	eax,[ebp-08]
	mov	ecx,[eax]
	call	dword ptr [ecx+40]
	mov	edx,ebx
	mov	eax,[ebp-08]
	mov	ecx,[eax]
	call	dword ptr [ecx+34]
	mov	eax,[ebp-04]
	call	0041B664
	mov	edx,eax
	mov	eax,[ebp-08]
	call	0041C3E4
	mov	eax,[ebp-04]
	mov	edx,[eax]
	call	dword ptr [edx+24]
	mov	edx,eax
	mov	eax,[ebp-08]
	mov	ecx,[eax]
	call	dword ptr [ecx+38]
	mov	eax,ebx
	mov	ecx,00000300
	cdq
	idiv	ecx
	mov	[ebp-0C],eax
	mov	eax,ebx
	mov	ecx,00000300
	cdq
	idiv	ecx
	test	edx,edx
	jle	00427586

l00427583:
	inc	dword ptr [ebp-0C]

l00427586:
	dec	dword ptr [ebp-0C]

l00427589:
	inc	dword ptr [ebp-0C]
	mov	eax,[ebp-0C]
	add	eax,eax
	sub	eax,02
	mov	[ebp-10],eax
	mov	esi,[ebp-0C]
	shl	esi,08
	lea	esi,[esi+esi*2]
	sub	esi,ebx
	mov	eax,esi
	cdq
	idiv	dword ptr [ebp-10]
	mov	edi,eax
	cmp	edi,00000096
	jle	00427589

l004275B2:
	mov	eax,[ebp-10]
	push	eax
	lea	eax,[ebp-18]
	mov	ecx,00000001
	mov	edx,[00427460]
	call	00405470
	add	esp,04
	mov	eax,[ebp-18]
	call	0040529C
	test	eax,eax
	jl	004275F4

l004275D8:
	inc	eax
	mov	[ebp-24],eax
	mov	dword ptr [ebp-14],00000000

l004275E3:
	mov	eax,[ebp-18]
	mov	edx,[ebp-14]
	mov	[eax+edx*4],edi
	inc	dword ptr [ebp-14]
	dec	dword ptr [ebp-24]
	jnz	004275E3

l004275F4:
	mov	eax,esi
	cdq
	idiv	dword ptr [ebp-10]
	dec	edx
	test	edx,edx
	jl	0042761B

l004275FF:
	inc	edx
	mov	[ebp-24],edx
	mov	dword ptr [ebp-14],00000000

l0042760A:
	mov	eax,[ebp-18]
	mov	edx,[ebp-14]
	inc	dword ptr [eax+edx*4]
	inc	dword ptr [ebp-14]
	dec	dword ptr [ebp-24]
	jnz	0042760A

l0042761B:
	xor	eax,eax
	mov	[ebp-1C],eax
	mov	eax,[ebp-0C]
	dec	eax
	test	eax,eax
	jl	0042770E

l0042762C:
	inc	eax
	mov	[ebp-24],eax
	mov	dword ptr [ebp-14],00000000
	mov	dl,01
	mov	eax,[0041CD1C]
	call	0041B01C
	mov	[ebp-20],eax
	xor	edx,edx
	push	ebp
	push	004276FB
	push	dword ptr fs:[edx]
	mov	fs:[edx],esp
	mov	edx,[ebp-04]
	mov	eax,[ebp-20]
	mov	ecx,[eax]
	call	dword ptr [ecx+08]
	mov	eax,[ebp-14]
	and	eax,80000001
	jns	0042766E

l00427669:
	dec	eax
	or	eax,FE
	inc	eax

l0042766E:
	dec	eax
	jnz	00427679

l00427671:
	mov	eax,[ebp-20]
	call	0041CEC0

l00427679:
	cmp	dword ptr [ebp-14],00
	jnz	0042768E

l0042767F:
	mov	eax,[ebp-18]
	mov	edx,[eax]
	mov	eax,[ebp-20]
	call	0041D11C
	jmp	004276C9

l0042768E:
	mov	eax,[ebp-0C]
	dec	eax
	cmp	eax,[ebp-14]
	jnz	004276AF

l00427697:
	mov	eax,[ebp-18]
	call	0040529C
	mov	edx,[ebp-18]
	mov	edx,[edx+eax*4]
	mov	eax,[ebp-20]
	call	0041D0C4
	jmp	004276C9

l004276AF:
	mov	eax,[ebp-14]
	add	eax,eax
	mov	edx,[ebp-18]
	mov	ecx,[edx+eax*4]
	mov	edx,[ebp-18]
	mov	edx,[edx+eax*4-04]
	mov	eax,[ebp-20]
	call	0041CFB0

l004276C9:
	mov	eax,[ebp-08]
	push	eax
	mov	ecx,[ebp-1C]
	xor	edx,edx
	mov	eax,[ebp-20]
	call	0041D1C8
	mov	eax,[ebp-20]
	mov	edx,[eax]
	call	dword ptr [edx+20]
	add	[ebp-1C],eax
	xor	eax,eax
	pop	edx
	pop	ecx
	pop	ecx
	mov	fs:[eax],edx
	push	00427702
	mov	eax,[ebp-20]
	call	00403720
	ret
004276FB                                  E9 24 C5 FD FF            .$...
00427700 EB F0 FF 45 EC FF 4D DC 0F 85 29 FF FF FF       ...E..M...)... 

l0042770E:
	push	00
	lea	eax,[ebp-18]
	mov	ecx,00000001
	mov	edx,[00427460]
	call	00405470
	add	esp,04
	mov	edx,[ebp-08]
	mov	eax,[ebp-04]
	mov	ecx,[eax]
	call	dword ptr [ecx+08]
	xor	eax,eax
	pop	edx
	pop	ecx
	pop	ecx
	mov	fs:[eax],edx
	push	00427778
	cmp	dword ptr [ebp-18],00
	jz	00427768

l00427744:
	mov	eax,[ebp-18]
	call	00405294
	test	eax,eax
	jle	00427768

l00427750:
	push	00
	lea	eax,[ebp-18]
	mov	ecx,00000001
	mov	edx,[00427460]
	call	00405470
	add	esp,04

l00427768:
	mov	eax,[ebp-08]
	call	00403720
	ret
00427771    E9 AE C4 FD FF EB C6                          .......       

l00427778:
	xor	eax,eax
	pop	edx
	pop	ecx
	pop	ecx
	mov	fs:[eax],edx
	push	0042779B
	lea	eax,[ebp-18]
	mov	edx,[00427460]
	call	0040547C
	ret
00427794             E9 8B C4 FD FF EB EA 5F 5E 5B 8B E5     ......._^[..
004277A0 5D C3 8B C0                                     ]...           

;; fn004277A4: 004277A4
;;   Called from:
;;     00427BD6 (in Win32CrtStartup)
fn004277A4 proc
	push	ebp
	mov	ebp,esp
	push	ecx
	push	ebx
	push	esi
	push	edi
	mov	edi,ecx
	mov	esi,edx
	mov	ebx,eax
	mov	dl,01
	mov	eax,[0041CD1C]
	call	0041B01C
	mov	[ebp-04],eax
	xor	eax,eax
	push	ebp
	push	0042780C
	push	dword ptr fs:[eax]
	mov	fs:[eax],esp
	mov	edx,ebx
	mov	eax,[ebp-04]
	mov	ecx,[eax]
	call	dword ptr [ecx+4C]
	mov	edx,esi
	mov	eax,[ebp-04]
	call	0042718C
	mov	edx,edi
	mov	eax,[ebp-04]
	call	00427488
	mov	edx,ebx
	mov	eax,[ebp-04]
	mov	ecx,[eax]
	call	dword ptr [ecx+50]
	xor	eax,eax
	pop	edx
	pop	ecx
	pop	ecx
	mov	fs:[eax],edx
	push	00427813
	mov	eax,[ebp-04]
	call	00403720
	ret
0042780C                                     E9 13 C4 FD             ....
00427810 FF EB F0 5F 5E 5B 59 5D C3 8D 40 00 55 8B EC 33 ..._^[Y]..@.U..3
00427820 C0 55 68 3B 78 42 00 64 FF 30 64 89 20 33 C0 5A .Uh;xB.d.0d. 3.Z
00427830 59 59 64 89 10 68 42 78 42 00 C3 E9 E4 C3 FD FF YYd..hBxB.......
00427840 EB F8 5D C3 3A 00 00 00 4C 78 42 00 7C 63 40 00 ..].:...LxB.|c@.
00427850 4C 63 40 00 70 61 40 00 1C 61 40 00 D0 63 40 00 Lc@.pa@..a@..c@.
00427860 A0 63 40 00 FC 67 40 00 CC 67 40 00 34 68 40 00 .c@..g@..g@.4h@.
00427870 04 68 40 00 84 31 41 00 54 31 41 00 3C 6B 40 00 .h@..1A.T1A.<k@.
00427880 0C 6B 40 00 A0 CD 40 00 20 CC 40 00 0C D6 40 00 .k@...@. .@...@.
00427890 DC D5 40 00 1C 2F 41 00 A4 2E 41 00 68 30 41 00 ..@../A...A.h0A.
004278A0 38 30 41 00 EC 30 41 00 9C 30 41 00 90 6E 41 00 80A..0A..0A..nA.
004278B0 E0 6D 41 00 84 6F 41 00 54 6F 41 00 20 CC 41 00 .mA..oA.ToA. .A.
004278C0 4C CB 41 00 4C D2 41 00 1C D2 41 00 84 D2 41 00 L.A.L.A...A...A.
004278D0 54 D2 41 00 A8 D3 41 00 78 D3 41 00 70 63 42 00 T.A...A.x.A.pcB.
004278E0 30 63 42 00 C4 D9 41 00 88 D9 41 00 08 DC 41 00 0cB...A...A...A.
004278F0 CC DB 41 00 58 DC 41 00 28 DC 41 00 D4 DE 41 00 ..A.X.A.(.A...A.
00427900 98 DE 41 00 30 E1 41 00 F4 E0 41 00 CC 0A 42 00 ..A.0.A...A...B.
00427910 9C 0A 42 00 94 0A 42 00 64 0A 42 00 5C 0A 42 00 ..B...B.d.B.\.B.
00427920 2C 0A 42 00 2C FB 41 00 FC FA 41 00 24 0A 42 00 ,.B.,.A...A.$.B.
00427930 F4 09 42 00 04 0B 42 00 D4 0A 42 00 48 0D 42 00 ..B...B...B.H.B.
00427940 00 0D 42 00 60 0E 42 00 24 0E 42 00 7C F9 41 00 ..B.`.B.$.B.|.A.
00427950 40 F9 41 00 E0 FA 41 00 90 FA 41 00 54 F8 41 00 @.A...A...A.T.A.
00427960 04 F8 41 00 80 42 42 00 44 42 42 00 FC DF 41 00 ..A..BB.DBB...A.
00427970 C0 DF 41 00 8C 44 42 00 50 44 42 00 64 50 42 00 ..A..DB.PDB.dPB.
00427980 14 50 42 00 D4 3D 42 00 90 3D 42 00 E0 0C 42 00 .PB..=B..=B...B.
00427990 B0 0C 42 00 A8 0C 42 00 78 0C 42 00 58 0C 42 00 ..B...B.x.B.X.B.
004279A0 18 0C 42 00 3C 0B 42 00 0C 0B 42 00 80 19 42 00 ..B.<.B...B...B.
004279B0 40 19 42 00 4C 3B 42 00 70 3A 42 00 A4 3C 42 00 @.B.L;B.p:B..<B.
004279C0 68 3C 42 00 D0 4B 42 00 80 4B 42 00 BC 54 42 00 h<B..KB..KB..TB.
004279D0 80 54 42 00 3C D5 41 00 0C D5 41 00 58 41 42 00 .TB.<.A...A.XAB.
004279E0 1C 41 42 00 B4 5B 42 00 40 5B 42 00 2C 40 42 00 .AB..[B.@[B.,@B.
004279F0 F0 3F 42 00 00 3F 42 00 C4 3E 42 00 84 FB 41 00 .?B..?B..>B...A.
00427A00 54 FB 41 00 9C 09 42 00 1C 09 42 00 AC 6A 42 00 T.A...B...B..jB.
00427A10 5C 6A 42 00 00 00 00 00 1C 78 42 00             \jB......xB.   

;; Win32CrtStartup: 00427A1C
Win32CrtStartup proc
	push	ebp
	mov	ebp,esp
	add	esp,B4
	push	ebx
	push	esi
	push	edi
	xor	eax,eax
	mov	[ebp-4C],eax
	mov	[ebp-48],eax
	mov	[ebp-3C],eax
	mov	[ebp-40],eax
	mov	[ebp-44],eax
	mov	[ebp-28],eax
	mov	[ebp-34],eax
	mov	[ebp-38],eax
	mov	[ebp-14],eax
	mov	eax,[0042A8C0]
	mov	byte ptr [eax],01
	mov	eax,00427844
	call	00406308
	xor	eax,eax
	push	ebp
	push	00427C52
	push	dword ptr fs:[eax]
	mov	fs:[eax],esp
	push	00
	call	00406758
	mov	[0042D3C8],eax
	push	01
	call	00406758
	mov	[0042D3CC],eax
	lea	eax,[ebp-14]
	push	eax
	mov	eax,[0042D3C8]
	mov	[ebp-24],eax
	mov	byte ptr [ebp-20],00
	mov	eax,[0042D3CC]
	mov	[ebp-1C],eax
	mov	byte ptr [ebp-18],00
	lea	edx,[ebp-24]
	mov	ecx,00000001
	mov	eax,00427C6C
	call	00408704
	mov	edx,[ebp-14]
	mov	eax,[0042A710]
	call	00404894
	call	00403228
	call	00402B88
	mov	eax,[0042A710]
	mov	edx,00427C90
	call	00404894
	call	00403228
	call	00402B88
	mov	edx,[0042D3CC]
	mov	eax,[0042D3C8]
	call	00426AC8
	mov	dl,01
	mov	eax,[00413940]
	call	004036F0
	mov	[0042D3D0],eax
	xor	eax,eax
	push	ebp
	push	00427C20
	push	dword ptr fs:[eax]
	mov	fs:[eax],esp
	push	00
	mov	ecx,[0042D3D0]
	mov	edx,0000003F
	mov	eax,00427CAC
	call	004264A0
	mov	eax,[0042D3D0]
	mov	edx,[eax]
	call	dword ptr [edx+14]
	mov	esi,eax
	dec	esi
	test	esi,esi
	jl	00427C08

l00427B33:
	inc	esi
	xor	ebx,ebx

l00427B36:
	lea	eax,[ebp-28]
	push	eax
	lea	ecx,[ebp-38]
	mov	edx,ebx
	mov	eax,[0042D3D0]
	mov	edi,[eax]
	call	dword ptr [edi+0C]
	mov	eax,[ebp-38]
	lea	edx,[ebp-34]
	call	0040803C
	mov	eax,[ebp-34]
	mov	[ebp-30],eax
	mov	byte ptr [ebp-2C],0B
	lea	edx,[ebp-30]
	xor	ecx,ecx
	mov	eax,00427CC0
	call	00408704
	mov	edx,[ebp-28]
	mov	eax,[0042A710]
	call	00404894
	call	00403228
	call	00402B88
	lea	ecx,[ebp-44]
	mov	edx,ebx
	mov	eax,[0042D3D0]
	mov	edi,[eax]
	call	dword ptr [edi+0C]
	mov	eax,[ebp-44]
	lea	edx,[ebp-40]
	call	0040803C
	mov	eax,[ebp-40]
	lea	edx,[ebp-3C]
	call	004077C0
	mov	eax,[ebp-3C]
	mov	edx,00427CDC
	call	0040464C
	jnz	00427BDD

l00427BB8:
	lea	ecx,[ebp-48]
	mov	edx,ebx
	mov	eax,[0042D3D0]
	mov	edi,[eax]
	call	dword ptr [edi+0C]
	mov	eax,[ebp-48]
	mov	ecx,[0042D3CC]
	mov	edx,[0042D3C8]
	call	004277A4
	jmp	00427C00

l00427BDD:
	lea	ecx,[ebp-4C]
	mov	edx,ebx
	mov	eax,[0042D3D0]
	mov	edi,[eax]
	call	dword ptr [edi+0C]
	mov	eax,[ebp-4C]
	mov	ecx,[0042D3CC]
	mov	edx,[0042D3C8]
	call	00426C30

l00427C00:
	inc	ebx
	dec	esi
	jnz	00427B36

l00427C08:
	xor	eax,eax
	pop	edx
	pop	ecx
	pop	ecx
	mov	fs:[eax],edx
	push	00427C27
	mov	eax,[0042D3D0]
	call	00403720
	ret
00427C20 E9 FF BF FD FF EB EE 33 C0 5A 59 59 64 89 10 68 .......3.ZYYd..h
00427C30 59 7C 42 00 8D 45 B4 BA 07 00 00 00 E8 23 C6 FD Y|B..E.......#..
00427C40 FF 8D 45 D8 E8 F7 C5 FD FF 8D 45 EC E8 EF C5 FD ..E.......E.....
00427C50 FF C3 E9 CD BF FD FF EB DB 5F 5E 5B E8 E7 C4 FD ........._^[....
00427C60 FF 00 00 00 FF FF FF FF 19 00 00 00 43 75 72 72 ............Curr
00427C70 65 6E 74 20 72 65 73 6F 6C 75 74 69 6F 6E 3A 20 ent resolution: 
00427C80 25 64 78 25 64 00 00 00 FF FF FF FF 12 00 00 00 %dx%d...........
00427C90 47 65 6E 65 72 61 74 69 6E 67 20 6D 61 73 6B 2E Generating mask.
00427CA0 2E 2E 00 00 FF FF FF FF 08 00 00 00 69 6E 74 2A ............int*
00427CB0 2E 62 6D 70 00 00 00 00 FF FF FF FF 10 00 00 00 .bmp............
00427CC0 50 72 6F 63 65 73 73 69 6E 67 20 25 73 2E 2E 2E Processing %s...
00427CD0 00 00 00 00 FF FF FF FF 0C 00 00 00 69 6E 74 35 ............int5
00427CE0 30 31 30 31 2E 62 6D 70 00 00 00 00             0101.bmp....   
;;; Segment DATA (00428000)
00428000 00 00 00 00 00 00 00 00 02 8D 40 00 00 00 00 00 ..........@.....
00428010 00 00 00 00 00 00 00 00 00 00 00 00 00 00 00 00 ................
00428020 32 13 8B C0 02 00 8B C0 00 8D 40 00 00 8D 40 00 2.........@...@.
00428030 00 8D 40 00 01 8D 40 00 00 00 00 00 00 00 00 00 ..@...@.........
00428040 D4 23 40 00 80 25 40 00 5C 29 40 00 00 CB CC C8 .#@..%@.\)@.....
00428050 C9 D7 CF C8 CD CE DB D8 DA D9 CA DC DD DE DF E0 ................
00428060 E1 E3 00 E4 E5 8D 40 00 45 72 72 6F 72 00 8B C0 ......@.Error...
00428070 52 75 6E 74 69 6D 65 20 65 72 72 6F 72 20 20 20 Runtime error   
00428080 20 20 61 74 20 30 30 30 30 30 30 30 30 00 8B C0   at 00000000...
00428090 30 31 32 33 34 35 36 37 38 39 41 42 43 44 45 46 0123456789ABCDEF
004280A0 00 00 00 00 00 00 00 00 00 00 00 00 00 00 00 00 ................
; ...
004280D0 00 00 00 00 00 00 00 00 32 00 8B C0 1F 00 1C 00 ........2.......
004280E0 1F 00 1E 00 1F 00 1E 00 1F 00 1F 00 1E 00 1F 00 ................
004280F0 1E 00 1F 00 1F 00 1D 00 1F 00 1E 00 1F 00 1E 00 ................
00428100 1F 00 1F 00 1E 00 1F 00 1E 00 1F 00 00 00 00 00 ................
00428110 00 00 00 00 00 00 00 00 00 00 00 00 00 00 00 00 ................
00428120 00 00 00 00 00 00 00 00 00 00 00 00 BC 75 40 00 .............u@.
00428130 00 00 00 00 EC 7C 40 00 F8 7C 40 00 00 00 00 80 .....|@..|@.....
00428140 00 00 00 40 00 00 00 C0 00 00 00 00 00 00 00 00 ...@............
00428150 01 00 00 00 02 00 00 00 03 00 00 00 04 69 40 00 .............i@.
00428160 0C 69 40 00 00 00 40 76 3A 6B 0B DE 3A 40 8B C0 .i@...@v:k..:@..
00428170 0A 00 00 00 3F 13 8B C0 80 CB A4 4C 00 5C 26 05 ....?......L.\&.
00428180 25 2E 2A 64 DC 69 40 00 E4 69 40 00 EC 69 40 00 %.*d.i@..i@..i@.
00428190 F4 69 40 00 FC 69 40 00 04 6A 40 00 0C 6A 40 00 .i@..i@..j@..j@.
004281A0 14 6A 40 00 1C 6A 40 00 24 6A 40 00 2C 6A 40 00 .j@..j@.$j@.,j@.
004281B0 34 6A 40 00 3C 6A 40 00 44 6A 40 00 4C 6A 40 00 4j@.<j@.Dj@.Lj@.
004281C0 54 6A 40 00 5C 6A 40 00 64 6A 40 00 6C 6A 40 00 Tj@.\j@.dj@.lj@.
004281D0 74 6A 40 00 7C 6A 40 00 84 6A 40 00 8C 6A 40 00 tj@.|j@..j@..j@.
004281E0 94 6A 40 00 9C 6A 40 00 A4 6A 40 00 AC 6A 40 00 .j@..j@..j@..j@.
004281F0 B4 6A 40 00 BC 6A 40 00 C4 6A 40 00 CC 6A 40 00 .j@..j@..j@..j@.
00428200 D4 6A 40 00 DC 6A 40 00 E4 6A 40 00 EC 6A 40 00 .j@..j@..j@..j@.
00428210 F4 6A 40 00 FC 6A 40 00 04 6B 40 00 02 00 00 00 .j@..j@..k@.....
00428220 00 00 00 00 03 00 00 00 00 00 00 00 04 00 00 00 ................
00428230 00 00 00 00 05 00 00 00 00 00 00 00 64 00 00 00 ............d...
00428240 00 00 00 00 65 00 00 00 00 00 00 00 6A 00 00 00 ....e.......j...
00428250 00 00 00 00 48 6E 40 00 00 00 00 00 A0 6E 40 00 ....Hn@......n@.
00428260 00 00 00 00 F8 6E 40 00 00 00 00 00 AC 6F 40 00 .....n@......o@.
00428270 00 00 00 00 04 70 40 00 00 00 00 00 5C 70 40 00 .....p@.....\p@.
00428280 00 00 00 00 B4 70 40 00 00 00 00 00 68 71 40 00 .....p@.....hq@.
00428290 00 00 00 00 20 72 40 00 00 00 00 00 80 72 40 00 .... r@......r@.
004282A0 00 00 00 00 34 73 40 00 00 00 00 00 D8 72 40 00 ....4s@......r@.
004282B0 00 00 00 00 8C 73 40 00 00 00 00 00 8C 73 40 00 .....s@......s@.
004282C0 00 00 00 00 8C 73 40 00 00 00 00 00 8C 73 40 00 .....s@......s@.
004282D0 00 00 00 00 8C 73 40 00 00 00 00 00 8C 73 40 00 .....s@......s@.
004282E0 00 00 00 00 E8 73 40 00 00 00 00 00 90 6D 40 00 .....s@......m@.
004282F0 00 00 00 00 A4 74 40 00 00 00 00 00 58 75 40 00 .....t@.....Xu@.
00428300 00 00 00 00 C1 1E 59 20 00 00 00 00 57 00 07 80 ......Y ....W...
00428310 00 00 00 00 01 8D 40 00 00 00 00 00 00 8D 40 00 ......@.......@.
00428320 FF FF FF FF 38 28 41 00 48 28 41 00 58 28 41 00 ....8(A.H(A.X(A.
00428330 6C 28 41 00 7C 28 41 00 8C 28 41 00 9C 28 41 00 l(A.|(A..(A..(A.
00428340 B0 28 41 00 C0 28 41 00 D0 28 41 00 E4 28 41 00 .(A..(A..(A..(A.
00428350 F4 28 41 00 04 29 41 00 14 29 41 00 24 29 41 00 .(A..)A..)A.$)A.
00428360 34 29 41 00 40 29 41 00 54 29 41 00 64 29 41 00 4)A.@)A.T)A.d)A.
00428370 74 29 41 00 88 29 41 00 00 01 00 01 00 01 01 00 t)A..)A.........
00428380 00 01 01 00 00 00 01 00 01 01 8B C0 78 30 41 00 ............x0A.
00428390 88 30 41 00 98 30 41 00 00 00 00 00 00 00 00 00 .0A..0A.........
004283A0 00 00 00 00 00 00 00 00 00 00 00 00 00 00 00 00 ................
004283B0 00 00 00 00 00 00 01 0D 4D 53 20 53 61 6E 73 20 ........MS Sans 
004283C0 53 65 72 69 66 00 00 00 00 00 00 00 00 00 00 00 Serif...........
004283D0 00 00 00 00 00 00 00 00 00 8D 40 00 00 00 00 00 ..........@.....
004283E0 9C 7E 41 00 80 00 00 00 AC 7E 41 00 00 80 00 00 .~A......~A.....
004283F0 C0 7E 41 00 80 80 00 00 D0 7E 41 00 00 00 80 00 .~A......~A.....
00428400 E0 7E 41 00 80 00 80 00 F0 7E 41 00 00 80 80 00 .~A......~A.....
00428410 04 7F 41 00 80 80 80 00 14 7F 41 00 C0 C0 C0 00 ..A.......A.....
00428420 24 7F 41 00 FF 00 00 00 38 7F 41 00 00 FF 00 00 $.A.....8.A.....
00428430 48 7F 41 00 FF FF 00 00 58 7F 41 00 00 00 FF 00 H.A.....X.A.....
00428440 6C 7F 41 00 FF 00 FF 00 7C 7F 41 00 00 FF FF 00 l.A.....|.A.....
00428450 90 7F 41 00 FF FF FF 00 A0 7F 41 00 C0 DC C0 00 ..A.......A.....
00428460 B0 7F 41 00 A6 CA F0 00 C8 7F 41 00 FF FB F0 00 ..A.......A.....
00428470 DC 7F 41 00 A0 A0 A4 00 EC 7F 41 00 0A 00 00 FF ..A.......A.....
00428480 00 80 41 00 02 00 00 FF 18 80 41 00 0C 00 00 FF ..A.......A.....
00428490 30 80 41 00 01 00 00 FF 48 80 41 00 0F 00 00 FF 0.A.....H.A.....
004284A0 60 80 41 00 14 00 00 FF 74 80 41 00 10 00 00 FF `.A.....t.A.....
004284B0 8C 80 41 00 12 00 00 FF A0 80 41 00 09 00 00 FF ..A.......A.....
004284C0 B4 80 41 00 00 00 00 20 CC 80 41 00 1B 00 00 FF ..A.... ..A.....
004284D0 E0 80 41 00 1C 00 00 FF 00 81 41 00 11 00 00 FF ..A.......A.....
004284E0 24 81 41 00 0D 00 00 FF 38 81 41 00 0E 00 00 FF $.A.....8.A.....
004284F0 4C 81 41 00 1A 00 00 FF 64 81 41 00 0B 00 00 FF L.A.....d.A.....
00428500 78 81 41 00 03 00 00 FF 94 81 41 00 13 00 00 FF x.A.......A.....
00428510 B0 81 41 00 18 00 00 FF D0 81 41 00 17 00 00 FF ..A.......A.....
00428520 E4 81 41 00 04 00 00 FF F8 81 41 00 1E 00 00 FF ..A.......A.....
00428530 08 82 41 00 1D 00 00 FF 1C 82 41 00 07 00 00 FF ..A.......A.....
00428540 34 82 41 00 FF FF FF 1F 48 82 41 00 00 00 00 FF 4.A.....H.A.....
00428550 58 82 41 00 15 00 00 FF 6C 82 41 00 16 00 00 FF X.A.....l.A.....
00428560 84 82 41 00 05 00 00 FF 98 82 41 00 06 00 00 FF ..A.......A.....
00428570 AC 82 41 00 08 00 00 FF C4 82 41 00 00 00 00 00 ..A.......A.....
00428580 40 83 41 00 01 00 00 00 58 83 41 00 02 00 00 00 @.A.....X.A.....
00428590 70 83 41 00 4D 00 00 00 88 83 41 00 80 00 00 00 p.A.M.....A.....
004285A0 9C 83 41 00 81 00 00 00 B8 83 41 00 82 00 00 00 ..A.......A.....
004285B0 D0 83 41 00 86 00 00 00 E8 83 41 00 88 00 00 00 ..A.......A.....
004285C0 00 84 41 00 A1 00 00 00 1C 84 41 00 A2 00 00 00 ..A.......A.....
004285D0 34 84 41 00 B1 00 00 00 4C 84 41 00 B2 00 00 00 4.A.....L.A.....
004285E0 64 84 41 00 BA 00 00 00 7C 84 41 00 CC 00 00 00 d.A.....|.A.....
004285F0 94 84 41 00 DE 00 00 00 AC 84 41 00 EE 00 00 00 ..A.......A.....
00428600 C4 84 41 00 FF 00 00 00 E0 84 41 00 00 00 00 00 ..A.......A.....
00428610 00 00 00 00 01 00 00 00 00 00 00 00 00 00 01 00 ................
00428620 02 00 03 00 04 00 05 00 06 00 8B C0 00 00 00 00 ................
00428630 FF FF FF 00 00 00 00 00 00 00 00 00 01 00 10 00 ................
00428640 0B 00 06 00 0D 00 04 00 0E 00 05 00 0C 00 03 00 ................
00428650 0F 00 02 00 09 00 08 00 07 00 0A 00 00 00 00 00 ................
00428660 00 00 00 00 00 00 00 00 04 03 8B C0 01 04 08 10 ................
00428670 10 18 20 90 04 03 8B C0 00 00 00 00 80 00 00 00 .. .............
00428680 00 80 00 00 80 80 00 00 00 00 80 00 80 00 80 00 ................
00428690 00 80 80 00 80 80 80 00 C0 C0 C0 00 FF 00 00 00 ................
004286A0 00 FF 00 00 FF FF 00 00 00 00 FF 00 FF 00 FF 00 ................
004286B0 00 FF FF 00 FF FF FF 00 B4 D8 41 00 24 D9 41 00 ..........A.$.A.
004286C0 38 D9 41 00 70 D9 41 00 84 D9 41 00 00 00 00 00 8.A.p.A...A.....
004286D0 C0 DA 41 00 2C DB 41 00 40 DB 41 00 78 DB 41 00 ..A.,.A.@.A.x.A.
004286E0 8C DB 41 00 00 00 00 00 D0 DC 41 00 3C DD 41 00 ..A.......A.<.A.
004286F0 50 DD 41 00 88 DD 41 00 00 00 00 00 00 00 00 00 P.A...A.........
00428700 F0 DE 41 00 5C DF 41 00 70 DF 41 00 A8 DF 41 00 ..A.\.A.p.A...A.
00428710 BC DF 41 00 00 00 00 00 18 E0 41 00 90 E0 41 00 ..A.......A...A.
00428720 A4 E0 41 00 DC E0 41 00 F0 E0 41 00 00 00 00 00 ..A...A...A.....
00428730 7C E1 41 00 C4 02 E8 04 90 E1 41 00 D0 02 E8 04 |.A.......A.....
00428740 A0 E1 41 00 B4 6F E8 04 B4 E1 41 00 B4 6F E8 04 ..A..o....A..o..
00428750 C4 E1 41 00 B4 6F E8 04 E0 E1 41 00 B4 6F E8 04 ..A..o....A..o..
00428760 F4 E1 41 00 B4 6F E8 04 08 E2 41 00 B4 6F E8 04 ..A..o....A..o..
00428770 20 E2 41 00 B4 6F E8 04 34 E2 41 00 14 27 E8 04  .A..o..4.A..'..
00428780 4C E2 41 00 E8 04 E8 04 64 E2 41 00 E8 04 E8 04 L.A.....d.A.....
00428790 74 E2 41 00 07 03 E9 04 84 E2 41 00 07 03 E9 04 t.A.......A.....
004287A0 94 E2 41 00 B2 6F E9 04 A8 E2 41 00 B2 6F E9 04 ..A..o....A..o..
004287B0 BC E2 41 00 B2 6F E9 04 D0 E2 41 00 B2 6F E9 04 ..A..o....A..o..
004287C0 E8 E2 41 00 B2 6F E9 04 FC E2 41 00 B2 6F E9 04 ..A..o....A..o..
004287D0 08 E3 41 00 B2 6F E9 04 18 E3 41 00 E9 04 E9 04 ..A..o....A.....
004287E0 30 E3 41 00 54 03 E2 04 40 E3 41 00 54 03 E2 04 0.A.T...@.A.T...
004287F0 50 E3 41 00 B0 6F E2 04 64 E3 41 00 B0 6F E2 04 P.A..o..d.A..o..
00428800 78 E3 41 00 B0 6F E2 04 8C E3 41 00 B0 6F E2 04 x.A..o....A..o..
00428810 A4 E3 41 00 B0 6F E2 04 B8 E3 41 00 B0 6F E2 04 ..A..o....A..o..
00428820 CC E3 41 00 B0 6F E2 04 D8 E3 41 00 B0 6F E2 04 ..A..o....A..o..
00428830 E8 E3 41 00 2D 27 E2 04 FC E3 41 00 E2 04 E2 04 ..A.-'....A.....
00428840 14 E4 41 00 E2 04 E2 04 28 E4 41 00 E0 CA A8 03 ..A.....(.A.....
00428850 38 E4 41 00 E0 CA A8 03 4C E4 41 00 A8 03 A8 03 8.A.....L.A.....
00428860 5C E4 41 00 A8 03 A8 03 6C E4 41 00 A8 03 A8 03 \.A.....l.A.....
00428870 7C E4 41 00 A8 03 A8 03 90 E4 41 00 A8 03 A8 03 |.A.......A.....
00428880 A4 E4 41 00 A8 03 A8 03 BC E4 41 00 A8 03 A8 03 ..A.......A.....
00428890 D0 E4 41 00 A8 03 A8 03 E4 E4 41 00 A8 03 A8 03 ..A.......A.....
004288A0 F8 E4 41 00 A8 03 A8 03 04 E5 41 00 A8 03 A8 03 ..A.......A.....
004288B0 18 E5 41 00 C8 CE A8 03 2C E5 41 00 18 27 A8 03 ..A.....,.A..'..
004288C0 48 E5 41 00 B6 03 B6 03 58 E5 41 00 B6 03 B6 03 H.A.....X.A.....
004288D0 68 E5 41 00 B6 03 B6 03 78 E5 41 00 B6 03 B6 03 h.A.....x.A.....
004288E0 8C E5 41 00 B6 03 B6 03 9C E5 41 00 20 4E B6 03 ..A.......A. N..
004288F0 B4 E5 41 00 22 4E B6 03 CC E5 41 00 12 27 B6 03 ..A."N....A..'..
00428900 E8 E5 41 00 62 03 E3 04 F8 E5 41 00 62 03 E3 04 ..A.b.....A.b...
00428910 08 E6 41 00 B3 6F E3 04 1C E6 41 00 B3 6F E3 04 ..A..o....A..o..
00428920 38 E6 41 00 B3 6F E3 04 4C E6 41 00 B3 6F E3 04 8.A..o..L.A..o..
00428930 60 E6 41 00 B3 6F E3 04 78 E6 41 00 B3 6F E3 04 `.A..o..x.A..o..
00428940 8C E6 41 00 82 51 E3 04 9C E6 41 00 82 51 E3 04 ..A..Q....A..Q..
00428950 AC E6 41 00 82 51 E3 04 B8 E6 41 00 82 51 E3 04 ..A..Q....A..Q..
00428960 C8 E6 41 00 82 51 E3 04 D8 E6 41 00 6A 55 E3 04 ..A..Q....A.jU..
00428970 E8 E6 41 00 6A 55 E3 04 F8 E6 41 00 17 27 E3 04 ..A.jU....A..'..
00428980 10 E7 41 00 E3 04 E3 04 28 E7 41 00 E3 04 E3 04 ..A.....(.A.....
00428990 3C E7 41 00 49 71 E4 04 50 E7 41 00 8A 4E E4 04 <.A.Iq..P.A..N..
004289A0 68 E7 41 00 E1 02 E5 04 78 E7 41 00 B5 6F E5 04 h.A.....x.A..o..
004289B0 8C E7 41 00 B5 6F E5 04 A4 E7 41 00 B5 6F E5 04 ..A..o....A..o..
004289C0 B8 E7 41 00 B5 6F E5 04 CC E7 41 00 B5 6F E5 04 ..A..o....A..o..
004289D0 DC E7 41 00 B5 6F E5 04 EC E7 41 00 B5 6F E5 04 ..A..o....A..o..
004289E0 00 E8 41 00 B5 6F E5 04 18 E8 41 00 B5 6F E5 04 ..A..o....A..o..
004289F0 2C E8 41 00 16 27 E5 04 40 E8 41 00 E5 04 E5 04 ,.A..'..@.A.....
00428A00 58 E8 41 00 65 03 E5 04 68 E8 41 00 5E 03 E7 04 X.A.e...h.A.^...
00428A10 78 E8 41 00 C6 96 E7 04 90 E8 41 00 C6 96 E7 04 x.A.......A.....
00428A20 A0 E8 41 00 B6 6F E7 04 B4 E8 41 00 B6 6F E7 04 ..A..o....A..o..
00428A30 D0 E8 41 00 B6 6F E7 04 E0 E8 41 00 B6 6F E7 04 ..A..o....A..o..
00428A40 F4 E8 41 00 B6 6F E7 04 0C E9 41 00 B6 6F E7 04 ..A..o....A..o..
00428A50 20 E9 41 00 B6 6F E7 04 34 E9 41 00 B6 6F E7 04  .A..o..4.A..o..
00428A60 44 E9 41 00 15 27 E7 04 5C E9 41 00 E7 04 E7 04 D.A..'..\.A.....
00428A70 74 E9 41 00 E7 04 E7 04 84 E9 41 00 E7 04 E7 04 t.A.......A.....
00428A80 0C E9 41 00 E7 04 E7 04 34 E9 41 00 E7 04 E7 04 ..A.....4.A.....
00428A90 9C E9 41 00 C4 4F E8 04 B4 E9 41 00 90 51 E3 04 ..A..O....A..Q..
00428AA0 D8 E9 41 00 21 52 E3 04 04 EA 41 00 35 4F E4 04 ..A.!R....A.5O..
00428AB0 24 EA 41 00 76 04 E4 04 48 EA 41 00 36 4F E4 04 $.A.v...H.A.6O..
00428AC0 68 EA 41 00 77 04 E4 04 8C EA 41 00 77 04 E4 04 h.A.w.....A.w...
00428AD0 A4 EA 41 00 7B 04 E4 04 C4 EA 41 00 31 4F E4 04 ..A.{.....A.1O..
00428AE0 E0 EA 41 00 75 04 E4 04 00 EB 41 00 6B 03 E5 04 ..A.u.....A.k...
00428AF0 20 EB 41 00 C7 4F E5 04 38 EB 41 00 C8 4F E7 04  .A..O..8.A..O..
00428B00 50 EB 41 00 87 51 E4 04 6C EB 41 00 7D 04 E4 04 P.A..Q..l.A.}...
00428B10 8C EB 41 00 7C 04 E4 04 B0 EB 41 00 38 4F E4 04 ..A.|.....A.8O..
00428B20 C8 EB 41 00 78 04 E4 04 E4 EB 41 00 F2 C6 A4 03 ..A.x.....A.....
00428B30 08 EC 41 00 FB C6 A4 03 34 EC 41 00 F3 C6 A4 03 ..A.....4.A.....
00428B40 5C EC 41 00 42 4F A4 03 80 EC 41 00 F5 C6 B5 03 \.A.BO....A.....
00428B50 AC EC 41 00 61 51 B5 03 CC EC 41 00 66 03 E2 04 ..A.aQ....A.f...
00428B60 DC EC 41 00 F7 C6 A8 03 00 ED 41 00 3C 4F E4 04 ..A.......A.<O..
00428B70 18 ED 41 00 79 04 E4 04 34 ED 41 00 66 51 6A 03 ..A.y...4.A.fQj.
00428B80 4C ED 41 00 F9 C6 B6 03 70 ED 41 00 02 04 E6 04 L.A.....p.A.....
00428B90 80 ED 41 00 A9 51 E6 04 9C ED 41 00 3D 4F E4 04 ..A..Q....A.=O..
00428BA0 B0 ED 41 00 7A 04 E4 04 CC ED 41 00 25 00 E4 04 ..A.z.....A.%...
00428BB0 E4 ED 41 00 74 04 E4 04 00 EE 41 00 5D 03 E4 04 ..A.t.....A.]...
00428BC0 10 EE 41 00 5F 27 E4 04 28 EE 41 00 AE DE AE DE ..A._'..(.A.....
00428BD0 3C EE 41 00 AB DE AB DE 50 EE 41 00 AA DE AA DE <.A.....P.A.....
00428BE0 64 EE 41 00 B2 DE B2 DE 78 EE 41 00 B0 DE B0 DE d.A.....x.A.....
00428BF0 8C EE 41 00 B1 DE B1 DE A0 EE 41 00 AF DE AF DE ..A.......A.....
00428C00 B4 EE 41 00 B3 DE B3 DE C8 EE 41 00 AC DE AC DE ..A.......A.....
00428C10 DC EE 41 00 AD DE AD DE F0 EE 41 00 DC CA A4 03 ..A.......A.....
00428C20 00 EF 41 00 DC CA A4 03 1C EF 41 00 DC CA A4 03 ..A.......A.....
00428C30 54 EF 41 00 DC CA A4 03 64 EF 41 00 DC CA A4 03 T.A.....d.A.....
00428C40 78 EF 41 00 2C C4 A4 03 78 EF 41 00 2E C4 A4 03 x.A.,...x.A.....
00428C50 8C EF 41 00 2E C4 A4 03 A8 EF 41 00 2D C4 A4 03 ..A.......A.-...
00428C60 BC EF 41 00 2D C4 A4 03 D4 EF 41 00 11 27 A4 03 ..A.-.....A..'..
00428C70 EC EF 41 00 A4 03 A4 03 00 F0 41 00 A4 03 A4 03 ..A.......A.....
00428C80 14 F0 41 00 A4 03 A4 03 2C F0 41 00 A4 03 A4 03 ..A.....,.A.....
00428C90 40 F0 41 00 A4 03 A4 03 54 F0 41 00 A4 03 A4 03 @.A.....T.A.....
00428CA0 68 F0 41 00 A4 03 A4 03 78 F0 41 00 A4 03 A4 03 h.A.....x.A.....
00428CB0 88 F0 41 00 B5 03 B5 03 A0 F0 41 00 B5 03 B5 03 ..A.......A.....
00428CC0 B8 F0 41 00 B5 03 B5 03 C8 F0 41 00 B5 03 B5 03 ..A.......A.....
00428CD0 DC F0 41 00 B5 03 B5 03 EC F0 41 00 B5 03 B5 03 ..A.......A.....
00428CE0 00 F1 41 00 B5 03 B5 03 18 F1 41 00 B5 03 B5 03 ..A.......A.....
00428CF0 30 F1 41 00 B5 03 B5 03 44 F1 41 00 B5 03 B5 03 0.A.....D.A.....
00428D00 B8 F0 41 00 ED CA B5 03 54 F1 41 00 ED CA B5 03 ..A.....T.A.....
00428D10 64 F1 41 00 31 C4 B5 03 78 F1 41 00 31 C4 B5 03 d.A.1...x.A.1...
00428D20 8C F1 41 00 51 05 51 05 9C F1 41 00 13 27 B5 03 ..A.Q.Q...A..'..
00428D30 B4 F1 41 00 B1 6F E6 04 C8 F1 41 00 B1 6F E6 04 ..A..o....A..o..
00428D40 DC F1 41 00 B1 6F E6 04 F0 F1 41 00 B1 6F E6 04 ..A..o....A..o..
00428D50 08 F2 41 00 B1 6F E6 04 1C F2 41 00 B1 6F E6 04 ..A..o....A..o..
00428D60 28 F2 41 00 B1 6F E6 04 38 F2 41 00 BD 6F E4 04 (.A..o..8.A..o..
00428D70 4C F2 41 00 BD 6F E4 04 60 F2 41 00 BD 6F E4 04 L.A..o..`.A..o..
00428D80 74 F2 41 00 BD 6F E4 04 80 F2 41 00 BD 6F E4 04 t.A..o....A..o..
00428D90 90 F2 41 00 8C 4E E4 04 A8 F2 41 00 B5 01 E4 04 ..A..N....A.....
00428DA0 B8 F2 41 00 B5 01 E4 04 C4 F2 41 00 B5 01 E4 04 ..A.......A.....
00428DB0 D4 F2 41 00 B5 01 E4 04 E4 F2 41 00 B5 01 E4 04 ..A.......A.....
00428DC0 F8 F2 41 00 8B 4E E4 04 10 F3 41 00 6A 03 6A 03 ..A..N....A.j.j.
00428DD0 24 F3 41 00 6A 03 6A 03 34 F3 41 00 6A 03 6A 03 $.A.j.j.4.A.j.j.
00428DE0 48 F3 41 00 6A 03 6A 03 58 F3 41 00 59 03 E6 04 H.A.j.j.X.A.Y...
00428DF0 68 F3 41 00 B7 6F E6 04 7C F3 41 00 B7 6F E6 04 h.A..o..|.A..o..
00428E00 90 F3 41 00 B7 6F E6 04 A4 F3 41 00 B7 6F E6 04 ..A..o....A..o..
00428E10 BC F3 41 00 B7 6F E6 04 D0 F3 41 00 B7 6F E6 04 ..A..o....A..o..
00428E20 DC F3 41 00 B7 6F E6 04 EC F3 41 00 61 27 E6 04 ..A..o....A.a'..
00428E30 04 F4 41 00 E6 04 E6 04 90 F3 41 00 E6 04 E6 04 ..A.......A.....
00428E40 A4 F3 41 00 E6 04 E6 04 68 F3 41 00 E6 04 E6 04 ..A.....h.A.....
00428E50 BC F3 41 00 E6 04 E6 04 1C F4 41 00 B0 04 B0 04 ..A.......A.....
00428E60 2C F4 41 00 B0 04 B0 04 3C F4 41 00 B1 04 B0 04 ,.A.....<.A.....
00428E70 50 F4 41 00 E8 FD B0 04 60 F4 41 00 E8 FD B0 04 P.A.....`.A.....
00428E80 78 F4 41 00 E8 FD B0 04 94 F4 41 00 E8 FD B0 04 x.A.......A.....
00428E90 B0 F4 41 00 E9 FD B0 04 C0 F4 41 00 E9 FD B0 04 ..A.......A.....
00428EA0 DC F4 41 00 E9 FD B0 04 F8 F4 41 00 E9 FD B0 04 ..A.......A.....
00428EB0 14 F5 41 00 9F 4E E4 04 28 F5 41 00 9F 4E E4 04 ..A..N..(.A..N..
00428EC0 40 F5 41 00 9F 4E E4 04 58 F5 41 00 9F 4E E4 04 @.A..N..X.A..N..
00428ED0 68 F5 41 00 9F 4E E4 04 78 F5 41 00 9F 4E E4 04 h.A..N..x.A..N..
00428EE0 88 F5 41 00 9F 4E E4 04 98 F5 41 00 9F 4E E4 04 ..A..N....A..N..
00428EF0 B4 F5 41 00 9F 4E E4 04 C8 F5 41 00 9F 4E E4 04 ..A..N....A..N..
00428F00 DC F5 41 00 EA 04 EA 04 F4 F5 41 00 52 03 E4 04 ..A.......A.R...
00428F10 04 F6 41 00 89 4E E4 04 14 F6 41 00 AF 6F E4 04 ..A..N....A..o..
00428F20 28 F6 41 00 AF 6F E4 04 38 F6 41 00 AF 6F E4 04 (.A..o..8.A..o..
00428F30 4C F6 41 00 AF 6F E4 04 5C F6 41 00 AF 6F E4 04 L.A..o..\.A..o..
00428F40 70 F6 41 00 AF 6F E4 04 88 F6 41 00 AF 6F E4 04 p.A..o....A..o..
00428F50 9C F6 41 00 AF 6F E4 04 B0 F6 41 00 AF 6F E4 04 ..A..o....A..o..
00428F60 BC F6 41 00 AF 6F E4 04 CC F6 41 00 10 27 E4 04 ..A..o....A..'..
00428F70 E0 F6 41 00 E4 04 E4 04 28 F5 41 00 E4 04 E4 04 ..A.....(.A.....
00428F80 40 F5 41 00 E4 04 E4 04 F8 F6 41 00 E4 04 E4 04 @.A.......A.....
00428F90 58 F5 41 00 E4 04 E4 04 68 F5 41 00 E4 04 E4 04 X.A.....h.A.....
00428FA0 28 F6 41 00 E4 04 E4 04 78 F5 41 00 E4 04 E4 04 (.A.....x.A.....
00428FB0 88 F5 41 00 E4 04 E4 04 4C F6 41 00 E4 04 E4 04 ..A.....L.A.....
00428FC0 98 F5 41 00 E4 04 E4 04 5C F6 41 00 E4 04 E4 04 ..A.....\.A.....
00428FD0 70 F6 41 00 E4 04 E4 04 B4 F5 41 00 E4 04 E4 04 p.A.......A.....
00428FE0 88 F6 41 00 E4 04 E4 04 14 F6 41 00 E4 04 E4 04 ..A.......A.....
00428FF0 9C F6 41 00 E4 04 E4 04 08 F7 41 00 E4 04 E4 04 ..A.......A.....
00429000 BC F6 41 00 E4 04 E4 04 1C F7 41 00 E4 04 E4 04 ..A.......A.....
00429010 14 F5 41 00 E4 04 E4 04 28 F7 41 00 E4 04 E4 04 ..A.....(.A.....
00429020 30 F7 41 00 A0 F7 41 00 B4 F7 41 00 EC F7 41 00 0.A...A...A...A.
00429030 00 F8 41 00 00 00 00 00 70 F8 41 00 DC F8 41 00 ..A.....p.A...A.
00429040 F0 F8 41 00 28 F9 41 00 3C F9 41 00 00 00 00 00 ..A.(.A.<.A.....
00429050 98 F9 41 00 04 FA 41 00 18 FA 41 00 50 FA 41 00 ..A...A...A.P.A.
00429060 64 FA 41 00 00 00 00 00 70 FA 41 00 84 FA 41 00 d.A.....p.A...A.
00429070 00 00 00 00 00 00 00 00 00 00 00 00 00 00 00 00 ................
00429080 00 00 00 00 00 00 00 00 FF FF FF FF 00 00 00 00 ................
00429090 BC FC 41 00 D0 FC 41 00 E0 FC 41 00 F0 FC 41 00 ..A...A...A...A.
004290A0 44 0B 42 00 AC 0B 42 00 C0 0B 42 00 F8 0B 42 00 D.B...B...B...B.
004290B0 0C 0C 42 00 00 00 00 00 F0 0C 42 00 FC 0C 42 00 ..B.......B...B.
004290C0 50 0D 42 00 C0 0D 42 00 D4 0D 42 00 0C 0E 42 00 P.B...B...B...B.
004290D0 20 0E 42 00 00 00 00 00 00 8D 40 00 00 8D 40 00  .B.......@...@.
004290E0 00 8D 40 00 00 8D 40 00 00 8D 40 00 00 8D 40 00 ..@...@...@...@.
004290F0 00 8D 40 00 00 8D 40 00 00 8D 40 00 00 8D 40 00 ..@...@...@...@.
00429100 00 8D 40 00 00 8D 40 00 00 8D 40 00 00 8D 40 00 ..@...@...@...@.
00429110 00 8D 40 00 00 8D 40 00 00 8D 40 00 00 8D 40 00 ..@...@...@...@.
00429120 00 8D 40 00 00 8D 40 00 00 8D 40 00 00 8D 40 00 ..@...@...@...@.
00429130 00 08 00 00 00 00 00 00 00 00 00 00 00 00 00 00 ................
00429140 64 D5 41 00 01 00 00 00 04 00 00 00 04 00 00 00 d.A.............
00429150 20 00 00 00 6C D5 41 00 02 00 00 00 00 10 00 00  ...l.A.........
00429160 04 00 00 00 02 00 00 00 74 D5 41 00 03 01 00 00 ........t.A.....
00429170 04 00 00 00 04 00 00 00 40 00 00 00 7C D5 41 00 ........@...|.A.
00429180 04 01 00 00 00 10 00 00 04 00 00 00 08 00 00 00 ................
00429190 84 D5 41 00 05 01 00 00 00 10 00 00 04 00 00 00 ..A.............
004291A0 20 00 00 00 8C D5 41 00 06 02 00 00 08 00 00 00  .....A.........
004291B0 04 20 00 00 00 00 00 00 94 D5 41 00 08 02 00 00 . ........A.....
004291C0 10 00 00 00 04 20 00 00 00 00 00 00 9C D5 41 00 ..... ........A.
004291D0 09 02 00 00 20 00 00 00 04 40 00 00 00 00 00 00 .... ....@......
004291E0 A4 D5 41 00 0A 03 00 00 08 00 00 00 02 20 00 00 ..A.......... ..
004291F0 00 00 00 00 AC D5 41 00 0B 00 00 00 04 00 00 00 ......A.........
00429200 04 00 00 00 04 00 00 00 B4 D5 41 00 0C 03 00 00 ..........A.....
00429210 10 00 00 00 04 20 00 00 00 00 00 00 BC D5 41 00 ..... ........A.
00429220 0D 03 00 00 10 00 00 00 04 40 00 00 00 00 00 00 .........@......
00429230 C4 D5 41 00 0E 03 00 00 18 00 00 00 04 40 00 00 ..A..........@..
00429240 00 00 00 00 CC D5 41 00 21 04 00 00 00 01 00 00 ......A.!.......
00429250 04 40 00 00 00 00 00 00 D4 D5 41 00 22 06 00 00 .@........A."...
00429260 00 02 00 00 04 40 02 00 00 00 00 00 DC D5 41 00 .....@........A.
00429270 23 06 00 00 00 04 00 00 08 40 02 00 00 00 00 00 #........@......
00429280 E4 D5 41 00 25 06 00 00 00 08 00 00 08 40 02 00 ..A.%........@..
00429290 00 00 00 00 EC D5 41 00 29 06 00 00 00 10 00 00 ......A.).......
004292A0 08 40 02 00 00 00 00 00 F4 D5 41 00 2C 03 00 00 .@........A.,...
004292B0 20 00 00 00 08 40 00 00 00 00 00 00 FC D5 41 00  ....@........A.
004292C0 30 02 00 00 20 00 00 00 08 40 00 00 00 00 00 00 0... ....@......
004292D0 04 D6 41 00 39 04 00 00 80 00 00 00 04 40 00 00 ..A.9........@..
004292E0 00 00 00 00 0C D6 41 00 3A 04 00 00 C0 00 00 00 ......A.:.......
004292F0 06 40 00 00 00 00 00 00 14 D6 41 00 3B 04 00 00 .@........A.;...
00429300 80 00 00 00 02 40 00 00 00 00 00 00 1C D6 41 00 .....@........A.
00429310 3C 04 00 00 00 01 00 00 04 40 00 00 00 00 00 00 <........@......
00429320 24 D6 41 00 3D 04 00 00 80 01 00 00 06 40 00 00 $.A.=........@..
00429330 00 00 00 00 2C D6 41 00 3E 04 00 00 00 02 00 00 ....,.A.>.......
00429340 04 40 00 00 00 00 00 00 34 D6 41 00 40 08 00 00 .@......4.A.@...
00429350 00 00 00 00 00 00 00 00 00 00 00 00 3C D6 41 00 ............<.A.
00429360 41 04 00 00 80 00 00 00 04 20 00 00 00 00 00 00 A........ ......
00429370 44 D6 41 00 42 04 00 00 00 01 00 00 04 20 00 00 D.A.B........ ..
00429380 00 00 00 00 4C D6 41 00 43 04 00 00 00 02 00 00 ....L.A.C.......
00429390 04 20 00 00 00 00 00 00 54 D6 41 00 44 04 00 00 . ......T.A.D...
004293A0 00 04 00 00 04 20 00 00 00 00 00 00 5C D6 41 00 ..... ......\.A.
004293B0 45 04 00 00 00 08 00 00 04 20 00 00 00 00 00 00 E........ ......
004293C0 64 D6 41 00 46 06 00 00 00 10 00 00 04 40 00 00 d.A.F........@..
004293D0 00 00 00 00 6C D6 41 00 47 06 00 00 00 20 00 00 ....l.A.G.... ..
004293E0 08 40 00 00 00 00 00 00 74 D6 41 00 48 04 00 00 .@......t.A.H...
004293F0 00 0C 00 00 0C 40 00 00 00 00 00 00 7C D6 41 00 .....@......|.A.
00429400 49 04 00 00 00 10 00 00 10 40 00 00 00 00 00 00 I........@......
00429410 84 D6 41 00 4A 06 00 00 00 18 00 00 0C 40 00 00 ..A.J........@..
00429420 00 00 00 00 8C D6 41 00 4B 06 00 00 00 20 00 00 ......A.K.... ..
00429430 10 40 00 00 00 00 00 00 94 D6 41 00 4C 06 00 00 .@........A.L...
00429440 00 30 00 00 0C 40 00 00 00 00 00 00 9C D6 41 00 .0...@........A.
00429450 4D 06 00 00 00 40 00 00 10 40 00 00 00 00 00 00 M....@...@......
00429460 A4 D6 41 00 4E 06 00 00 00 18 00 00 18 40 00 00 ..A.N........@..
00429470 00 00 00 00 AC D6 41 00 4F 00 00 00 04 00 00 00 ......A.O.......
00429480 00 00 00 00 20 00 00 00 B4 D6 41 00 50 00 00 00 .... .....A.P...
00429490 04 00 00 00 00 00 00 00 40 00 00 00 BC D6 41 00 ........@.....A.
004294A0 51 00 00 00 04 00 00 00 00 00 00 00 80 00 00 00 Q...............
004294B0 C4 D6 41 00 52 00 00 00 04 00 00 00 00 00 00 00 ..A.R...........
004294C0 00 01 00 00 CC D6 41 00 55 00 00 00 00 08 00 00 ......A.U.......
004294D0 00 00 00 00 07 00 00 00 D4 D6 41 00 56 01 00 00 ..........A.V...
004294E0 00 10 00 00 04 00 00 00 10 00 00 00 DC D6 41 00 ..............A.
004294F0 57 01 00 00 04 00 00 00 04 00 00 00 10 00 00 00 W...............
00429500 E4 D6 41 00 59 01 00 00 04 00 00 00 00 00 00 00 ..A.Y...........
00429510 10 00 00 00 EC D6 41 00 5A 01 00 00 00 10 00 00 ......A.Z.......
00429520 04 00 00 00 20 00 00 00 F4 D6 41 00 5B 01 00 00 .... .....A.[...
00429530 00 10 00 00 00 00 00 00 40 00 00 00 FC D6 41 00 ........@.....A.
00429540 5C 01 00 00 00 10 00 00 00 00 00 00 80 00 00 00 \...............
00429550 04 D7 41 00 5D 01 00 00 00 10 00 00 00 00 00 00 ..A.]...........
00429560 00 01 00 00 0C D7 41 00 60 03 00 00 10 00 00 00 ......A.`.......
00429570 08 40 00 00 00 00 00 00 14 D7 41 00 66 03 00 00 .@........A.f...
00429580 08 00 00 00 04 40 00 00 00 00 00 00 1C D7 41 00 .....@........A.
00429590 67 03 00 00 10 00 00 00 04 40 00 00 00 00 00 00 g........@......
004295A0 24 D7 41 00 68 03 00 00 20 00 00 00 04 40 00 00 $.A.h... ....@..
004295B0 00 00 00 00 2C D7 41 00 70 07 00 00 0C 00 00 00 ....,.A.p.......
004295C0 08 00 00 00 00 00 00 00 34 D7 41 00 71 07 00 00 ........4.A.q...
004295D0 10 00 00 00 08 00 00 00 00 00 00 00 3C D7 41 00 ............<.A.
004295E0 72 07 00 00 20 00 00 00 08 00 00 00 00 00 00 00 r... ...........
004295F0 44 D7 41 00 73 07 00 00 40 00 00 00 08 00 00 00 D.A.s...@.......
00429600 00 00 00 00 4C D7 41 00 76 00 00 00 00 08 00 00 ....L.A.v.......
00429610 00 00 00 00 08 00 00 00 54 D7 41 00 78 04 00 00 ........T.A.x...
00429620 00 04 00 00 04 40 00 00 00 00 00 00 5C D7 41 00 .....@......\.A.
00429630 79 04 00 00 80 00 00 00 08 40 02 00 00 00 00 00 y........@......
00429640 64 D7 41 00 7A 04 00 00 00 01 00 00 08 40 02 00 d.A.z........@..
00429650 00 00 00 00 6C D7 41 00 7B 04 00 00 00 02 00 00 ....l.A.{.......
00429660 08 40 02 00 00 00 00 00 74 D7 41 00 7C 04 00 00 .@......t.A.|...
00429670 00 04 00 00 08 40 02 00 00 00 00 00 7C D7 41 00 .....@......|.A.
00429680 7D 04 00 00 00 08 00 00 08 40 00 00 00 00 00 00 }........@......
00429690 84 D7 41 00 7F 04 00 00 00 02 00 00 02 40 00 00 ..A..........@..
004296A0 00 00 00 00 8C D7 41 00 80 04 00 00 00 02 00 00 ......A.........
004296B0 08 40 00 00 00 00 00 00 94 D7 41 00 82 04 00 00 .@........A.....
004296C0 00 01 00 00 08 20 00 00 00 00 00 00 9C D7 41 00 ..... ........A.
004296D0 83 04 00 00 00 02 00 00 08 20 00 00 00 00 00 00 ......... ......
004296E0 A4 D7 41 00 84 04 00 00 00 04 00 00 08 20 00 00 ..A.......... ..
004296F0 00 00 00 00 AC D7 41 00 85 04 00 00 00 08 00 00 ......A.........
00429700 08 20 00 00 00 00 00 00 B4 D7 41 00 86 04 00 00 . ........A.....
00429710 00 02 00 00 04 40 00 00 00 00 00 00 BC D7 41 00 .....@........A.
00429720 87 04 00 00 00 04 00 00 08 40 00 00 00 00 00 00 .........@......
00429730 C4 D7 41 00 B0 00 00 00 04 00 00 00 04 00 00 00 ..A.............
00429740 80 00 00 00 CC D7 41 00 B1 00 00 00 00 08 00 00 ......A.........
00429750 04 00 00 00 08 00 00 00 D4 D7 41 00 B2 00 00 00 ..........A.....
00429760 04 00 00 00 04 00 00 00 40 00 00 00 DC D7 41 00 ........@.....A.
00429770 B3 01 00 00 04 00 00 00 04 00 00 00 80 00 00 00 ................
00429780 E4 D7 41 00 B4 01 00 00 04 00 00 00 04 00 00 00 ..A.............
00429790 00 01 00 00 EC D7 41 00 BA 01 00 00 04 00 00 00 ......A.........
004297A0 04 00 00 00 40 00 00 00 F4 D7 41 00 C0 01 00 00 ....@.....A.....
004297B0 04 00 00 00 04 00 00 00 08 00 00 00 FC D7 41 00 ..............A.
004297C0 CA 05 00 00 04 00 00 00 04 00 00 00 00 02 00 00 ................
004297D0 04 D8 41 00 D0 06 00 00 00 02 00 00 04 40 00 00 ..A..........@..
004297E0 00 00 00 00 0C D8 41 00 D1 06 00 00 00 04 00 00 ......A.........
004297F0 04 40 00 00 00 00 00 00 14 D8 41 00 D2 06 00 00 .@........A.....
00429800 00 08 00 00 04 40 00 00 00 00 00 00 1C D8 41 00 .....@........A.
00429810 D6 06 00 00 00 04 00 00 08 40 00 00 00 00 00 00 .........@......
00429820 24 D8 41 00 D7 06 00 00 00 08 00 00 08 40 00 00 $.A..........@..
00429830 00 00 00 00 2C D8 41 00 D8 06 00 00 00 10 00 00 ....,.A.........
00429840 08 40 00 00 00 00 00 00 34 D8 41 00 DC 06 00 00 .@......4.A.....
00429850 00 06 00 00 0C 40 00 00 00 00 00 00 3C D8 41 00 .....@......<.A.
00429860 DD 06 00 00 00 0C 00 00 0C 40 00 00 00 00 00 00 .........@......
00429870 44 D8 41 00 DE 06 00 00 00 18 00 00 0C 40 00 00 D.A..........@..
00429880 00 00 00 00 4C D8 41 00 E2 06 00 00 00 08 00 00 ....L.A.........
00429890 10 40 00 00 00 00 00 00 54 D8 41 00 E3 06 00 00 .@......T.A.....
004298A0 00 10 00 00 10 40 00 00 00 00 00 00 5C D8 41 00 .....@......\.A.
004298B0 E4 06 00 00 00 20 00 00 10 40 00 00 00 00 00 00 ..... ...@......
004298C0 64 D8 41 00 EA 06 00 00 00 30 00 00 18 40 00 00 d.A......0...@..
004298D0 00 00 00 00 6C D8 41 00 EB 06 00 00 00 48 00 00 ....l.A......H..
004298E0 18 40 00 00 00 00 00 00 74 D8 41 00 EC 06 00 00 .@......t.A.....
004298F0 00 60 00 00 18 40 00 00 00 00 00 00 7C D8 41 00 .`...@......|.A.
00429900 F0 08 00 00 00 00 00 00 00 00 00 00 00 00 00 00 ................
00429910 84 D8 41 00 F1 08 00 00 00 00 00 00 00 00 00 00 ..A.............
00429920 00 00 00 00 8C D8 41 00 FF 08 00 00 00 00 00 00 ......A.........
00429930 00 00 00 00 00 00 00 00 94 D8 41 00 00 00 00 00 ..........A.....
00429940 00 00 00 00 00 00 00 00 7C 0E 42 00 E8 0E 42 00 ........|.B...B.
00429950 FC 0E 42 00 34 0F 42 00 48 0F 42 00 00 00 00 00 ..B.4.B.H.B.....
00429960 FF FF FF FF 00 00 00 00 C4 1F 42 00 00 00 00 00 ..........B.....
00429970 7F 00 00 00 D8 1F 42 00 80 00 00 00 FF 00 00 00 ......B.........
00429980 EC 1F 42 00 00 01 00 00 7F 01 00 00 08 20 42 00 ..B.......... B.
00429990 80 01 00 00 4F 02 00 00 24 20 42 00 50 02 00 00 ....O...$ B.P...
004299A0 AF 02 00 00 40 20 42 00 B0 02 00 00 FF 02 00 00 ....@ B.........
004299B0 58 20 42 00 00 03 00 00 6F 03 00 00 7C 20 42 00 X B.....o...| B.
004299C0 70 03 00 00 FF 03 00 00 A0 20 42 00 00 04 00 00 p........ B.....
004299D0 FF 04 00 00 BC 20 42 00 00 05 00 00 2F 05 00 00 ..... B...../...
004299E0 D0 20 42 00 30 05 00 00 8F 05 00 00 EC 20 42 00 . B.0........ B.
004299F0 90 05 00 00 FF 05 00 00 00 21 42 00 00 06 00 00 .........!B.....
00429A00 FF 06 00 00 10 21 42 00 00 07 00 00 4F 07 00 00 .....!B.....O...
00429A10 20 21 42 00 50 07 00 00 7F 07 00 00 30 21 42 00  !B.P.......0!B.
00429A20 80 07 00 00 BF 07 00 00 4C 21 42 00 C0 07 00 00 ........L!B.....
00429A30 FF 07 00 00 5C 21 42 00 00 08 00 00 3F 08 00 00 ....\!B.....?...
00429A40 68 21 42 00 40 08 00 00 5F 08 00 00 7C 21 42 00 h!B.@..._...|!B.
00429A50 00 09 00 00 7F 09 00 00 8C 21 42 00 80 09 00 00 .........!B.....
00429A60 FF 09 00 00 A0 21 42 00 00 0A 00 00 7F 0A 00 00 .....!B.........
00429A70 B0 21 42 00 80 0A 00 00 FF 0A 00 00 C4 21 42 00 .!B..........!B.
00429A80 00 0B 00 00 7F 0B 00 00 D8 21 42 00 80 0B 00 00 .........!B.....
00429A90 FF 0B 00 00 E8 21 42 00 00 0C 00 00 7F 0C 00 00 .....!B.........
00429AA0 F8 21 42 00 80 0C 00 00 FF 0C 00 00 08 22 42 00 .!B.........."B.
00429AB0 00 0D 00 00 7F 0D 00 00 18 22 42 00 80 0D 00 00 ........."B.....
00429AC0 FF 0D 00 00 2C 22 42 00 00 0E 00 00 7F 0E 00 00 ....,"B.........
00429AD0 3C 22 42 00 80 0E 00 00 FF 0E 00 00 4C 22 42 00 <"B.........L"B.
00429AE0 00 0F 00 00 FF 0F 00 00 58 22 42 00 00 10 00 00 ........X"B.....
00429AF0 9F 10 00 00 68 22 42 00 A0 10 00 00 FF 10 00 00 ....h"B.........
00429B00 78 22 42 00 00 11 00 00 FF 11 00 00 8C 22 42 00 x"B.........."B.
00429B10 00 12 00 00 7F 13 00 00 A0 22 42 00 80 13 00 00 ........."B.....
00429B20 9F 13 00 00 B4 22 42 00 A0 13 00 00 FF 13 00 00 ....."B.........
00429B30 D0 22 42 00 00 14 00 00 7F 16 00 00 E4 22 42 00 ."B.........."B.
00429B40 80 16 00 00 9F 16 00 00 14 23 42 00 A0 16 00 00 .........#B.....
00429B50 FF 16 00 00 24 23 42 00 00 17 00 00 1F 17 00 00 ....$#B.........
00429B60 34 23 42 00 20 17 00 00 3F 17 00 00 44 23 42 00 4#B. ...?...D#B.
00429B70 40 17 00 00 5F 17 00 00 54 23 42 00 60 17 00 00 @..._...T#B.`...
00429B80 7F 17 00 00 64 23 42 00 80 17 00 00 FF 17 00 00 ....d#B.........
00429B90 78 23 42 00 00 18 00 00 AF 18 00 00 88 23 42 00 x#B..........#B.
00429BA0 B0 18 00 00 FF 18 00 00 9C 23 42 00 00 19 00 00 .........#B.....
00429BB0 4F 19 00 00 D4 23 42 00 50 19 00 00 7F 19 00 00 O....#B.P.......
00429BC0 E4 23 42 00 80 19 00 00 DF 19 00 00 F4 23 42 00 .#B..........#B.
00429BD0 E0 19 00 00 FF 19 00 00 08 24 42 00 00 1A 00 00 .........$B.....
00429BE0 1F 1A 00 00 20 24 42 00 20 1A 00 00 AF 1A 00 00 .... $B. .......
00429BF0 34 24 42 00 00 1B 00 00 7F 1B 00 00 48 24 42 00 4$B.........H$B.
00429C00 80 1B 00 00 BF 1B 00 00 5C 24 42 00 C0 1B 00 00 ........\$B.....
00429C10 FF 1B 00 00 70 24 42 00 00 1C 00 00 4F 1C 00 00 ....p$B.....O...
00429C20 80 24 42 00 50 1C 00 00 7F 1C 00 00 90 24 42 00 .$B.P........$B.
00429C30 D0 1C 00 00 FF 1C 00 00 A4 24 42 00 00 1D 00 00 .........$B.....
00429C40 7F 1D 00 00 C0 24 42 00 80 1D 00 00 BF 1D 00 00 .....$B.........
00429C50 DC 24 42 00 C0 1D 00 00 FF 1D 00 00 04 25 42 00 .$B..........%B.
00429C60 00 1E 00 00 FF 1E 00 00 34 25 42 00 00 1F 00 00 ........4%B.....
00429C70 FF 1F 00 00 58 25 42 00 00 20 00 00 6F 20 00 00 ....X%B.. ..o ..
00429C80 70 25 42 00 70 20 00 00 9F 20 00 00 8C 25 42 00 p%B.p ... ...%B.
00429C90 A0 20 00 00 CF 20 00 00 B0 25 42 00 D0 20 00 00 . ... ...%B.. ..
00429CA0 FF 20 00 00 CC 25 42 00 00 21 00 00 4F 21 00 00 . ...%B..!..O!..
00429CB0 FC 25 42 00 50 21 00 00 8F 21 00 00 18 26 42 00 .%B.P!...!...&B.
00429CC0 90 21 00 00 FF 21 00 00 30 26 42 00 00 22 00 00 .!...!..0&B.."..
00429CD0 FF 22 00 00 40 26 42 00 00 23 00 00 FF 23 00 00 ."..@&B..#...#..
00429CE0 60 26 42 00 00 24 00 00 3F 24 00 00 80 26 42 00 `&B..$..?$...&B.
00429CF0 40 24 00 00 5F 24 00 00 9C 26 42 00 60 24 00 00 @$.._$...&B.`$..
00429D00 FF 24 00 00 C4 26 42 00 00 25 00 00 7F 25 00 00 .$...&B..%...%..
00429D10 E4 26 42 00 80 25 00 00 9F 25 00 00 F8 26 42 00 .&B..%...%...&B.
00429D20 A0 25 00 00 FF 25 00 00 10 27 42 00 00 26 00 00 .%...%...'B..&..
00429D30 FF 26 00 00 2C 27 42 00 00 27 00 00 BF 27 00 00 .&..,'B..'...'..
00429D40 4C 27 42 00 C0 27 00 00 EF 27 00 00 60 27 42 00 L'B..'...'..`'B.
00429D50 F0 27 00 00 FF 27 00 00 90 27 42 00 00 28 00 00 .'...'...'B..(..
00429D60 FF 28 00 00 B0 27 42 00 00 29 00 00 7F 29 00 00 .(...'B..)...)..
00429D70 CC 27 42 00 80 29 00 00 FF 29 00 00 EC 27 42 00 .'B..)...)...'B.
00429D80 00 2A 00 00 FF 2A 00 00 1C 28 42 00 00 2B 00 00 .*...*...(B..+..
00429D90 FF 2B 00 00 48 28 42 00 00 2C 00 00 5F 2C 00 00 .+..H(B..,.._,..
00429DA0 74 28 42 00 60 2C 00 00 7F 2C 00 00 88 28 42 00 t(B.`,...,...(B.
00429DB0 80 2C 00 00 FF 2C 00 00 A4 28 42 00 00 2D 00 00 .,...,...(B..-..
00429DC0 2F 2D 00 00 B4 28 42 00 30 2D 00 00 7F 2D 00 00 /-...(B.0-...-..
00429DD0 D0 28 42 00 80 2D 00 00 DF 2D 00 00 E4 28 42 00 .(B..-...-...(B.
00429DE0 E0 2D 00 00 FF 2D 00 00 00 29 42 00 00 2E 00 00 .-...-...)B.....
00429DF0 7F 2E 00 00 1C 29 42 00 80 2E 00 00 FF 2E 00 00 .....)B.........
00429E00 40 29 42 00 00 2F 00 00 DF 2F 00 00 60 29 42 00 @)B../.../..`)B.
00429E10 F0 2F 00 00 FF 2F 00 00 78 29 42 00 00 30 00 00 ./.../..x)B..0..
00429E20 3F 30 00 00 A4 29 42 00 40 30 00 00 9F 30 00 00 ?0...)B.@0...0..
00429E30 C8 29 42 00 A0 30 00 00 FF 30 00 00 DC 29 42 00 .)B..0...0...)B.
00429E40 00 31 00 00 2F 31 00 00 F0 29 42 00 30 31 00 00 .1../1...)B.01..
00429E50 8F 31 00 00 04 2A 42 00 90 31 00 00 9F 31 00 00 .1...*B..1...1..
00429E60 28 2A 42 00 A0 31 00 00 BF 31 00 00 38 2A 42 00 (*B..1...1..8*B.
00429E70 C0 31 00 00 EF 31 00 00 54 2A 42 00 F0 31 00 00 .1...1..T*B..1..
00429E80 FF 31 00 00 68 2A 42 00 00 32 00 00 FF 32 00 00 .1..h*B..2...2..
00429E90 90 2A 42 00 00 33 00 00 FF 33 00 00 B8 2A 42 00 .*B..3...3...*B.
00429EA0 00 34 00 00 BF 4D 00 00 D4 2A 42 00 C0 4D 00 00 .4...M...*B..M..
00429EB0 FF 4D 00 00 00 2B 42 00 00 4E 00 00 FF 9F 00 00 .M...+B..N......
00429EC0 20 2B 42 00 00 A0 00 00 8F A4 00 00 40 2B 42 00  +B.........@+B.
00429ED0 90 A4 00 00 CF A4 00 00 58 2B 42 00 D0 A4 00 00 ........X+B.....
00429EE0 FF A4 00 00 6C 2B 42 00 00 A5 00 00 3F A6 00 00 ....l+B.....?...
00429EF0 7C 2B 42 00 40 A6 00 00 9F A6 00 00 88 2B 42 00 |+B.@........+B.
00429F00 A0 A6 00 00 FF A6 00 00 A4 2B 42 00 00 A7 00 00 .........+B.....
00429F10 1F A7 00 00 B4 2B 42 00 20 A7 00 00 FF A7 00 00 .....+B. .......
00429F20 D4 2B 42 00 00 A8 00 00 2F A8 00 00 F0 2B 42 00 .+B...../....+B.
00429F30 30 A8 00 00 3F A8 00 00 08 2C 42 00 40 A8 00 00 0...?....,B.@...
00429F40 7F A8 00 00 2C 2C 42 00 80 A8 00 00 DF A8 00 00 ....,,B.........
00429F50 40 2C 42 00 E0 A8 00 00 FF A8 00 00 54 2C 42 00 @,B.........T,B.
00429F60 00 A9 00 00 2F A9 00 00 70 2C 42 00 30 A9 00 00 ..../...p,B.0...
00429F70 5F A9 00 00 84 2C 42 00 60 A9 00 00 7F A9 00 00 _....,B.`.......
00429F80 94 2C 42 00 80 A9 00 00 DF A9 00 00 B4 2C 42 00 .,B..........,B.
00429F90 00 AA 00 00 5F AA 00 00 C8 2C 42 00 60 AA 00 00 ...._....,B.`...
00429FA0 7F AA 00 00 D8 2C 42 00 80 AA 00 00 DF AA 00 00 .....,B.........
00429FB0 F4 2C 42 00 00 AB 00 00 2F AB 00 00 08 2D 42 00 .,B...../....-B.
00429FC0 C0 AB 00 00 FF AB 00 00 24 2D 42 00 00 AC 00 00 ........$-B.....
00429FD0 AF D7 00 00 3C 2D 42 00 B0 D7 00 00 FF D7 00 00 ....<-B.........
00429FE0 58 2D 42 00 00 D8 00 00 7F DB 00 00 78 2D 42 00 X-B.........x-B.
00429FF0 80 DB 00 00 FF DB 00 00 90 2D 42 00 00 DC 00 00 .........-B.....
0042A000 FF DF 00 00 B4 2D 42 00 00 E0 00 00 FF F8 00 00 .....-B.........
0042A010 CC 2D 42 00 00 F9 00 00 FF FA 00 00 E8 2D 42 00 .-B..........-B.
0042A020 00 FB 00 00 4F FB 00 00 10 2E 42 00 50 FB 00 00 ....O.....B.P...
0042A030 FF FD 00 00 38 2E 42 00 00 FE 00 00 0F FE 00 00 ....8.B.........
0042A040 5C 2E 42 00 10 FE 00 00 1F FE 00 00 78 2E 42 00 \.B.........x.B.
0042A050 20 FE 00 00 2F FE 00 00 90 2E 42 00 30 FE 00 00  .../.....B.0...
0042A060 4F FE 00 00 B0 2E 42 00 50 FE 00 00 6F FE 00 00 O.....B.P...o...
0042A070 D0 2E 42 00 70 FE 00 00 FF FE 00 00 EC 2E 42 00 ..B.p.........B.
0042A080 00 FF 00 00 EF FF 00 00 10 2F 42 00 F0 FF 00 00 ........./B.....
0042A090 FF FF 00 00 38 2F 42 00 00 00 01 00 7F 00 01 00 ....8/B.........
0042A0A0 4C 2F 42 00 80 00 01 00 FF 00 01 00 68 2F 42 00 L/B.........h/B.
0042A0B0 00 01 01 00 3F 01 01 00 84 2F 42 00 40 01 01 00 ....?..../B.@...
0042A0C0 8F 01 01 00 9C 2F 42 00 90 01 01 00 CF 01 01 00 ...../B.........
0042A0D0 BC 2F 42 00 D0 01 01 00 FF 01 01 00 D4 2F 42 00 ./B........../B.
0042A0E0 80 02 01 00 9F 02 01 00 EC 2F 42 00 A0 02 01 00 ........./B.....
0042A0F0 DF 02 01 00 FC 2F 42 00 00 03 01 00 2F 03 01 00 ...../B...../...
0042A100 0C 30 42 00 30 03 01 00 4F 03 01 00 20 30 42 00 .0B.0...O... 0B.
0042A110 80 03 01 00 9F 03 01 00 30 30 42 00 A0 03 01 00 ........00B.....
0042A120 DF 03 01 00 44 30 42 00 00 04 01 00 4F 04 01 00 ....D0B.....O...
0042A130 58 30 42 00 50 04 01 00 7F 04 01 00 68 30 42 00 X0B.P.......h0B.
0042A140 80 04 01 00 AF 04 01 00 78 30 42 00 00 08 01 00 ........x0B.....
0042A150 3F 08 01 00 88 30 42 00 40 08 01 00 5F 08 01 00 ?....0B.@..._...
0042A160 A4 30 42 00 00 09 01 00 1F 09 01 00 C0 30 42 00 .0B..........0B.
0042A170 20 09 01 00 3F 09 01 00 D4 30 42 00 00 0A 01 00  ...?....0B.....
0042A180 5F 0A 01 00 E4 30 42 00 60 0A 01 00 7F 0A 01 00 _....0B.`.......
0042A190 F8 30 42 00 00 0B 01 00 3F 0B 01 00 14 31 42 00 .0B.....?....1B.
0042A1A0 40 0B 01 00 5F 0B 01 00 24 31 42 00 60 0B 01 00 @..._...$1B.`...
0042A1B0 7F 0B 01 00 44 31 42 00 00 0C 01 00 4F 0C 01 00 ....D1B.....O...
0042A1C0 64 31 42 00 60 0E 01 00 7F 0E 01 00 78 31 42 00 d1B.`.......x1B.
0042A1D0 00 10 01 00 7F 10 01 00 98 31 42 00 80 10 01 00 .........1B.....
0042A1E0 CF 10 01 00 A8 31 42 00 00 20 01 00 FF 23 01 00 .....1B.. ...#..
0042A1F0 B8 31 42 00 00 24 01 00 7F 24 01 00 CC 31 42 00 .1B..$...$...1B.
0042A200 00 30 01 00 2F 34 01 00 F8 31 42 00 00 68 01 00 .0../4...1B..h..
0042A210 3F 6A 01 00 18 32 42 00 00 B0 01 00 FF B0 01 00 ?j...2B.........
0042A220 34 32 42 00 00 D0 01 00 FF D0 01 00 4C 32 42 00 42B.........L2B.
0042A230 00 D1 01 00 FF D1 01 00 70 32 42 00 00 D2 01 00 ........p2B.....
0042A240 4F D2 01 00 88 32 42 00 00 D3 01 00 5F D3 01 00 O....2B....._...
0042A250 B0 32 42 00 60 D3 01 00 7F D3 01 00 D0 32 42 00 .2B.`........2B.
0042A260 00 D4 01 00 FF D7 01 00 F0 32 42 00 00 F0 01 00 .........2B.....
0042A270 2F F0 01 00 1C 33 42 00 30 F0 01 00 9F F0 01 00 /....3B.0.......
0042A280 34 33 42 00 A0 F0 01 00 FF F0 01 00 4C 33 42 00 43B.........L3B.
0042A290 00 F1 01 00 FF F1 01 00 64 33 42 00 00 F2 01 00 ........d3B.....
0042A2A0 FF F2 01 00 90 33 42 00 00 F3 01 00 FF F5 01 00 .....3B.........
0042A2B0 B8 33 42 00 00 F6 01 00 4F F6 01 00 E8 33 42 00 .3B.....O....3B.
0042A2C0 80 F6 01 00 FF F6 01 00 FC 33 42 00 00 F7 01 00 .........3B.....
0042A2D0 7F F7 01 00 20 34 42 00 00 00 02 00 DF A6 02 00 .... 4B.........
0042A2E0 3C 34 42 00 00 A7 02 00 3F B7 02 00 68 34 42 00 <4B.....?...h4B.
0042A2F0 40 B7 02 00 1F B8 02 00 94 34 42 00 00 F8 02 00 @........4B.....
0042A300 1F FA 02 00 C0 34 42 00 00 00 0E 00 7F 00 0E 00 .....4B.........
0042A310 F0 34 42 00 00 01 0E 00 EF 01 0E 00 00 35 42 00 .4B..........5B.
0042A320 00 00 0F 00 FF FF 0F 00 28 35 42 00 00 00 10 00 ........(5B.....
0042A330 FF FF 10 00 54 35 42 00 78 35 42 00 E4 35 42 00 ....T5B.x5B..5B.
0042A340 F8 35 42 00 30 36 42 00 44 36 42 00 00 00 00 00 .5B.06B.D6B.....
0042A350 94 3B 42 00 04 3C 42 00 18 3C 42 00 50 3C 42 00 .;B..<B..<B.P<B.
0042A360 64 3C 42 00 00 00 00 00 00 00 00 00 C0 3C 42 00 d<B..........<B.
0042A370 2C 3D 42 00 40 3D 42 00 78 3D 42 00 8C 3D 42 00 ,=B.@=B.x=B..=B.
0042A380 00 00 00 00 F0 3D 42 00 60 3E 42 00 74 3E 42 00 .....=B.`>B.t>B.
0042A390 AC 3E 42 00 C0 3E 42 00 00 00 00 00 1C 3F 42 00 .>B..>B......?B.
0042A3A0 8C 3F 42 00 A0 3F 42 00 D8 3F 42 00 EC 3F 42 00 .?B..?B..?B..?B.
0042A3B0 00 00 00 00 48 40 42 00 B8 40 42 00 CC 40 42 00 ....H@B..@B..@B.
0042A3C0 04 41 42 00 18 41 42 00 00 00 00 00 74 41 42 00 .AB..AB.....tAB.
0042A3D0 E0 41 42 00 F4 41 42 00 2C 42 42 00 40 42 42 00 .AB..AB.,BB.@BB.
0042A3E0 00 00 00 00 00 8D 40 00 9C 42 42 00 0C 43 42 00 ......@..BB..CB.
0042A3F0 20 43 42 00 58 43 42 00 6C 43 42 00 00 00 00 00  CB.XCB.lCB.....
0042A400 00 8D 40 00 0C 45 42 00 78 45 42 00 8C 45 42 00 ..@..EB.xEB..EB.
0042A410 C4 45 42 00 D8 45 42 00 00 00 00 00 68 4B 42 00 .EB..EB.....hKB.
0042A420 78 4B 42 00 00 00 00 80 24 4C 42 00 00 00 00 00 xKB.....$LB.....
0042A430 01 00 00 80 68 4C 42 00 00 00 00 00 02 00 00 80 ....hLB.........
0042A440 AC 4C 42 00 00 00 00 00 03 00 00 80 F4 4C 42 00 .LB..........LB.
0042A450 00 00 00 00 04 00 00 80 24 4D 42 00 00 00 00 00 ........$MB.....
0042A460 05 00 00 80 74 4D 42 00 00 00 00 00 06 00 00 80 ....tMB.........
0042A470 BC 4D 42 00 00 00 00 00 00 00 00 80 F4 4D 42 00 .MB..........MB.
0042A480 00 00 00 00 01 00 00 80 14 4E 42 00 00 00 00 00 .........NB.....
0042A490 02 00 00 80 34 4E 42 00 00 00 00 00 03 00 00 80 ....4NB.........
0042A4A0 54 4E 42 00 00 00 00 00 04 00 00 80 74 4E 42 00 TNB.........tNB.
0042A4B0 00 00 00 00 05 00 00 80 94 4E 42 00 00 00 00 00 .........NB.....
0042A4C0 06 00 00 80 B4 4E 42 00 00 00 00 00 CC 4E 42 00 .....NB......NB.
0042A4D0 3C 4F 42 00 50 4F 42 00 88 4F 42 00 9C 4F 42 00 <OB.POB..OB..OB.
0042A4E0 00 00 00 00 14 52 42 00 80 52 42 00 94 52 42 00 .....RB..RB..RB.
0042A4F0 CC 52 42 00 E0 52 42 00 00 00 00 00 E4 55 42 00 .RB..RB......UB.
0042A500 54 56 42 00 68 56 42 00 A0 56 42 00 B4 56 42 00 TVB.hVB..VB..VB.
0042A510 00 00 00 00 00 00 00 00 00 8D 40 00 00 00 00 00 ..........@.....
0042A520 74 5A 42 00 80 5A 42 00 F8 5C 42 00 6C 5D 42 00 tZB..ZB..\B.l]B.
0042A530 80 5D 42 00 B8 5D 42 00 CC 5D 42 00 00 00 00 00 .]B..]B..]B.....
0042A540 00 8D 40 00 00 00 00 00 00 00 00 00 00 8D 40 00 ..@...........@.
0042A550 8C 63 42 00 FC 63 42 00 10 64 42 00 48 64 42 00 .cB..cB..dB.HdB.
0042A560 5C 64 42 00 00 00 00 00 7C 67 42 00 90 67 42 00 \dB.....|gB..gB.
0042A570 A4 67 42 00 BC 67 42 00 D0 67 42 00 E8 67 42 00 .gB..gB..gB..gB.
0042A580 00 68 42 00 18 68 42 00 34 68 42 00 48 68 42 00 .hB..hB.4hB.HhB.
0042A590 60 68 42 00 78 68 42 00 17 01 00 00 AF 00 00 00 `hB.xhB.........
0042A5A0 00 00 00 00 00 00 00 00 00 00 00 00 00 00 00 00 ................
0042A5B0 5C 01 00 00 AF 00 00 00 00 00 00 00 00 00 00 00 \...............
0042A5C0 00 00 00 00 00 00 00 00 8D 01 00 00 AF 00 00 00 ................
0042A5D0 17 01 00 00 51 02 00 00 A4 02 00 00 00 03 00 00 ....Q...........
0042A5E0 F4 69 40 00 14 69 40 00 9C D8 41 00 E8 2F 41 00 .i@..i@...A../A.
0042A5F0 5C 69 40 00 5C 68 40 00 5C D6 41 00 44 6A 40 00 \i@.\h@.\.A.Dj@.
0042A600 84 6A 40 00 EC 6A 40 00 38 B0 42 00 14 6A 40 00 .j@..j@.8.B..j@.
0042A610 EC D5 41 00 CC D6 41 00 94 D6 41 00 EC D7 41 00 ..A...A...A...A.
0042A620 04 D8 41 00 2C B0 42 00 94 69 40 00 10 80 42 00 ..A.,.B..i@...B.
0042A630 FC 6A 40 00 8C D6 41 00 08 B0 42 00 AC D8 41 00 .j@...A...B...A.
0042A640 84 D7 41 00 2C D8 41 00 D4 6A 40 00 C4 D5 41 00 ..A.,.A..j@...A.
0042A650 0C D8 41 00 98 83 42 00 F4 D7 41 00 FC 69 40 00 ..A...B...A..i@.
0042A660 4C D7 41 00 00 B0 42 00 7C D5 41 00 04 D6 41 00 L.A...B.|.A...A.
0042A670 34 D8 41 00 8C 69 40 00 6C 69 40 00 44 6F 41 00 4.A..i@.li@.DoA.
0042A680 F0 B7 42 00 D4 D5 41 00 34 FB 41 00 74 68 40 00 ..B...A.4.A.th@.
0042A690 A4 D7 41 00 DC D5 41 00 DC 6A 40 00 A4 D8 41 00 ..A...A..j@...A.
0042A6A0 BC 6A 40 00 3C D8 41 00 E4 6A 40 00 24 D7 41 00 .j@.<.A..j@.$.A.
0042A6B0 54 D7 41 00 1C B0 42 00 94 D5 41 00 A4 D6 41 00 T.A...B...A...A.
0042A6C0 14 D7 41 00 4D B0 42 00 44 68 40 00 FC 68 40 00 ..A.M.B.Dh@..h@.
0042A6D0 64 D7 41 00 3C 68 40 00 1C 6A 40 00 7C 68 40 00 d.A.<h@..j@.|h@.
0042A6E0 A4 D5 41 00 24 D6 41 00 04 69 40 00 E4 B7 42 00 ..A.$.A..i@...B.
0042A6F0 BC 69 40 00 74 69 40 00 54 D6 41 00 D8 2F 41 00 .i@.ti@.T.A../A.
0042A700 2C D7 41 00 BC D7 41 00 54 D8 41 00 6C 6A 40 00 ,.A...A.T.A.lj@.
0042A710 1C B2 42 00 D4 80 42 00 1C D6 41 00 E4 D7 41 00 ..B...B...A...A.
0042A720 8C 6A 40 00 2C 6F 41 00 E4 D6 41 00 8C D5 41 00 .j@.,oA...A...A.
0042A730 BC D6 41 00 24 6F 41 00 0C B0 42 00 C8 80 42 00 ..A.$oA...B...B.
0042A740 14 D6 41 00 4C 6A 40 00 04 B0 42 00 10 B0 42 00 ..A.Lj@...B...B.
0042A750 4C FB 41 00 4C 6F 41 00 94 6A 40 00 DC 68 40 00 L.A.LoA..j@..h@.
0042A760 B4 D7 41 00 D4 68 40 00 6C D6 41 00 E4 68 40 00 ..A..h@.l.A..h@.
0042A770 CC 6A 40 00 4C 68 40 00 94 68 40 00 84 D6 41 00 .j@.Lh@..h@...A.
0042A780 0C 69 40 00 8C D8 41 00 D0 2F 41 00 2C 69 40 00 .i@...A../A.,i@.
0042A790 54 69 40 00 3C 6A 40 00 28 30 41 00 00 30 41 00 Ti@.<j@.(0A..0A.
0042A7A0 A4 69 40 00 3C D7 41 00 6C D5 41 00 04 D7 41 00 .i@.<.A.l.A...A.
0042A7B0 44 D8 41 00 C8 2F 41 00 64 D6 41 00 44 D7 41 00 D.A../A.d.A.D.A.
0042A7C0 74 D5 41 00 64 6A 40 00 4C 69 40 00 2C D6 41 00 t.A.dj@.Li@.,.A.
0042A7D0 FC D6 41 00 44 B0 42 00 54 6A 40 00 F4 D6 41 00 ..A.D.B.Tj@...A.
0042A7E0 EC B7 42 00 74 6A 40 00 F4 B7 42 00 30 30 41 00 ..B.tj@...B.00A.
0042A7F0 9C D7 41 00 0C 80 42 00 44 69 40 00 E4 69 40 00 ..A...B.Di@..i@.
0042A800 24 6A 40 00 B4 6A 40 00 F8 2F 41 00 CC D5 41 00 $j@..j@../A...A.
0042A810 6C 68 40 00 44 D6 41 00 AC 68 40 00 24 D8 41 00 lh@.D.A..h@.$.A.
0042A820 E0 B7 42 00 84 69 40 00 5C 6A 40 00 FC D5 41 00 ..B..i@.\j@...A.
0042A830 D4 D7 41 00 BC 68 40 00 C4 6A 40 00 B4 68 40 00 ..A..h@..j@..h@.
0042A840 4C D6 41 00 F0 2F 41 00 9C 6A 40 00 24 B0 42 00 L.A../A..j@.$.B.
0042A850 AC 69 40 00 DC D7 41 00 64 69 40 00 0C D6 41 00 .i@...A.di@...A.
0042A860 14 80 42 00 24 69 40 00 3C 6F 41 00 0C D7 41 00 ..B.$i@.<oA...A.
0042A870 CC 68 40 00 7C D8 41 00 94 D8 41 00 1C 80 42 00 .h@.|.A...A...B.
0042A880 F4 6A 40 00 10 B8 42 00 CC 69 40 00 64 68 40 00 .j@...B..i@.dh@.
0042A890 AC D6 41 00 64 D8 41 00 9C 69 40 00 8C D7 41 00 ..A.d.A..i@...A.
0042A8A0 1C D7 41 00 84 D8 41 00 CC 80 42 00 74 D8 41 00 ..A...A...B.t.A.
0042A8B0 7C 6A 40 00 A4 6A 40 00 3C FB 41 00 AC 6A 40 00 |j@..j@.<.A..j@.
0042A8C0 4C B0 42 00 34 D7 41 00 6C D8 41 00 64 D5 41 00 L.B.4.A.l.A.d.A.
0042A8D0 34 69 40 00 20 B0 42 00 F8 B7 42 00 34 6F 41 00 4i@. .B...B.4oA.
0042A8E0 08 30 41 00 C4 69 40 00 14 D8 41 00 54 D5 41 00 .0A..i@...A.T.A.
0042A8F0 5C D7 41 00 C4 D7 41 00 24 80 42 00 9C D5 41 00 \.A...A.$.B...A.
0042A900 DC D6 41 00 94 D7 41 00 A4 B7 42 00 0C 6A 40 00 ..A...A...B..j@.
0042A910 1C D8 41 00 EC D6 41 00 5C D5 41 00 B4 69 40 00 ..A...A.\.A..i@.
0042A920 2C 6A 40 00 04 6B 40 00 B4 D6 41 00 44 FB 41 00 ,j@..k@...A.D.A.
0042A930 EC 69 40 00 E4 D5 41 00 7C D7 41 00 BC D5 41 00 .i@...A.|.A...A.
0042A940 FC D7 41 00 18 30 41 00 54 68 40 00 EC 68 40 00 ..A..0A.Th@..h@.
0042A950 8C 68 40 00 74 D6 41 00 7C 69 40 00 84 68 40 00 .h@.t.A.|i@..h@.
0042A960 D4 D6 41 00 34 6A 40 00 84 D5 41 00 3C D6 41 00 ..A.4j@...A.<.A.
0042A970 2C 81 42 00 44 D5 41 00 E8 B7 42 00 10 30 41 00 ,.B.D.A...B..0A.
0042A980 4C D8 41 00 D4 69 40 00 9C 68 40 00 74 D7 41 00 L.A..i@..h@.t.A.
0042A990 B4 D5 41 00 CC D7 41 00 20 30 41 00 6C D7 41 00 ..A...A. 0A.l.A.
0042A9A0 7C D6 41 00 AC D7 41 00 DC 69 40 00 D8 B7 42 00 |.A...A..i@...B.
0042A9B0 AC D5 41 00 34 D6 41 00 5C D8 41 00 18 80 42 00 ..A.4.A.\.A...B.
0042A9C0 F4 68 40 00 C4 68 40 00 F4 D5 41 00 3C 69 40 00 .h@..h@...A.<i@.
0042A9D0 A4 68 40 00 4C D5 41 00 C4 80 42 00 E0 2F 41 00 .h@.L.A...B../A.
0042A9E0 C4 D6 41 00 44 B7 42 00 1C 69 40 00 04 6A 40 00 ..A.D.B..i@..j@.
0042A9F0 9C D6 41 00                                     ..A.           
;;; Segment BSS (0042B000)
0042B000 00 00 00 00 00 00 00 00 00 00 00 00 00 00 00 00 ................
; ...
0042B650 00 00 00 00 00 00 00 00 00 00 00 00             ............   
l0042B65C	dd	0x00000000
0042B660 00 00 00 00 00 00 00 00 00 00 00 00 00 00 00 00 ................
; ...
0042D3D0 00 00 00 00 00                                  .....          
;;; Segment .idata (0042E000)
0042E000 00 00 00 00 00 00 00 00 00 00 00 00 44 E4 02 00 ............D...
0042E010 F4 E3 02 00 00 00 00 00 00 00 00 00 00 00 00 00 ................
0042E020 51 E4 02 00 38 E4 02 00 00 00 00 00 00 00 00 00 Q...8...........
0042E030 00 00 00 00 5E E4 02 00 20 E2 02 00 00 00 00 00 ....^... .......
0042E040 00 00 00 00 00 00 00 00 6B E4 02 00 0C E2 02 00 ........k.......
0042E050 00 00 00 00 00 00 00 00 00 00 00 00 78 E4 02 00 ............x...
0042E060 2C E1 02 00 00 00 00 00 00 00 00 00 00 00 00 00 ,...............
0042E070 85 E4 02 00 EC E1 02 00 00 00 00 00 00 00 00 00 ................
0042E080 00 00 00 00 92 E4 02 00 1C E3 02 00 00 00 00 00 ................
0042E090 00 00 00 00 00 00 00 00 9C E4 02 00 20 E4 02 00 ............ ...
0042E0A0 00 00 00 00 00 00 00 00 00 00 00 00 A6 E4 02 00 ................
0042E0B0 FC E3 02 00 00 00 00 00 00 00 00 00 00 00 00 00 ................
0042E0C0 B3 E4 02 00 2C E4 02 00 00 00 00 00 00 00 00 00 ....,...........
0042E0D0 00 00 00 00 C0 E4 02 00 FC E1 02 00 00 00 00 00 ................
0042E0E0 00 00 00 00 00 00 00 00 CD E4 02 00 C0 E3 02 00 ................
0042E0F0 00 00 00 00 00 00 00 00 00 00 00 00 D8 E4 02 00 ................
0042E100 D8 E1 02 00 00 00 00 00 00 00 00 00 00 00 00 00 ................
0042E110 E3 E4 02 00 0C E3 02 00 00 00 00 00 00 00 00 00 ................
0042E120 00 00 00 00 00 00 00 00 00 00 00 00             ............   
l0042E12C	dd	0x0002E918
l0042E130	dd	0x0002E930
l0042E134	dd	0x0002E946
l0042E138	dd	0x0002E95C
l0042E13C	dd	0x0002E978
l0042E140	dd	0x0002E986
l0042E144	dd	0x0002E994
l0042E148	dd	0x0002E9A0
l0042E14C	dd	0x0002E9AC
l0042E150	dd	0x0002E9B8
l0042E154	dd	0x0002E9CC
l0042E158	dd	0x0002E9E2
l0042E15C	dd	0x0002E9F8
l0042E160	dd	0x0002EA06
l0042E164	dd	0x0002EA1C
l0042E168	dd	0x0002EA32
l0042E16C	dd	0x0002EA3C
l0042E170	dd	0x0002EA48
l0042E174	dd	0x0002EA58
l0042E178	dd	0x0002EA6A
l0042E17C	dd	0x0002EA7C
l0042E180	dd	0x0002EA8C
l0042E184	dd	0x0002EA9E
l0042E188	dd	0x0002EAB2
l0042E18C	dd	0x0002EAC2
l0042E190	dd	0x0002EAD0
l0042E194	dd	0x0002EAE2
l0042E198	dd	0x0002EAF0
l0042E19C	dd	0x0002EB00
l0042E1A0	dd	0x0002EB0C
l0042E1A4	dd	0x0002EB1A
l0042E1A8	dd	0x0002EB26
l0042E1AC	dd	0x0002EB40
l0042E1B0	dd	0x0002EB50
l0042E1B4	dd	0x0002EB5E
l0042E1B8	dd	0x0002EB6A
l0042E1BC	dd	0x0002EB74
l0042E1C0	dd	0x0002EB84
l0042E1C4	dd	0x0002EB92
l0042E1C8	dd	0x0002EBA0
l0042E1CC	dd	0x0002EBAE
l0042E1D0	dd	0x0002EBBC
0042E1D4             00 00 00 00                             ....       
l0042E1D8	dd	0x0002F012
l0042E1DC	dd	0x0002F024
l0042E1E0	dd	0x0002F032
l0042E1E4	dd	0x0002F040
0042E1E8                         00 00 00 00                     ....   
l0042E1EC	dd	0x0002EBCA
l0042E1F0	dd	0x0002EBDC
l0042E1F4	dd	0x0002EBEC
0042E1F8                         00 00 00 00                     ....   
l0042E1FC	dd	0x0002EF3A
l0042E200	dd	0x0002EF4A
l0042E204	dd	0x0002EF60
0042E208                         00 00 00 00                     ....   
l0042E20C	dd	0x0002E8DE
l0042E210	dd	0x0002E8EC
l0042E214	dd	0x0002E8FA
l0042E218	dd	0x0002E906
0042E21C                                     00 00 00 00             ....
l0042E220	dd	0x0002E516
l0042E224	dd	0x0002E522
l0042E228	dd	0x0002E538
l0042E22C	dd	0x0002E54E
l0042E230	dd	0x0002E55C
l0042E234	dd	0x0002E56E
l0042E238	dd	0x0002E57E
l0042E23C	dd	0x0002E588
l0042E240	dd	0x0002E596
l0042E244	dd	0x0002E5A2
l0042E248	dd	0x0002E5B0
l0042E24C	dd	0x0002E5BA
l0042E250	dd	0x0002E5CC
l0042E254	dd	0x0002E5E2
l0042E258	dd	0x0002E5EA
l0042E25C	dd	0x0002E5FA
l0042E260	dd	0x0002E610
l0042E264	dd	0x0002E62C
l0042E268	dd	0x0002E63A
l0042E26C	dd	0x0002E64A
l0042E270	dd	0x0002E658
l0042E274	dd	0x0002E664
l0042E278	dd	0x0002E670
l0042E27C	dd	0x0002E67E
l0042E280	dd	0x0002E68E
l0042E284	dd	0x0002E6A0
l0042E288	dd	0x0002E6B0
l0042E28C	dd	0x0002E6C2
l0042E290	dd	0x0002E6D0
l0042E294	dd	0x0002E6E0
l0042E298	dd	0x0002E6F2
l0042E29C	dd	0x0002E706
l0042E2A0	dd	0x0002E716
l0042E2A4	dd	0x0002E724
l0042E2A8	dd	0x0002E732
l0042E2AC	dd	0x0002E744
l0042E2B0	dd	0x0002E758
l0042E2B4	dd	0x0002E768
l0042E2B8	dd	0x0002E77C
l0042E2BC	dd	0x0002E792
l0042E2C0	dd	0x0002E79E
l0042E2C4	dd	0x0002E7A6
l0042E2C8	dd	0x0002E7C2
l0042E2CC	dd	0x0002E7D0
l0042E2D0	dd	0x0002E7E0
l0042E2D4	dd	0x0002E7F0
l0042E2D8	dd	0x0002E800
l0042E2DC	dd	0x0002E80C
l0042E2E0	dd	0x0002E826
l0042E2E4	dd	0x0002E83E
l0042E2E8	dd	0x0002E852
l0042E2EC	dd	0x0002E868
l0042E2F0	dd	0x0002E880
l0042E2F4	dd	0x0002E894
l0042E2F8	dd	0x0002E8A2
l0042E2FC	dd	0x0002E8B0
l0042E300	dd	0x0002E8C0
l0042E304	dd	0x0002E8D0
0042E308                         00 00 00 00                     ....   
l0042E30C	dd	0x0002F04C
l0042E310	dd	0x0002F05C
l0042E314	dd	0x0002F076
0042E318                         00 00 00 00                     ....   
l0042E31C	dd	0x0002EBFA
l0042E320	dd	0x0002EC0C
l0042E324	dd	0x0002EC18
l0042E328	dd	0x0002EC26
l0042E32C	dd	0x0002EC3A
l0042E330	dd	0x0002EC44
l0042E334	dd	0x0002EC56
l0042E338	dd	0x0002EC66
l0042E33C	dd	0x0002EC72
l0042E340	dd	0x0002EC7E
l0042E344	dd	0x0002EC8E
l0042E348	dd	0x0002EC9C
l0042E34C	dd	0x0002ECAC
l0042E350	dd	0x0002ECB4
l0042E354	dd	0x0002ECBE
l0042E358	dd	0x0002ECC8
l0042E35C	dd	0x0002ECDA
l0042E360	dd	0x0002ECF4
l0042E364	dd	0x0002ED04
l0042E368	dd	0x0002ED0E
l0042E36C	dd	0x0002ED22
l0042E370	dd	0x0002ED2E
l0042E374	dd	0x0002ED3E
l0042E378	dd	0x0002ED4A
l0042E37C	dd	0x0002ED5C
l0042E380	dd	0x0002ED72
l0042E384	dd	0x0002ED82
l0042E388	dd	0x0002ED8C
l0042E38C	dd	0x0002ED9A
l0042E390	dd	0x0002EDA4
l0042E394	dd	0x0002EDB8
l0042E398	dd	0x0002EDC8
l0042E39C	dd	0x0002EDE0
l0042E3A0	dd	0x0002EDF6
l0042E3A4	dd	0x0002EE06
l0042E3A8	dd	0x0002EE18
l0042E3AC	dd	0x0002EE2C
l0042E3B0	dd	0x0002EE44
l0042E3B4	dd	0x0002EE5A
l0042E3B8	dd	0x0002EE68
0042E3BC                                     00 00 00 00             ....
l0042E3C0	dd	0x0002EF74
l0042E3C4	dd	0x0002EF80
l0042E3C8	dd	0x0002EF8E
l0042E3CC	dd	0x0002EF9C
l0042E3D0	dd	0x0002EFA8
l0042E3D4	dd	0x0002EFBA
l0042E3D8	dd	0x0002EFC8
l0042E3DC	dd	0x0002EFD0
l0042E3E0	dd	0x0002EFDA
l0042E3E4	dd	0x0002EFE6
l0042E3E8	dd	0x0002EFF6
l0042E3EC	dd	0x0002F006
0042E3F0 00 00 00 00                                     ....           
l0042E3F4	dd	0x0002E4F0
0042E3F8                         00 00 00 00                     ....   
l0042E3FC	dd	0x0002EE8E
l0042E400	dd	0x0002EEA4
l0042E404	dd	0x0002EEB8
l0042E408	dd	0x0002EECC
l0042E40C	dd	0x0002EEDE
l0042E410	dd	0x0002EEF2
l0042E414	dd	0x0002EF00
l0042E418	dd	0x0002EF0E
0042E41C                                     00 00 00 00             ....
l0042E420	dd	0x0002EE70
l0042E424	dd	0x0002EE80
0042E428                         00 00 00 00                     ....   
l0042E42C	dd	0x0002EF1C
l0042E430	dd	0x0002EF2A
0042E434             00 00 00 00                             ....       
l0042E438	dd	0x0002E4F8
l0042E43C	dd	0x0002E508
0042E440 00 00 00 00 4B 45 52 4E 45 4C 33 32 2E 44 4C 4C ....KERNEL32.DLL
0042E450 00 4B 45 52 4E 45 4C 33 32 2E 44 4C 4C 00 4B 45 .KERNEL32.DLL.KE
0042E460 52 4E 45 4C 33 32 2E 44 4C 4C 00 4B 45 52 4E 45 RNEL32.DLL.KERNE
0042E470 4C 33 32 2E 44 4C 4C 00 4B 45 52 4E 45 4C 33 32 L32.DLL.KERNEL32
0042E480 2E 44 4C 4C 00 61 64 76 61 70 69 33 32 2E 64 6C .DLL.advapi32.dl
0042E490 6C 00 67 64 69 33 32 2E 64 6C 6C 00 6F 6C 65 33 l.gdi32.dll.ole3
0042E4A0 32 2E 64 6C 6C 00 6F 6C 65 61 75 74 33 32 2E 64 2.dll.oleaut32.d
0042E4B0 6C 6C 00 6F 6C 65 61 75 74 33 32 2E 64 6C 6C 00 ll.oleaut32.dll.
0042E4C0 6F 6C 65 61 75 74 33 32 2E 64 6C 6C 00 75 73 65 oleaut32.dll.use
0042E4D0 72 33 32 2E 64 6C 6C 00 75 73 65 72 33 32 2E 64 r32.dll.user32.d
0042E4E0 6C 6C 00 76 65 72 73 69 6F 6E 2E 64 6C 6C 00 00 ll.version.dll..
0042E4F0 00 00 53 6C 65 65 70 00 00 00 47 65 74 56 65 72 ..Sleep...GetVer
0042E500 73 69 6F 6E 45 78 41 00 00 00 43 72 65 61 74 65 sionExA...Create
0042E510 4D 75 74 65 78 41 00 00 57 72 69 74 65 46 69 6C MutexA..WriteFil
0042E520 65 00 00 00 57 69 64 65 43 68 61 72 54 6F 4D 75 e...WideCharToMu
0042E530 6C 74 69 42 79 74 65 00 00 00 57 61 69 74 46 6F ltiByte...WaitFo
0042E540 72 53 69 6E 67 6C 65 4F 62 6A 65 63 74 00 00 00 rSingleObject...
0042E550 56 69 72 74 75 61 6C 51 75 65 72 79 00 00 55 6E VirtualQuery..Un
0042E560 6D 61 70 56 69 65 77 4F 66 46 69 6C 65 00 00 00 mapViewOfFile...
0042E570 53 65 74 46 69 6C 65 50 6F 69 6E 74 65 72 00 00 SetFilePointer..
0042E580 53 65 74 45 76 65 6E 74 00 00 53 65 74 45 6E 64 SetEvent..SetEnd
0042E590 4F 66 46 69 6C 65 00 00 52 65 73 65 74 45 76 65 OfFile..ResetEve
0042E5A0 6E 74 00 00 52 65 6C 65 61 73 65 4D 75 74 65 78 nt..ReleaseMutex
0042E5B0 00 00 52 65 61 64 46 69 6C 65 00 00 4F 70 65 6E ..ReadFile..Open
0042E5C0 46 69 6C 65 4D 61 70 70 69 6E 67 41 00 00 4D 75 FileMappingA..Mu
0042E5D0 6C 74 69 42 79 74 65 54 6F 57 69 64 65 43 68 61 ltiByteToWideCha
0042E5E0 72 00 00 00 4D 75 6C 44 69 76 00 00 4D 61 70 56 r...MulDiv..MapV
0042E5F0 69 65 77 4F 66 46 69 6C 65 00 00 00 4C 65 61 76 iewOfFile...Leav
0042E600 65 43 72 69 74 69 63 61 6C 53 65 63 74 69 6F 6E eCriticalSection
0042E610 00 00 49 6E 69 74 69 61 6C 69 7A 65 43 72 69 74 ..InitializeCrit
0042E620 69 63 61 6C 53 65 63 74 69 6F 6E 00 00 00 47 6C icalSection...Gl
0042E630 6F 62 61 6C 55 6E 6C 6F 63 6B 00 00 47 6C 6F 62 obalUnlock..Glob
0042E640 61 6C 52 65 41 6C 6C 6F 63 00 00 00 47 6C 6F 62 alReAlloc...Glob
0042E650 61 6C 48 61 6E 64 6C 65 00 00 47 6C 6F 62 61 6C alHandle..Global
0042E660 4C 6F 63 6B 00 00 47 6C 6F 62 61 6C 46 72 65 65 Lock..GlobalFree
0042E670 00 00 47 6C 6F 62 61 6C 41 6C 6C 6F 63 00 00 00 ..GlobalAlloc...
0042E680 47 65 74 56 65 72 73 69 6F 6E 45 78 41 00 00 00 GetVersionExA...
0042E690 47 65 74 54 68 72 65 61 64 4C 6F 63 61 6C 65 00 GetThreadLocale.
0042E6A0 00 00 47 65 74 53 79 73 74 65 6D 49 6E 66 6F 00 ..GetSystemInfo.
0042E6B0 00 00 47 65 74 53 74 72 69 6E 67 54 79 70 65 45 ..GetStringTypeE
0042E6C0 78 41 00 00 47 65 74 53 74 64 48 61 6E 64 6C 65 xA..GetStdHandle
0042E6D0 00 00 47 65 74 50 72 6F 63 41 64 64 72 65 73 73 ..GetProcAddress
0042E6E0 00 00 47 65 74 4D 6F 64 75 6C 65 48 61 6E 64 6C ..GetModuleHandl
0042E6F0 65 41 00 00 47 65 74 4D 6F 64 75 6C 65 46 69 6C eA..GetModuleFil
0042E700 65 4E 61 6D 65 41 00 00 47 65 74 4C 6F 63 61 6C eNameA..GetLocal
0042E710 65 49 6E 66 6F 41 00 00 47 65 74 4C 6F 63 61 6C eInfoA..GetLocal
0042E720 54 69 6D 65 00 00 47 65 74 4C 61 73 74 45 72 72 Time..GetLastErr
0042E730 6F 72 00 00 47 65 74 46 75 6C 6C 50 61 74 68 4E or..GetFullPathN
0042E740 61 6D 65 41 00 00 47 65 74 44 69 73 6B 46 72 65 ameA..GetDiskFre
0042E750 65 53 70 61 63 65 41 00 00 00 47 65 74 44 61 74 eSpaceA...GetDat
0042E760 65 46 6F 72 6D 61 74 41 00 00 47 65 74 43 75 72 eFormatA..GetCur
0042E770 72 65 6E 74 54 68 72 65 61 64 49 64 00 00 47 65 rentThreadId..Ge
0042E780 74 43 75 72 72 65 6E 74 50 72 6F 63 65 73 73 49 tCurrentProcessI
0042E790 64 00 00 00 47 65 74 43 50 49 6E 66 6F 00 00 00 d...GetCPInfo...
0042E7A0 47 65 74 41 43 50 00 00 49 6E 74 65 72 6C 6F 63 GetACP..Interloc
0042E7B0 6B 65 64 43 6F 6D 70 61 72 65 45 78 63 68 61 6E kedCompareExchan
0042E7C0 67 65 00 00 46 72 65 65 4C 69 62 72 61 72 79 00 ge..FreeLibrary.
0042E7D0 00 00 46 6F 72 6D 61 74 4D 65 73 73 61 67 65 41 ..FormatMessageA
0042E7E0 00 00 46 69 6E 64 4E 65 78 74 46 69 6C 65 41 00 ..FindNextFileA.
0042E7F0 00 00 46 69 6E 64 46 69 72 73 74 46 69 6C 65 41 ..FindFirstFileA
0042E800 00 00 46 69 6E 64 43 6C 6F 73 65 00 00 00 46 69 ..FindClose...Fi
0042E810 6C 65 54 69 6D 65 54 6F 4C 6F 63 61 6C 46 69 6C leTimeToLocalFil
0042E820 65 54 69 6D 65 00 00 00 46 69 6C 65 54 69 6D 65 eTime...FileTime
0042E830 54 6F 44 6F 73 44 61 74 65 54 69 6D 65 00 00 00 ToDosDateTime...
0042E840 45 6E 75 6D 43 61 6C 65 6E 64 61 72 49 6E 66 6F EnumCalendarInfo
0042E850 41 00 00 00 45 6E 74 65 72 43 72 69 74 69 63 61 A...EnterCritica
0042E860 6C 53 65 63 74 69 6F 6E 00 00 44 65 6C 65 74 65 lSection..Delete
0042E870 43 72 69 74 69 63 61 6C 53 65 63 74 69 6F 6E 00 CriticalSection.
0042E880 00 00 43 72 65 61 74 65 46 69 6C 65 4D 61 70 70 ..CreateFileMapp
0042E890 69 6E 67 41 00 00 43 72 65 61 74 65 46 69 6C 65 ingA..CreateFile
0042E8A0 41 00 00 00 43 72 65 61 74 65 45 76 65 6E 74 41 A...CreateEventA
0042E8B0 00 00 43 6F 6D 70 61 72 65 53 74 72 69 6E 67 57 ..CompareStringW
0042E8C0 00 00 43 6F 6D 70 61 72 65 53 74 72 69 6E 67 41 ..CompareStringA
0042E8D0 00 00 43 6C 6F 73 65 48 61 6E 64 6C 65 00 00 00 ..CloseHandle...
0042E8E0 54 6C 73 53 65 74 56 61 6C 75 65 00 00 00 54 6C TlsSetValue...Tl
0042E8F0 73 47 65 74 56 61 6C 75 65 00 00 00 4C 6F 63 61 sGetValue...Loca
0042E900 6C 41 6C 6C 6F 63 00 00 47 65 74 4D 6F 64 75 6C lAlloc..GetModul
0042E910 65 48 61 6E 64 6C 65 41 00 00 44 65 6C 65 74 65 eHandleA..Delete
0042E920 43 72 69 74 69 63 61 6C 53 65 63 74 69 6F 6E 00 CriticalSection.
0042E930 00 00 4C 65 61 76 65 43 72 69 74 69 63 61 6C 53 ..LeaveCriticalS
0042E940 65 63 74 69 6F 6E 00 00 45 6E 74 65 72 43 72 69 ection..EnterCri
0042E950 74 69 63 61 6C 53 65 63 74 69 6F 6E 00 00 49 6E ticalSection..In
0042E960 69 74 69 61 6C 69 7A 65 43 72 69 74 69 63 61 6C itializeCritical
0042E970 53 65 63 74 69 6F 6E 00 00 00 56 69 72 74 75 61 Section...Virtua
0042E980 6C 46 72 65 65 00 00 00 56 69 72 74 75 61 6C 41 lFree...VirtualA
0042E990 6C 6C 6F 63 00 00 4C 6F 63 61 6C 46 72 65 65 00 lloc..LocalFree.
0042E9A0 00 00 4C 6F 63 61 6C 41 6C 6C 6F 63 00 00 47 65 ..LocalAlloc..Ge
0042E9B0 74 56 65 72 73 69 6F 6E 00 00 47 65 74 43 75 72 tVersion..GetCur
0042E9C0 72 65 6E 74 54 68 72 65 61 64 49 64 00 00 49 6E rentThreadId..In
0042E9D0 74 65 72 6C 6F 63 6B 65 64 44 65 63 72 65 6D 65 terlockedDecreme
0042E9E0 6E 74 00 00 49 6E 74 65 72 6C 6F 63 6B 65 64 49 nt..InterlockedI
0042E9F0 6E 63 72 65 6D 65 6E 74 00 00 56 69 72 74 75 61 ncrement..Virtua
0042EA00 6C 51 75 65 72 79 00 00 57 69 64 65 43 68 61 72 lQuery..WideChar
0042EA10 54 6F 4D 75 6C 74 69 42 79 74 65 00 00 00 4D 75 ToMultiByte...Mu
0042EA20 6C 74 69 42 79 74 65 54 6F 57 69 64 65 43 68 61 ltiByteToWideCha
0042EA30 72 00 00 00 6C 73 74 72 6C 65 6E 41 00 00 6C 73 r...lstrlenA..ls
0042EA40 74 72 63 70 79 6E 41 00 00 00 4C 6F 61 64 4C 69 trcpynA...LoadLi
0042EA50 62 72 61 72 79 45 78 41 00 00 47 65 74 54 68 72 braryExA..GetThr
0042EA60 65 61 64 4C 6F 63 61 6C 65 00 00 00 47 65 74 53 eadLocale...GetS
0042EA70 74 61 72 74 75 70 49 6E 66 6F 41 00 00 00 47 65 tartupInfoA...Ge
0042EA80 74 50 72 6F 63 41 64 64 72 65 73 73 00 00 47 65 tProcAddress..Ge
0042EA90 74 4D 6F 64 75 6C 65 48 61 6E 64 6C 65 41 00 00 tModuleHandleA..
0042EAA0 47 65 74 4D 6F 64 75 6C 65 46 69 6C 65 4E 61 6D GetModuleFileNam
0042EAB0 65 41 00 00 47 65 74 4C 6F 63 61 6C 65 49 6E 66 eA..GetLocaleInf
0042EAC0 6F 41 00 00 47 65 74 4C 61 73 74 45 72 72 6F 72 oA..GetLastError
0042EAD0 00 00 47 65 74 43 6F 6D 6D 61 6E 64 4C 69 6E 65 ..GetCommandLine
0042EAE0 41 00 00 00 46 72 65 65 4C 69 62 72 61 72 79 00 A...FreeLibrary.
0042EAF0 00 00 46 69 6E 64 46 69 72 73 74 46 69 6C 65 41 ..FindFirstFileA
0042EB00 00 00 46 69 6E 64 43 6C 6F 73 65 00 00 00 45 78 ..FindClose...Ex
0042EB10 69 74 50 72 6F 63 65 73 73 00 00 00 57 72 69 74 itProcess...Writ
0042EB20 65 46 69 6C 65 00 00 00 55 6E 68 61 6E 64 6C 65 eFile...Unhandle
0042EB30 64 45 78 63 65 70 74 69 6F 6E 46 69 6C 74 65 72 dExceptionFilter
0042EB40 00 00 53 65 74 46 69 6C 65 50 6F 69 6E 74 65 72 ..SetFilePointer
0042EB50 00 00 53 65 74 45 6E 64 4F 66 46 69 6C 65 00 00 ..SetEndOfFile..
0042EB60 52 74 6C 55 6E 77 69 6E 64 00 00 00 52 65 61 64 RtlUnwind...Read
0042EB70 46 69 6C 65 00 00 52 61 69 73 65 45 78 63 65 70 File..RaiseExcep
0042EB80 74 69 6F 6E 00 00 47 65 74 53 74 64 48 61 6E 64 tion..GetStdHand
0042EB90 6C 65 00 00 47 65 74 46 69 6C 65 53 69 7A 65 00 le..GetFileSize.
0042EBA0 00 00 47 65 74 46 69 6C 65 54 79 70 65 00 00 00 ..GetFileType...
0042EBB0 43 72 65 61 74 65 46 69 6C 65 41 00 00 00 43 6C CreateFileA...Cl
0042EBC0 6F 73 65 48 61 6E 64 6C 65 00 00 00 52 65 67 51 oseHandle...RegQ
0042EBD0 75 65 72 79 56 61 6C 75 65 45 78 41 00 00 52 65 ueryValueExA..Re
0042EBE0 67 4F 70 65 6E 4B 65 79 45 78 41 00 00 00 52 65 gOpenKeyExA...Re
0042EBF0 67 43 6C 6F 73 65 4B 65 79 00 00 00 55 6E 72 65 gCloseKey...Unre
0042EC00 61 6C 69 7A 65 4F 62 6A 65 63 74 00 00 00 53 74 alizeObject...St
0042EC10 72 65 74 63 68 42 6C 74 00 00 53 65 74 54 65 78 retchBlt..SetTex
0042EC20 74 43 6F 6C 6F 72 00 00 53 65 74 53 74 72 65 74 tColor..SetStret
0042EC30 63 68 42 6C 74 4D 6F 64 65 00 00 00 53 65 74 52 chBltMode...SetR
0042EC40 4F 50 32 00 00 00 53 65 74 44 49 42 43 6F 6C 6F OP2...SetDIBColo
0042EC50 72 54 61 62 6C 65 00 00 53 65 74 42 72 75 73 68 rTable..SetBrush
0042EC60 4F 72 67 45 78 00 00 00 53 65 74 42 6B 4D 6F 64 OrgEx...SetBkMod
0042EC70 65 00 00 00 53 65 74 42 6B 43 6F 6C 6F 72 00 00 e...SetBkColor..
0042EC80 53 65 6C 65 63 74 50 61 6C 65 74 74 65 00 00 00 SelectPalette...
0042EC90 53 65 6C 65 63 74 4F 62 6A 65 63 74 00 00 52 65 SelectObject..Re
0042ECA0 61 6C 69 7A 65 50 61 6C 65 74 74 65 00 00 50 61 alizePalette..Pa
0042ECB0 74 42 6C 74 00 00 4D 6F 76 65 54 6F 45 78 00 00 tBlt..MoveToEx..
0042ECC0 4D 61 73 6B 42 6C 74 00 00 00 47 65 74 54 65 78 MaskBlt...GetTex
0042ECD0 74 4D 65 74 72 69 63 73 41 00 00 00 47 65 74 53 tMetricsA...GetS
0042ECE0 79 73 74 65 6D 50 61 6C 65 74 74 65 45 6E 74 72 ystemPaletteEntr
0042ECF0 69 65 73 00 00 00 47 65 74 53 74 6F 63 6B 4F 62 ies...GetStockOb
0042ED00 6A 65 63 74 00 00 47 65 74 50 69 78 65 6C 00 00 ject..GetPixel..
0042ED10 47 65 74 50 61 6C 65 74 74 65 45 6E 74 72 69 65 GetPaletteEntrie
0042ED20 73 00 00 00 47 65 74 4F 62 6A 65 63 74 41 00 00 s...GetObjectA..
0042ED30 47 65 74 44 65 76 69 63 65 43 61 70 73 00 00 00 GetDeviceCaps...
0042ED40 47 65 74 44 49 42 69 74 73 00 00 00 47 65 74 44 GetDIBits...GetD
0042ED50 49 42 43 6F 6C 6F 72 54 61 62 6C 65 00 00 47 65 IBColorTable..Ge
0042ED60 74 43 75 72 72 65 6E 74 50 6F 73 69 74 69 6F 6E tCurrentPosition
0042ED70 45 78 00 00 47 65 74 42 72 75 73 68 4F 72 67 45 Ex..GetBrushOrgE
0042ED80 78 00 00 00 47 64 69 46 6C 75 73 68 00 00 44 65 x...GdiFlush..De
0042ED90 6C 65 74 65 4F 62 6A 65 63 74 00 00 44 65 6C 65 leteObject..Dele
0042EDA0 74 65 44 43 00 00 43 72 65 61 74 65 50 65 6E 49 teDC..CreatePenI
0042EDB0 6E 64 69 72 65 63 74 00 00 00 43 72 65 61 74 65 ndirect...Create
0042EDC0 50 61 6C 65 74 74 65 00 00 00 43 72 65 61 74 65 Palette...Create
0042EDD0 48 61 6C 66 74 6F 6E 65 50 61 6C 65 74 74 65 00 HalftonePalette.
0042EDE0 00 00 43 72 65 61 74 65 46 6F 6E 74 49 6E 64 69 ..CreateFontIndi
0042EDF0 72 65 63 74 41 00 00 00 43 72 65 61 74 65 44 49 rectA...CreateDI
0042EE00 42 69 74 6D 61 70 00 00 43 72 65 61 74 65 44 49 Bitmap..CreateDI
0042EE10 42 53 65 63 74 69 6F 6E 00 00 43 72 65 61 74 65 BSection..Create
0042EE20 43 6F 6D 70 61 74 69 62 6C 65 44 43 00 00 43 72 CompatibleDC..Cr
0042EE30 65 61 74 65 43 6F 6D 70 61 74 69 62 6C 65 42 69 eateCompatibleBi
0042EE40 74 6D 61 70 00 00 43 72 65 61 74 65 42 72 75 73 tmap..CreateBrus
0042EE50 68 49 6E 64 69 72 65 63 74 00 00 00 43 72 65 61 hIndirect...Crea
0042EE60 74 65 42 69 74 6D 61 70 00 00 42 69 74 42 6C 74 teBitmap..BitBlt
0042EE70 00 00 43 6F 55 6E 69 6E 69 74 69 61 6C 69 7A 65 ..CoUninitialize
0042EE80 00 00 43 6F 49 6E 69 74 69 61 6C 69 7A 65 00 00 ..CoInitialize..
0042EE90 53 61 66 65 41 72 72 61 79 50 74 72 4F 66 49 6E SafeArrayPtrOfIn
0042EEA0 64 65 78 00 00 00 53 61 66 65 41 72 72 61 79 47 dex...SafeArrayG
0042EEB0 65 74 55 42 6F 75 6E 64 00 00 53 61 66 65 41 72 etUBound..SafeAr
0042EEC0 72 61 79 47 65 74 4C 42 6F 75 6E 64 00 00 53 61 rayGetLBound..Sa
0042EED0 66 65 41 72 72 61 79 43 72 65 61 74 65 00 00 00 feArrayCreate...
0042EEE0 56 61 72 69 61 6E 74 43 68 61 6E 67 65 54 79 70 VariantChangeTyp
0042EEF0 65 00 00 00 56 61 72 69 61 6E 74 43 6F 70 79 00 e...VariantCopy.
0042EF00 00 00 56 61 72 69 61 6E 74 43 6C 65 61 72 00 00 ..VariantClear..
0042EF10 56 61 72 69 61 6E 74 49 6E 69 74 00 00 00 47 65 VariantInit...Ge
0042EF20 74 45 72 72 6F 72 49 6E 66 6F 00 00 53 79 73 46 tErrorInfo..SysF
0042EF30 72 65 65 53 74 72 69 6E 67 00 00 00 53 79 73 46 reeString...SysF
0042EF40 72 65 65 53 74 72 69 6E 67 00 00 00 53 79 73 52 reeString...SysR
0042EF50 65 41 6C 6C 6F 63 53 74 72 69 6E 67 4C 65 6E 00 eAllocStringLen.
0042EF60 00 00 53 79 73 41 6C 6C 6F 63 53 74 72 69 6E 67 ..SysAllocString
0042EF70 4C 65 6E 00 00 00 52 65 6C 65 61 73 65 44 43 00 Len...ReleaseDC.
0042EF80 00 00 4D 65 73 73 61 67 65 42 6F 78 41 00 00 00 ..MessageBoxA...
0042EF90 4C 6F 61 64 53 74 72 69 6E 67 41 00 00 00 4C 6F LoadStringA...Lo
0042EFA0 61 64 49 63 6F 6E 41 00 00 00 47 65 74 53 79 73 adIconA...GetSys
0042EFB0 74 65 6D 4D 65 74 72 69 63 73 00 00 47 65 74 53 temMetrics..GetS
0042EFC0 79 73 43 6F 6C 6F 72 00 00 00 47 65 74 44 43 00 ysColor...GetDC.
0042EFD0 00 00 46 69 6C 6C 52 65 63 74 00 00 43 68 61 72 ..FillRect..Char
0042EFE0 4E 65 78 74 41 00 00 00 43 68 61 72 4C 6F 77 65 NextA...CharLowe
0042EFF0 72 42 75 66 66 41 00 00 43 68 61 72 55 70 70 65 rBuffA..CharUppe
0042F000 72 42 75 66 66 41 00 00 43 68 61 72 54 6F 4F 65 rBuffA..CharToOe
0042F010 6D 41 00 00 47 65 74 4B 65 79 62 6F 61 72 64 54 mA..GetKeyboardT
0042F020 79 70 65 00 00 00 4C 6F 61 64 53 74 72 69 6E 67 ype...LoadString
0042F030 41 00 00 00 4D 65 73 73 61 67 65 42 6F 78 41 00 A...MessageBoxA.
0042F040 00 00 43 68 61 72 4E 65 78 74 41 00 00 00 56 65 ..CharNextA...Ve
0042F050 72 51 75 65 72 79 56 61 6C 75 65 41 00 00 47 65 rQueryValueA..Ge
0042F060 74 46 69 6C 65 56 65 72 73 69 6F 6E 49 6E 66 6F tFileVersionInfo
0042F070 53 69 7A 65 41 00 00 00 47 65 74 46 69 6C 65 56 SizeA...GetFileV
0042F080 65 72 73 69 6F 6E 49 6E 66 6F 41 00 00 00 00 00 ersionInfoA.....
0042F090 00 00 00 00 00 00 00 00 00 00 00 00 00 00 00 00 ................
; ...
0042F150 00 00 00 00                                     ....           
;;; Segment .tls (00430000)
00430000 00 00 00 00 00 00 00 00 00 00 00 00             ............   
;;; Segment .rdata (00431000)
00431000 00 00 43 00 0C 00 43 00 A0 80 42 00 10 10 43 00 ..C...C...B...C.
00431010 00 00 00 00 00 00 00 00                         ........       
;;; Segment .reloc (00432000)
00432000 00 00 00 00 00 00 00 00 00 00 00 00 00 00 00 00 ................
; ...
00435490 00 00 00 00                                     ....           
;;; Segment .rsrc (00436000)
00436000 00 00 00 00 00 00 00 00 00 00 00 00 00 00 00 00 ................
